(dp1
S'output'
p2
S"<type 'exceptions.TypeError'> unsupported operand type(s) for +: 'int' and 'list'"
p3
sS'layer'
p4
S'/opt/python/web2py-files/web2py/applications/proyect/controllers/especialista.py'
p5
sS'code'
p6
S'# -*- coding: utf-8 -*-\n# this file is released under public domain and you can use without limitations\ndef __validate(form, id_diagnostico, id_pregunta):\n    \'\'\'\n    Validando que exista un solo tipo de pregunta por cuestionario\n    \'\'\'\n    if id_pregunta:\n        pregunta = db((db.pregunta.diagnostico == id_diagnostico) & (db.pregunta.tipo == form.vars.tipo)).select().first()\n        if pregunta:\n            if str(pregunta.id) != id_pregunta:\n                form.errors.tipo = T("Ya existe una pregunta de tipo para este cuestionario")+pregunta.id+\' \'+id_pregunta\n    else:\n        if not (db((db.pregunta.diagnostico == id_diagnostico) & (db.pregunta.tipo == form.vars.tipo)).isempty()):\n            form.errors.tipo = T("Ya existe una pregunta de tipo para este cuestionario")\n\ndef __total_puntos(id):\n    \'\'\'\n    Calculando los puntos de un cuestionario\n    \'\'\'\n    puntos = 0\n\n    preguntas = db(db.pregunta.diagnostico == id).select()\n\n    for pregunta in preguntas:\n        puntos = puntos + (pregunta.juego_datos.split(\'|\') * puntos)\n\n    return A(CAT(XML(\'<i class="glyphicon glyphicon-list-alt"></i> \'), puntos), _class="btn btn-info", **{\'_data-toggle\': "tooltip", \'_title\': T("Total de puntos del cuestionario"), \'_data-placement\': "top"})\n\n@auth.requires_membership("Especialista")\ndef gestionar_diagnostico():\n    \'\'\'\n    CRUD completo para gestionar diagnosticos kike tiene que ser asi\n    \'\'\'\n\n    diagnostico = preguntas = onvalidation = selectable = orderby = None\n    links = []\n\n    if (("pregunta.diagnostico" in request.args) and not("pregunta" in request.args)):\n        response.title = T(\'Gestionar preguntas del diagn\xc3\xb3stico\') + response.title\n        response.flash = T(\'Gestionar preguntas del diagn\xc3\xb3stico\')\n        mensaje = T(\'Gestionar preguntas del diagn\xc3\xb3stico con identificador: \') + request.args(-1)\n        diagnostico = db.diagnostico(request.args(2))\n        preguntas = db(db.pregunta.diagnostico == request.args(2)).select(orderby=db.pregunta.tipo)\n        selectable = lambda ids: db(db.pregunta.id.belongs(ids)).delete()\n        orderby = [db.pregunta.tipo]\n        onvalidation = lambda form : __validate(form, request.args(2), None)\n    elif (("pregunta.diagnostico" in request.args) and ("pregunta" in request.args) and ("new" in request.args)):\n        response.title = T(\'Pregunta del diagn\xc3\xb3stico\') + response.title\n        response.flash = T(\'Pregunta del diagn\xc3\xb3stico\')\n        mensaje = T(\'Pregunta del diagn\xc3\xb3stico\')\n        onvalidation = lambda form : __validate(form, request.args(2), None)\n    elif (("pregunta.diagnostico" in request.args) and ("pregunta" in request.args) and ("edit" in request.args)):\n        response.title = T(\'Pregunta del diagn\xc3\xb3stico\') + response.title\n        response.flash = T(\'Pregunta del diagn\xc3\xb3stico\')\n        mensaje = T(\'Pregunta del diagn\xc3\xb3stico\')\n        onvalidation = lambda form : __validate(form, request.args(2), request.args(-1))\n    else:\n        response.title = T(\'Gestionar Diagn\xc3\xb3sticos\') + response.title\n        response.flash = T(\'Gestionar Diagn\xc3\xb3sticos\')\n        mensaje = T(\'Gestionar Diagn\xc3\xb3sticos\')\n        selectable = lambda ids: db(db.diagnostico.id.belongs(ids)).delete()\n        orderby = [db.diagnostico.tipo|~db.diagnostico.activo]\n\n        links.append({\'header\': T(\'Total de puntos\'), \'body\': lambda row: __total_puntos(row.id)})\n\n    grid = SQLFORM.smartgrid(db.diagnostico, selectable=selectable, links=links, orderby=orderby, onvalidation=onvalidation)\n\n    heading=grid.elements(\'th\')\n    if heading:\n           heading[0].append(INPUT(_type=\'checkbox\', _onclick="jQuery(\'input[type=checkbox]\').each(function(k){jQuery(this).attr(\'checked\', \'checked\');});"))\n\n    return dict(grid=grid, mensaje=mensaje, diagnostico=diagnostico, preguntas=preguntas)\n\n@auth.requires_membership("Especialista")\ndef nuevo_diagnostico_inicial():\n    response.flash = T("Nuevo Diagn\xc3\xb3stico Inicial")\n    response.title = T("Nuevo Diagn\xc3\xb3stico Inicial") + response.title\n\n    form = SQLFORM(db.diagnostico, fields=[\'titulo\', \'descripcion\', \'activo\'])\n\n    if form.validate():\n        diagnostico = dict(form.vars)\n        diagnostico[\'tipo\'] = 0\n        form.vars.id = db.diagnostico.insert(**diagnostico)\n\n        response.flash = T(\'Nuevo cuestionario Diagn\xc3\xb3stico Inicial insertado\')\n\n    elif form.errors:\n        response.flash = T(\'El formulario tiene errores\')\n    else:\n        response.flash = T(\'Por favor complete el formulario\')\n    return dict(form=form)\n\nresponse._vars=response._caller(gestionar_diagnostico)\n'
p7
sS'snapshot'
p8
(dp9
sS'traceback'
p10
S'Traceback (most recent call last):\n  File "/opt/python/web2py-files/web2py/gluon/restricted.py", line 227, in restricted\n    exec ccode in environment\n  File "/opt/python/web2py-files/web2py/applications/proyect/controllers/especialista.py", line 94, in <module>\n  File "/opt/python/web2py-files/web2py/gluon/globals.py", line 417, in <lambda>\n    self._caller = lambda f: f()\n  File "/opt/python/web2py-files/web2py/gluon/tools.py", line 4241, in f\n    return action(*a, **b)\n  File "/opt/python/web2py-files/web2py/applications/proyect/controllers/especialista.py", line 66, in gestionar_diagnostico\n    grid = SQLFORM.smartgrid(db.diagnostico, selectable=selectable, links=links, orderby=orderby, onvalidation=onvalidation)\n  File "/opt/python/web2py-files/web2py/gluon/sqlhtml.py", line 3102, in smartgrid\n    user_signature=user_signature, **kwargs)\n  File "/opt/python/web2py-files/web2py/gluon/sqlhtml.py", line 2798, in grid\n    toadd.append(TD(link[\'body\'](row)))\n  File "/opt/python/web2py-files/web2py/applications/proyect/controllers/especialista.py", line 64, in <lambda>\n    links.append({\'header\': T(\'Total de puntos\'), \'body\': lambda row: __total_puntos(row.id)})\n  File "/opt/python/web2py-files/web2py/applications/proyect/controllers/especialista.py", line 25, in __total_puntos\n    puntos = puntos + (pregunta.juego_datos.split(\'|\') * puntos)\nTypeError: unsupported operand type(s) for +: \'int\' and \'list\'\n'
p11
s.