(dp1
S'output'
p2
S"<type 'exceptions.AttributeError'> "
p3
sS'layer'
p4
S'/opt/python/web2py-files/web2py/applications/proyect/views/estudiante/visor_preguntas.load'
p5
sS'code'
p6
S'response.write(\'<article>\\n\', escape=False)\nif pregunta:\n    response.write(\'\\n    <!--Card-->\\n    <div class="card wow fadeInRight" style="padding: 10px;">\\n        <!--Card title-->\\n        <div class="overlay hm-white-slight">\\n            \', escape=False)\n    response.write(H5(tipo_pregunta[pregunta.tipo]))\n    response.write(\'\\n            <!--Text-->\\n            <p class="card-text">\', escape=False)\n    response.write(P(pregunta.descripcion))\n    response.write(\'</p>\\n            <hr/>\\n        </div>\\n        <!--/.Card titlw-->\\n\\n        <!--Card content-->\\n        <div class="card-block text-xs-center">\\n            <form id="pregunta-form" enctype="multipart/form-data">\\n                <input type="hidden" name="id" value="\', escape=False)\n    response.write(respuesta_id)\n    response.write(\'">\\n                <input type="hidden" name="intrusiones" value="0">\\n                <input type="hidden" name="aciertos" value="0">\\n\\n                \', escape=False)\n    if pregunta.tipo == \'0\':\n        response.write(\'\\n                    \', escape=False)\n        for juego in pregunta.juego_datos.split(\'|\'):\n            response.write(\'\\n                        \', escape=False)\n            response.write(UL(LI(CAT(juego, INPUT(_type="hidden", _name="pregunta", _value=juego), INPUT(_type="text", _name="respuesta"))), _class="nav"))\n            response.write(\'\\n                    \', escape=False)\n            pass\n        response.write(\'\\n                \', escape=False)\n    elif pregunta.tipo == \'1\':\n        response.write(\'\\n                    \', escape=False)\n        for juego in pregunta.juego_datos.split(\'|\'):\n            response.write(\'\\n                        \', escape=False)\n            response.write(UL(LI(CAT(juego, INPUT(_type="hidden", _name="pregunta", _value=juego), INPUT(_type="text", _name="respuesta"))), _class="nav"))\n            response.write(\'\\n                    \', escape=False)\n            pass\n        response.write(\'\\n                \', escape=False)\n    elif pregunta.tipo == \'2\':\n        response.write(\'\\n                    \', escape=False)\n        for juego in pregunta.juego_datos.split(\'|\'):\n            response.write(\'\\n                        \', escape=False)\n            response.write(UL(LI(CAT(juego, INPUT(_type="hidden", _name="pregunta", _value=juego), INPUT(_type="text", _name="respuesta"))), _class="nav"))\n            response.write(\'\\n                    \', escape=False)\n            pass\n        response.write(\'\\n                \', escape=False)\n    elif pregunta.tipo == \'3\':\n        response.write(\'\\n                    \', escape=False)\n        for juego in pregunta.juego_datos.split(\'|\'):\n            response.write(\'\\n                        \', escape=False)\n            response.write(UL(LI(CAT(juego, INPUT(_type="hidden", _name="pregunta", _value=juego), INPUT(_type="text", _name="respuesta"))), _class="nav"))\n            response.write(\'\\n                    \', escape=False)\n            pass\n        response.write(\'\\n                \', escape=False)\n    elif pregunta.tipo == \'4\':\n        response.write(\'\\n                    \', escape=False)\n        for juego in pregunta.juego_datos.split(\'|\'):\n            response.write(\'\\n                        \', escape=False)\n            response.write(UL(LI(CAT(juego, INPUT(_type="hidden", _name="pregunta", _value=juego), INPUT(_type="text", _name="respuesta"))), _class="nav"))\n            response.write(\'\\n                    \', escape=False)\n            pass\n        response.write(\'\\n                \', escape=False)\n    elif pregunta.tipo == \'5\':\n        response.write(\'\\n                    \', escape=False)\n        for juego in pregunta.juego_datos.split(\'|\'):\n            response.write(\'\\n                        \', escape=False)\n            response.write(UL(LI(CAT(juego, INPUT(_type="hidden", _name="pregunta", _value=juego), INPUT(_type="text", _name="respuesta"))), _class="nav"))\n            response.write(\'\\n                    \', escape=False)\n            pass\n        response.write(\'\\n                \', escape=False)\n    elif pregunta.tipo == \'6\':\n        response.write(\'\\n                    \', escape=False)\n        for juego in pregunta.juego_datos.split(\'|\'):\n            response.write(\'\\n                        \', escape=False)\n            response.write(UL(LI(CAT(juego, INPUT(_type="hidden", _name="pregunta", _value=juego), INPUT(_type="text", _name="respuesta"))), _class="nav"))\n            response.write(\'\\n                    \', escape=False)\n            pass\n        response.write(\'\\n                \', escape=False)\n    else:\n        response.write(\'\\n                    <h1>Error </h1>\\n                \', escape=False)\n        pass\n    response.write(\'\\n            </form>\\n\\n            <div class="row">\\n                <div class="col-md-12">\\n                    <div class="alert alert-success alert-dismissible" role="alert">\', escape=False)\n    response.write(T(\'Click en el bot\xc3\xb3n "Guardar y siguiente" para guardar respuestas y proseguir con el cuestionario\'))\n    response.write(\'</div>\\n                </div>\\n                <div class="col-md-6 col-md-offset-1">\\n                    <nav>\\n                      <ul class="pagination pagination-lg">\\n                          <li class="\', escape=False)\n    if pregunta.tipo == \'0\':\n        response.write(\'active\', escape=False)\n        pass\n    response.write(\'"><span>1 <span class="sr-only"></span></span></li>\\n                          <li class="\', escape=False)\n    if pregunta.tipo == \'1\':\n        response.write(\'active\', escape=False)\n        pass\n    response.write(\'"><span>2 <span class="sr-only"></span></span></li>\\n                          <li class="\', escape=False)\n    if pregunta.tipo == \'2\':\n        response.write(\'active\', escape=False)\n        pass\n    response.write(\'"><span>3 <span class="sr-only"></span></span></li>\\n                          <li class="\', escape=False)\n    if pregunta.tipo == \'3\':\n        response.write(\'active\', escape=False)\n        pass\n    response.write(\'"><span>4 <span class="sr-only"></span></span></li>\\n                          <li class="\', escape=False)\n    if pregunta.tipo == \'4\':\n        response.write(\'active\', escape=False)\n        pass\n    response.write(\'"><span>5 <span class="sr-only"></span></span></li>\\n                          <li class="\', escape=False)\n    if pregunta.tipo == \'5\':\n        response.write(\'active\', escape=False)\n        pass\n    response.write(\'"><span>6 <span class="sr-only"></span></span></li>\\n                          <li class="\', escape=False)\n    if pregunta.tipo == \'6\':\n        response.write(\'active\', escape=False)\n        pass\n    response.write(\'"><span>7 <span class="sr-only"></span></span></li>\\n                      </ul>\\n                    </nav>\\n                </div>\\n                <div class="col-md-3 col-md-offset-2">\\n                    \', escape=False)\n    response.write(A("Guardar y siguiente", _id="guardar", _class="btn btn-default btn-lg", _href=URL(args=[pregunta.diagnostico]), cid=request.cid))\n    response.write(\'\\n                </div>\\n            </div>\\n        </div>\\n    </div>\\n    <!--/.Card content-->\\n\\n    <script text="javascript">\\n        $(function () {\\n            /*Funci\\xc3\\xb3n ajax para guardar la pregunta*/\\n            $(\\\'#guardar\\\').click(function(event){\\n\\n                var formData = $(\\\'#pregunta-form\\\').serializeArray();\\n\\n                $.ajax({\\n                    // la URL para la petici\\xc3\\xb3n\\n                    url : \\\'guardar_respuesta\\\',\\n                    // la informaci\\xc3\\xb3n a enviar\\n                    // (tambi\\xc3\\xa9n es posible utilizar una cadena de datos)\\n                    data : formData,\\n                    // especifica si ser\\xc3\\xa1 una petici\\xc3\\xb3n POST o GET\\n                    type : \\\'POST\\\',\\n                    // el tipo de informaci\\xc3\\xb3n que se espera de respuesta\\n                    dataType : \\\'json\\\',\\n                    // c\\xc3\\xb3digo a ejecutar si la petici\\xc3\\xb3n es satisfactoria;\\n                    // la respuesta es pasada como argumento a la funci\\xc3\\xb3n\\n                    success : function(json) {\\n                        $(\\\'.alert\\\').text("\', escape=False)\n    response.write(T(\'Guardada correctamente\'))\n    response.write(\'");\\n                    },\\n                    // c\\xc3\\xb3digo a ejecutar si la petici\\xc3\\xb3n falla;\\n                    // son pasados como argumentos a la funci\\xc3\\xb3n\\n                    // el objeto de la petici\\xc3\\xb3n en crudo y c\\xc3\\xb3digo de estatus de la petici\\xc3\\xb3n\\n                    error : function(xhr, status) {\\n                        $(\\\'.alert\\\').text("\', escape=False)\n    response.write(T(\'Disculpe, existi\xc3\xb3 un problema\'))\n    response.write(\'");\\n                    },\\n                    // c\\xc3\\xb3digo a ejecutar sin importar si la petici\\xc3\\xb3n fall\\xc3\\xb3 o no\\n                    complete : function(xhr, status) {\\n                        console.log(\\\'Petici\\xc3\\xb3n realizada\\\');\\n                    }\\n                });\\n                event.preventDefault();\\n            });\\n        });\\n    </script>\\n\', escape=False)\nelse:\n    response.write(\'\\n    <script text="javascript">\\n        $(function () {\\n            $(\\\'#diagnostico-time\\\').val(\\\'false\\\');\\n        });\\n    </script>\\n    \', escape=False)\n    response.write(H1(T("Se acabaron las preguntas de este cuestionario")))\n    response.write(\'\\n\', escape=False)\n    pass\nresponse.write(\'\\n</article>\\n\', escape=False)'
p7
sS'snapshot'
p8
(dp9
S'exception'
p10
(dp11
S'__hash__'
p12
S"<method-wrapper '__hash__' of exceptions.AttributeError object>"
p13
sS'__setattr__'
p14
S"<method-wrapper '__setattr__' of exceptions.AttributeError object>"
p15
sS'__reduce_ex__'
p16
S'<built-in method __reduce_ex__ of exceptions.AttributeError object>'
p17
sS'__getslice__'
p18
S"<method-wrapper '__getslice__' of exceptions.AttributeError object>"
p19
sS'__getitem__'
p20
S"<method-wrapper '__getitem__' of exceptions.AttributeError object>"
p21
sS'__setstate__'
p22
S'<built-in method __setstate__ of exceptions.AttributeError object>'
p23
sS'args'
p24
S'()'
p25
sS'__reduce__'
p26
S'<built-in method __reduce__ of exceptions.AttributeError object>'
p27
sS'__str__'
p28
S"<method-wrapper '__str__' of exceptions.AttributeError object>"
p29
sS'__format__'
p30
S'<built-in method __format__ of exceptions.AttributeError object>'
p31
sS'__getattribute__'
p32
S"<method-wrapper '__getattribute__' of exceptions.AttributeError object>"
p33
sS'__class__'
p34
S"<type 'exceptions.AttributeError'>"
p35
sS'__unicode__'
p36
S'<built-in method __unicode__ of exceptions.AttributeError object>'
p37
sS'__delattr__'
p38
S"<method-wrapper '__delattr__' of exceptions.AttributeError object>"
p39
sS'__subclasshook__'
p40
S'<built-in method __subclasshook__ of type object>'
p41
sS'__repr__'
p42
S"<method-wrapper '__repr__' of exceptions.AttributeError object>"
p43
sS'__dict__'
p44
S'{}'
p45
sS'__sizeof__'
p46
S'<built-in method __sizeof__ of exceptions.AttributeError object>'
p47
sS'__doc__'
p48
S"'Attribute not found.'"
p49
sS'__init__'
p50
S"<method-wrapper '__init__' of exceptions.AttributeError object>"
p51
sS'__new__'
p52
S'<built-in method __new__ of type object>'
p53
ssS'evalue'
p54
S''
sS'request'
p55
cgluon.html
XML_unpickle
p56
(S's|[\x00\x00<div><table><tr><td style="font-weight:bold;vertical-align:top;">ajax</td><td style="vertical-align:top;">:</td><td><div>True</div></td></tr><tr><td style="font-weight:bold;vertical-align:top;">application</td><td style="vertical-align:top;">:</td><td><div>proyect</div></td></tr><tr><td style="font-weight:bold;vertical-align:top;">args</td><td style="vertical-align:top;">:</td><td><div><table><tr><td><div>27432087091748039009850110663</div></td></tr></table></div></td></tr><tr><td style="font-weight:bold;vertical-align:top;">cid</td><td style="vertical-align:top;">:</td><td><div>c842653436762</div></td></tr><tr><td style="font-weight:bold;vertical-align:top;">client</td><td style="vertical-align:top;">:</td><td><div>127.0.0.1</div></td></tr><tr><td style="font-weight:bold;vertical-align:top;">controller</td><td style="vertical-align:top;">:</td><td><div>estudiante</div></td></tr><tr><td style="font-weight:bold;vertical-align:top;">cookies</td><td style="vertical-align:top;">:</td><td><div><table><tr><td style="font-weight:bold;vertical-align:top;">session_id_admin</td><td style="vertical-align:top;">:</td><td><div>127.0.0.1-7d764b20-766f-4d2f-9148-278daa0b213b<table><tr><td style="font-weight:bold;vertical-align:top;">comment</td><td style="vertical-align:top;">:</td><td><div></div></td></tr><tr><td style="font-weight:bold;vertical-align:top;">domain</td><td style="vertical-align:top;">:</td><td><div></div></td></tr><tr><td style="font-weight:bold;vertical-align:top;">expires</td><td style="vertical-align:top;">:</td><td><div></div></td></tr><tr><td style="font-weight:bold;vertical-align:top;">httponly</td><td style="vertical-align:top;">:</td><td><div></div></td></tr><tr><td style="font-weight:bold;vertical-align:top;">max-age</td><td style="vertical-align:top;">:</td><td><div></div></td></tr><tr><td style="font-weight:bold;vertical-align:top;">path</td><td style="vertical-align:top;">:</td><td><div></div></td></tr><tr><td style="font-weight:bold;vertical-align:top;">secure</td><td style="vertical-align:top;">:</td><td><div></div></td></tr><tr><td style="font-weight:bold;vertical-align:top;">version</td><td style="vertical-align:top;">:</td><td><div></div></td></tr></table></div></td></tr><tr><td style="font-weight:bold;vertical-align:top;">session_id_proyect</td><td style="vertical-align:top;">:</td><td><div>127.0.0.1-1fc48602-fce7-4c6b-a6c8-a67b315923a8<table><tr><td style="font-weight:bold;vertical-align:top;">comment</td><td style="vertical-align:top;">:</td><td><div></div></td></tr><tr><td style="font-weight:bold;vertical-align:top;">domain</td><td style="vertical-align:top;">:</td><td><div></div></td></tr><tr><td style="font-weight:bold;vertical-align:top;">expires</td><td style="vertical-align:top;">:</td><td><div></div></td></tr><tr><td style="font-weight:bold;vertical-align:top;">httponly</td><td style="vertical-align:top;">:</td><td><div></div></td></tr><tr><td style="font-weight:bold;vertical-align:top;">max-age</td><td style="vertical-align:top;">:</td><td><div></div></td></tr><tr><td style="font-weight:bold;vertical-align:top;">path</td><td style="vertical-align:top;">:</td><td><div></div></td></tr><tr><td style="font-weight:bold;vertical-align:top;">secure</td><td style="vertical-align:top;">:</td><td><div></div></td></tr><tr><td style="font-weight:bold;vertical-align:top;">version</td><td style="vertical-align:top;">:</td><td><div></div></td></tr></table></div></td></tr></table></div></td></tr><tr><td style="font-weight:bold;vertical-align:top;">env</td><td style="vertical-align:top;">:</td><td><div><table><tr><td style="font-weight:bold;vertical-align:top;">HTTP_ACCEPT</td><td style="vertical-align:top;">:</td><td><div>*/*</div></td></tr><tr><td style="font-weight:bold;vertical-align:top;">HTTP_ACCEPT_ENCODING</td><td style="vertical-align:top;">:</td><td><div>gzip, deflate, sdch, br</div></td></tr><tr><td style="font-weight:bold;vertical-align:top;">HTTP_ACCEPT_LANGUAGE</td><td style="vertical-align:top;">:</td><td><div>es-ES,es;q=0.8</div></td></tr><tr><td style="font-weight:bold;vertical-align:top;">HTTP_CONNECTION</td><td style="vertical-align:top;">:</td><td><div>keep-alive</div></td></tr><tr><td style="font-weight:bold;vertical-align:top;">HTTP_COOKIE</td><td style="vertical-align:top;">:</td><td><div>session_id_admin=127.0.0.1-7d764b20-766f-4d2f-9148-278daa0b213b; session_id_proyect=127.0.0.1-1fc48602-fce7-4c6b-a6c8-a67b315923a8</div></td></tr><tr><td style="font-weight:bold;vertical-align:top;">HTTP_HOST</td><td style="vertical-align:top;">:</td><td><div>localhost:8000</div></td></tr><tr><td style="font-weight:bold;vertical-align:top;">HTTP_REFERER</td><td style="vertical-align:top;">:</td><td><div>http://localhost:8000/proyect/estudiante/cuestionario_diagnostico</div></td></tr><tr><td style="font-weight:bold;vertical-align:top;">HTTP_USER_AGENT</td><td style="vertical-align:top;">:</td><td><div>Mozilla/5.0 (X11; Linux x86_64) AppleWebKit/537.36 (KHTML, like Gecko) Ubuntu Chromium/55.0.2883.87 Chrome/55.0.2883.87 Safari/537.36</div></td></tr><tr><td style="font-weight:bold;vertical-align:top;">HTTP_WEB2PY_COMPONENT_ELEMENT</td><td style="vertical-align:top;">:</td><td><div>c842653436762</div></td></tr><tr><td style="font-weight:bold;vertical-align:top;">HTTP_WEB2PY_COMPONENT_LOCATION</td><td style="vertical-align:top;">:</td><td><div>http://localhost:8000/proyect/estudiante/cuestionario_diagnostico</div></td></tr><tr><td style="font-weight:bold;vertical-align:top;">HTTP_X_REQUESTED_WITH</td><td style="vertical-align:top;">:</td><td><div>XMLHttpRequest</div></td></tr><tr><td style="font-weight:bold;vertical-align:top;">PATH_INFO</td><td style="vertical-align:top;">:</td><td><div>/proyect/estudiante/visor_preguntas.load/27432087091748039009850110663</div></td></tr><tr><td style="font-weight:bold;vertical-align:top;">QUERY_STRING</td><td style="vertical-align:top;">:</td><td><div>_signature=8b9f3286a7cf5f5eafb49e97126fcefc46bfd8eb</div></td></tr><tr><td style="font-weight:bold;vertical-align:top;">REMOTE_ADDR</td><td style="vertical-align:top;">:</td><td><div>127.0.0.1</div></td></tr><tr><td style="font-weight:bold;vertical-align:top;">REMOTE_PORT</td><td style="vertical-align:top;">:</td><td><div>49018</div></td></tr><tr><td style="font-weight:bold;vertical-align:top;">REQUEST_METHOD</td><td style="vertical-align:top;">:</td><td><div>GET</div></td></tr><tr><td style="font-weight:bold;vertical-align:top;">SCRIPT_NAME</td><td style="vertical-align:top;">:</td><td><div></div></td></tr><tr><td style="font-weight:bold;vertical-align:top;">SERVER_NAME</td><td style="vertical-align:top;">:</td><td><div>yasmany-tp500lab</div></td></tr><tr><td style="font-weight:bold;vertical-align:top;">SERVER_PORT</td><td style="vertical-align:top;">:</td><td><div>8000</div></td></tr><tr><td style="font-weight:bold;vertical-align:top;">SERVER_PROTOCOL</td><td style="vertical-align:top;">:</td><td><div>HTTP/1.1</div></td></tr><tr><td style="font-weight:bold;vertical-align:top;">SERVER_SOFTWARE</td><td style="vertical-align:top;">:</td><td><div>Rocket 1.2.6</div></td></tr><tr><td style="font-weight:bold;vertical-align:top;">app_folders</td><td style="vertical-align:top;">:</td><td><div>set([&#x27;/opt/python/web2py-files/web2py/applications/admin/&#x27;, &#x27;/opt/python/web2py-files/web2py/applications/proyect/&#x27;, &#x27;/opt/python/web2py-files/web2py/applications/welcome/&#x27;])</div></td></tr><tr><td style="font-weight:bold;vertical-align:top;">applications_parent</td><td style="vertical-align:top;">:</td><td><div>/opt/python/web2py-files/web2py</div></td></tr><tr><td style="font-weight:bold;vertical-align:top;">cmd_args</td><td style="vertical-align:top;">:</td><td><div><table></table></div></td></tr><tr><td style="font-weight:bold;vertical-align:top;">cmd_options</td><td style="vertical-align:top;">:</td><td><div>&lt;Values at 0x7f216b136320: {&#x27;verbose&#x27;: False, &#x27;ip&#x27;: &#x27;127.0.0.1&#x27;, &#x27;debuglevel&#x27;: 30, &#x27;with_scheduler&#x27;: False, &#x27;shutdown_timeout&#x27;: 5, &#x27;taskbar&#x27;: False, &#x27;with_coverage&#x27;: False, &#x27;pid_filename&#x27;: &#x27;httpserver.pid&#x27;, &#x27;maxthreads&#x27;: None, &#x27;softcron&#x27;: False, &#x27;server_name&#x27;: &#x27;yasmany-tp500lab&#x27;, &#x27;bpython&#x27;: False, &#x27;nogui&#x27;: False, &#x27;port&#x27;: 8000, &#x27;print_errors&#x27;: False, &#x27;extcron&#x27;: False, &#x27;runcron&#x27;: False, &#x27;run_system_tests&#x27;: False, &#x27;test&#x27;: None, &#x27;folder&#x27;: &#x27;/opt/python/web2py-files/web2py&#x27;, &#x27;config&#x27;: &#x27;&#x27;, &#x27;minthreads&#x27;: None, &#x27;shell&#x27;: None, &#x27;run&#x27;: &#x27;&#x27;, &#x27;log_filename&#x27;: &#x27;httpserver.log&#x27;, &#x27;profiler_dir&#x27;: None, &#x27;args&#x27;: [&#x27;&#x27;], &#x27;socket_timeout&#x27;: 5, &#x27;ssl_ca_certificate&#x27;: None, &#x27;scheduler&#x27;: None, &#x27;interfaces&#x27;: None, &#x27;ssl_private_key&#x27;: &#x27;&#x27;, &#x27;gae&#x27;: None, &#x27;password&#x27;: &#x27;******&#x27;, &#x27;request_queue_size&#x27;: 5, &#x27;ssl_certificate&#x27;: &#x27;&#x27;, &#x27;cronjob&#x27;: False, &#x27;numthreads&#x27;: None, &#x27;quiet&#x27;: False, &#x27;import_models&#x27;: False, &#x27;timeout&#x27;: 10, &#x27;plain&#x27;: False, &#x27;nobanner&#x27;: False}&gt;</div></td></tr><tr><td style="font-weight:bold;vertical-align:top;">db_sessions</td><td style="vertical-align:top;">:</td><td><div>set([])</div></td></tr><tr><td style="font-weight:bold;vertical-align:top;">debugging</td><td style="vertical-align:top;">:</td><td><div>True</div></td></tr><tr><td style="font-weight:bold;vertical-align:top;">gluon_parent</td><td style="vertical-align:top;">:</td><td><div>/opt/python/web2py-files/web2py</div></td></tr><tr><td style="font-weight:bold;vertical-align:top;">http_accept</td><td style="vertical-align:top;">:</td><td><div>*/*</div></td></tr><tr><td style="font-weight:bold;vertical-align:top;">http_accept_encoding</td><td style="vertical-align:top;">:</td><td><div>gzip, deflate, sdch, br</div></td></tr><tr><td style="font-weight:bold;vertical-align:top;">http_accept_language</td><td style="vertical-align:top;">:</td><td><div>es-ES,es;q=0.8</div></td></tr><tr><td style="font-weight:bold;vertical-align:top;">http_connection</td><td style="vertical-align:top;">:</td><td><div>keep-alive</div></td></tr><tr><td style="font-weight:bold;vertical-align:top;">http_cookie</td><td style="vertical-align:top;">:</td><td><div>session_id_admin=127.0.0.1-7d764b20-766f-4d2f-9148-278daa0b213b; session_id_proyect=127.0.0.1-1fc48602-fce7-4c6b-a6c8-a67b315923a8</div></td></tr><tr><td style="font-weight:bold;vertical-align:top;">http_host</td><td style="vertical-align:top;">:</td><td><div>localhost:8000</div></td></tr><tr><td style="font-weight:bold;vertical-align:top;">http_referer</td><td style="vertical-align:top;">:</td><td><div>http://localhost:8000/proyect/estudiante/cuestionario_diagnostico</div></td></tr><tr><td style="font-weight:bold;vertical-align:top;">http_user_agent</td><td style="vertical-align:top;">:</td><td><div>Mozilla/5.0 (X11; Linux x86_64) AppleWebKit/537.36 (KHTML, like Gecko) Ubuntu Chromium/55.0.2883.87 Chrome/55.0.2883.87 Safari/537.36</div></td></tr><tr><td style="font-weight:bold;vertical-align:top;">http_web2py_component_element</td><td style="vertical-align:top;">:</td><td><div>c842653436762</div></td></tr><tr><td style="font-weight:bold;vertical-align:top;">http_web2py_component_location</td><td style="vertical-align:top;">:</td><td><div>http://localhost:8000/proyect/estudiante/cuestionario_diagnostico</div></td></tr><tr><td style="font-weight:bold;vertical-align:top;">http_x_requested_with</td><td style="vertical-align:top;">:</td><td><div>XMLHttpRequest</div></td></tr><tr><td style="font-weight:bold;vertical-align:top;">is_jython</td><td style="vertical-align:top;">:</td><td><div>False</div></td></tr><tr><td style="font-weight:bold;vertical-align:top;">is_pypy</td><td style="vertical-align:top;">:</td><td><div>False</div></td></tr><tr><td style="font-weight:bold;vertical-align:top;">is_source</td><td style="vertical-align:top;">:</td><td><div>True</div></td></tr><tr><td style="font-weight:bold;vertical-align:top;">local_hosts</td><td style="vertical-align:top;">:</td><td><div><table><tr><td><div>yasmany-tp500lab</div></td></tr><tr><td><div>127.0.1.1</div></td></tr><tr><td><div>::ffff:127.0.0.1</div></td></tr><tr><td><div>::1</div></td></tr><tr><td><div>yasmany-TP500LAB</div></td></tr><tr><td><div>127.0.0.1</div></td></tr></table></div></td></tr><tr><td style="font-weight:bold;vertical-align:top;">path_info</td><td style="vertical-align:top;">:</td><td><div>/proyect/estudiante/visor_preguntas.load/27432087091748039009850110663</div></td></tr><tr><td style="font-weight:bold;vertical-align:top;">query_string</td><td style="vertical-align:top;">:</td><td><div>_signature=8b9f3286a7cf5f5eafb49e97126fcefc46bfd8eb</div></td></tr><tr><td style="font-weight:bold;vertical-align:top;">remote_addr</td><td style="vertical-align:top;">:</td><td><div>127.0.0.1</div></td></tr><tr><td style="font-weight:bold;vertical-align:top;">remote_port</td><td style="vertical-align:top;">:</td><td><div>49018</div></td></tr><tr><td style="font-weight:bold;vertical-align:top;">request_method</td><td style="vertical-align:top;">:</td><td><div>GET</div></td></tr><tr><td style="font-weight:bold;vertical-align:top;">request_uri</td><td style="vertical-align:top;">:</td><td><div>/proyect/estudiante/visor_preguntas.load/27432087091748039009850110663?_signature=8b9f3286a7cf5f5eafb49e97126fcefc46bfd8eb</div></td></tr><tr><td style="font-weight:bold;vertical-align:top;">script_name</td><td style="vertical-align:top;">:</td><td><div></div></td></tr><tr><td style="font-weight:bold;vertical-align:top;">server_name</td><td style="vertical-align:top;">:</td><td><div>yasmany-tp500lab</div></td></tr><tr><td style="font-weight:bold;vertical-align:top;">server_port</td><td style="vertical-align:top;">:</td><td><div>8000</div></td></tr><tr><td style="font-weight:bold;vertical-align:top;">server_protocol</td><td style="vertical-align:top;">:</td><td><div>HTTP/1.1</div></td></tr><tr><td style="font-weight:bold;vertical-align:top;">server_software</td><td style="vertical-align:top;">:</td><td><div>Rocket 1.2.6</div></td></tr><tr><td style="font-weight:bold;vertical-align:top;">web2py_path</td><td style="vertical-align:top;">:</td><td><div>/opt/python/web2py-files/web2py</div></td></tr><tr><td style="font-weight:bold;vertical-align:top;">web2py_version</td><td style="vertical-align:top;">:</td><td><div>2.14.6-stable+timestamp.2016.05.10.00.21.47</div></td></tr><tr><td style="font-weight:bold;vertical-align:top;">wsgi.errors</td><td style="vertical-align:top;">:</td><td><div>&lt;open file &#x27;&lt;stderr&gt;&#x27;, mode &#x27;w&#x27; at 0x7f216fe251e0&gt;</div></td></tr><tr><td style="font-weight:bold;vertical-align:top;">wsgi.file_wrapper</td><td style="vertical-align:top;">:</td><td><div>&lt;class wsgiref.util.FileWrapper at 0x7f216b1cdef0&gt;</div></td></tr><tr><td style="font-weight:bold;vertical-align:top;">wsgi.input</td><td style="vertical-align:top;">:</td><td><div>&lt;socket._fileobject object at 0x7f2131d3a050&gt;</div></td></tr><tr><td style="font-weight:bold;vertical-align:top;">wsgi.multiprocess</td><td style="vertical-align:top;">:</td><td><div>False</div></td></tr><tr><td style="font-weight:bold;vertical-align:top;">wsgi.multithread</td><td style="vertical-align:top;">:</td><td><div>True</div></td></tr><tr><td style="font-weight:bold;vertical-align:top;">wsgi.run_once</td><td style="vertical-align:top;">:</td><td><div>False</div></td></tr><tr><td style="font-weight:bold;vertical-align:top;">wsgi.url_scheme</td><td style="vertical-align:top;">:</td><td><div>http</div></td></tr><tr><td style="font-weight:bold;vertical-align:top;">wsgi.version</td><td style="vertical-align:top;">:</td><td><div><table><tr><td><div>1</div></td></tr><tr><td><div>0</div></td></tr></table></div></td></tr><tr><td style="font-weight:bold;vertical-align:top;">wsgi_errors</td><td style="vertical-align:top;">:</td><td><div>&lt;open file &#x27;&lt;stderr&gt;&#x27;, mode &#x27;w&#x27; at 0x7f216fe251e0&gt;</div></td></tr><tr><td style="font-weight:bold;vertical-align:top;">wsgi_file_wrapper</td><td style="vertical-align:top;">:</td><td><div>&lt;class wsgiref.util.FileWrapper at 0x7f216b1cdef0&gt;</div></td></tr><tr><td style="font-weight:bold;vertical-align:top;">wsgi_input</td><td style="vertical-align:top;">:</td><td><div>&lt;socket._fileobject object at 0x7f2131d3a050&gt;</div></td></tr><tr><td style="font-weight:bold;vertical-align:top;">wsgi_multiprocess</td><td style="vertical-align:top;">:</td><td><div>False</div></td></tr><tr><td style="font-weight:bold;vertical-align:top;">wsgi_multithread</td><td style="vertical-align:top;">:</td><td><div>True</div></td></tr><tr><td style="font-weight:bold;vertical-align:top;">wsgi_run_once</td><td style="vertical-align:top;">:</td><td><div>False</div></td></tr><tr><td style="font-weight:bold;vertical-align:top;">wsgi_url_scheme</td><td style="vertical-align:top;">:</td><td><div>http</div></td></tr><tr><td style="font-weight:bold;vertical-align:top;">wsgi_version</td><td style="vertical-align:top;">:</td><td><div><table><tr><td><div>1</div></td></tr><tr><td><div>0</div></td></tr></table></div></td></tr></table></div></td></tr><tr><td style="font-weight:bold;vertical-align:top;">extension</td><td style="vertical-align:top;">:</td><td><div>load</div></td></tr><tr><td style="font-weight:bold;vertical-align:top;">folder</td><td style="vertical-align:top;">:</td><td><div>/opt/python/web2py-files/web2py/applications/proyect/</div></td></tr><tr><td style="font-weight:bold;vertical-align:top;">function</td><td style="vertical-align:top;">:</td><td><div>visor_preguntas</div></td></tr><tr><td style="font-weight:bold;vertical-align:top;">global_settings</td><td style="vertical-align:top;">:</td><td><div><table><tr><td style="font-weight:bold;vertical-align:top;">app_folders</td><td style="vertical-align:top;">:</td><td><div>set([&#x27;/opt/python/web2py-files/web2py/applications/admin/&#x27;, &#x27;/opt/python/web2py-files/web2py/applications/proyect/&#x27;, &#x27;/opt/python/web2py-files/web2py/applications/welcome/&#x27;])</div></td></tr><tr><td style="font-weight:bold;vertical-align:top;">applications_parent</td><td style="vertical-align:top;">:</td><td><div>/opt/python/web2py-files/web2py</div></td></tr><tr><td style="font-weight:bold;vertical-align:top;">cmd_args</td><td style="vertical-align:top;">:</td><td><div><table></table></div></td></tr><tr><td style="font-weight:bold;vertical-align:top;">cmd_options</td><td style="vertical-align:top;">:</td><td><div>&lt;Values at 0x7f216b136320: {&#x27;verbose&#x27;: False, &#x27;ip&#x27;: &#x27;127.0.0.1&#x27;, &#x27;debuglevel&#x27;: 30, &#x27;with_scheduler&#x27;: False, &#x27;shutdown_timeout&#x27;: 5, &#x27;taskbar&#x27;: False, &#x27;with_coverage&#x27;: False, &#x27;pid_filename&#x27;: &#x27;httpserver.pid&#x27;, &#x27;maxthreads&#x27;: None, &#x27;softcron&#x27;: False, &#x27;server_name&#x27;: &#x27;yasmany-tp500lab&#x27;, &#x27;bpython&#x27;: False, &#x27;nogui&#x27;: False, &#x27;port&#x27;: 8000, &#x27;print_errors&#x27;: False, &#x27;extcron&#x27;: False, &#x27;runcron&#x27;: False, &#x27;run_system_tests&#x27;: False, &#x27;test&#x27;: None, &#x27;folder&#x27;: &#x27;/opt/python/web2py-files/web2py&#x27;, &#x27;config&#x27;: &#x27;&#x27;, &#x27;minthreads&#x27;: None, &#x27;shell&#x27;: None, &#x27;run&#x27;: &#x27;&#x27;, &#x27;log_filename&#x27;: &#x27;httpserver.log&#x27;, &#x27;profiler_dir&#x27;: None, &#x27;args&#x27;: [&#x27;&#x27;], &#x27;socket_timeout&#x27;: 5, &#x27;ssl_ca_certificate&#x27;: None, &#x27;scheduler&#x27;: None, &#x27;interfaces&#x27;: None, &#x27;ssl_private_key&#x27;: &#x27;&#x27;, &#x27;gae&#x27;: None, &#x27;password&#x27;: &#x27;******&#x27;, &#x27;request_queue_size&#x27;: 5, &#x27;ssl_certificate&#x27;: &#x27;&#x27;, &#x27;cronjob&#x27;: False, &#x27;numthreads&#x27;: None, &#x27;quiet&#x27;: False, &#x27;import_models&#x27;: False, &#x27;timeout&#x27;: 10, &#x27;plain&#x27;: False, &#x27;nobanner&#x27;: False}&gt;</div></td></tr><tr><td style="font-weight:bold;vertical-align:top;">db_sessions</td><td style="vertical-align:top;">:</td><td><div>set([])</div></td></tr><tr><td style="font-weight:bold;vertical-align:top;">debugging</td><td style="vertical-align:top;">:</td><td><div>True</div></td></tr><tr><td style="font-weight:bold;vertical-align:top;">gluon_parent</td><td style="vertical-align:top;">:</td><td><div>/opt/python/web2py-files/web2py</div></td></tr><tr><td style="font-weight:bold;vertical-align:top;">is_jython</td><td style="vertical-align:top;">:</td><td><div>False</div></td></tr><tr><td style="font-weight:bold;vertical-align:top;">is_pypy</td><td style="vertical-align:top;">:</td><td><div>False</div></td></tr><tr><td style="font-weight:bold;vertical-align:top;">is_source</td><td style="vertical-align:top;">:</td><td><div>True</div></td></tr><tr><td style="font-weight:bold;vertical-align:top;">local_hosts</td><td style="vertical-align:top;">:</td><td><div><table><tr><td><div>yasmany-tp500lab</div></td></tr><tr><td><div>127.0.1.1</div></td></tr><tr><td><div>::ffff:127.0.0.1</div></td></tr><tr><td><div>::1</div></td></tr><tr><td><div>yasmany-TP500LAB</div></td></tr><tr><td><div>127.0.0.1</div></td></tr></table></div></td></tr><tr><td style="font-weight:bold;vertical-align:top;">web2py_version</td><td style="vertical-align:top;">:</td><td><div>2.14.6-stable+timestamp.2016.05.10.00.21.47</div></td></tr></table></div></td></tr><tr><td style="font-weight:bold;vertical-align:top;">is_https</td><td style="vertical-align:top;">:</td><td><div>False</div></td></tr><tr><td style="font-weight:bold;vertical-align:top;">is_local</td><td style="vertical-align:top;">:</td><td><div>True</div></td></tr><tr><td style="font-weight:bold;vertical-align:top;">is_restful</td><td style="vertical-align:top;">:</td><td><div>False</div></td></tr><tr><td style="font-weight:bold;vertical-align:top;">is_scheduler</td><td style="vertical-align:top;">:</td><td><div>False</div></td></tr><tr><td style="font-weight:bold;vertical-align:top;">is_shell</td><td style="vertical-align:top;">:</td><td><div>False</div></td></tr><tr><td style="font-weight:bold;vertical-align:top;">now</td><td style="vertical-align:top;">:</td><td><div>datetime.datetime(2017, 2, 15, 23, 2, 23, 871996)</div></td></tr><tr><td style="font-weight:bold;vertical-align:top;">raw_args</td><td style="vertical-align:top;">:</td><td><div>27432087091748039009850110663</div></td></tr><tr><td style="font-weight:bold;vertical-align:top;">raw_extension</td><td style="vertical-align:top;">:</td><td><div>load</div></td></tr><tr><td style="font-weight:bold;vertical-align:top;">url</td><td style="vertical-align:top;">:</td><td><div>/proyect/estudiante/visor_preguntas.load/27432087091748039009850110663</div></td></tr><tr><td style="font-weight:bold;vertical-align:top;">utcnow</td><td style="vertical-align:top;">:</td><td><div>datetime.datetime(2017, 2, 16, 4, 2, 23, 872013)</div></td></tr><tr><td style="font-weight:bold;vertical-align:top;">wsgi</td><td style="vertical-align:top;">:</td><td><div>&lt;gluon.main.LazyWSGI object at 0x7f2131d16350&gt;</div></td></tr></table></div>'
tRp57
sS'frames'
p58
(lp59
(dp60
S'file'
p61
S'/opt/python/web2py-files/web2py/gluon/restricted.py'
p62
sS'dump'
p63
(dp64
S'environment'
p65
S"{'A': <class 'gluon.html.A'>, 'ANY_OF': <class 'gluon.validators.ANY_OF'>, 'ASSIGNJS': <function ASSIGNJS>, 'AppConfig': <function AppConfig>, 'Auth': <class 'gluon.tools.Auth'>, 'B': <class 'gluon.html.B'>, 'BEAUTIFY': <class 'gluon.html.BEAUTIFY'>, 'BODY': <class 'gluon.html.BODY'>, 'BR': <class 'gluon.html.BR'>, 'BUTTON': <class 'gluon.html.BUTTON'>, ...}"
p66
sS'ccode'
p67
S'<code object <module> at 0x7f213200deb0, file "/...t/views/estudiante/visor_preguntas.load", line 1>'
p68
ssS'lnum'
p69
I227
sS'lines'
p70
(dp71
I224
S'            ccode = code'
p72
sI225
S'        else:'
p73
sI226
S'            ccode = compile2(code, layer)'
p74
sI227
S'        exec ccode in environment'
p75
sI228
S'    except HTTP:'
p76
sI229
S'        raise'
p77
sI230
S'    except RestrictedError:'
p78
sI231
S'        # do not encapsulate (obfuscate) the original RestrictedError'
p79
sI222
S'    try:'
p80
sI223
S'        if isinstance(code, types.CodeType):'
p81
ssS'call'
p82
S'(code="response.write(\'<article>\\\\n\', escape=False)\\nif p...ss\\nresponse.write(\'\\\\n</article>\\\\n\', escape=False)", environment={\'A\': <class \'gluon.html.A\'>, \'ANY_OF\': <class \'gluon.validators.ANY_OF\'>, \'ASSIGNJS\': <function ASSIGNJS>, \'AppConfig\': <function AppConfig>, \'Auth\': <class \'gluon.tools.Auth\'>, \'B\': <class \'gluon.html.B\'>, \'BEAUTIFY\': <class \'gluon.html.BEAUTIFY\'>, \'BODY\': <class \'gluon.html.BODY\'>, \'BR\': <class \'gluon.html.BR\'>, \'BUTTON\': <class \'gluon.html.BUTTON\'>, ...}, layer=\'/opt/python/web2py-files/web2py/applications/proyect/views/estudiante/visor_preguntas.load\')'
p83
sS'func'
p84
S'restricted'
p85
sa(dp86
g61
S'/opt/python/web2py-files/web2py/applications/proyect/views/estudiante/visor_preguntas.load'
p87
sg63
(dp88
S'titlw'
p89
S'undefined'
p90
ssg69
I12
sg70
(dp91
I7
S'            {{=H5(tipo_pregunta[pregunta.tipo])}}'
p92
sI8
S'            <!--Text-->'
p93
sI9
S'            <p class="card-text">{{=P(pregunta.descripcion)}}</p>'
p94
sI10
S'            <hr/>'
p95
sI11
S'        </div>'
p96
sI12
S'        <!--/.Card titlw-->'
p97
sI13
S''
sI14
S'        <!--Card content-->'
p98
sI15
S'        <div class="card-block text-xs-center">'
p99
sI16
S'            <form id="pregunta-form" enctype="multipart/form-data">'
p100
ssg82
S'()'
p101
sg84
S'<module>'
p102
sa(dp103
g61
S'/opt/python/web2py-files/web2py/gluon/packages/dal/pydal/objects.py'
p104
sg63
(dp105
S'builtinAttributeError'
p106
S"<type 'exceptions.AttributeError'>"
p107
ssg69
I90
sg70
(dp108
I85
S''
sI86
S'    def __getattr__(self, k):'
p109
sI87
S'        try:'
p110
sI88
S'            return self.__getitem__(k)'
p111
sI89
S'        except KeyError:'
p112
sI90
S'            raise AttributeError'
p113
sI91
S''
sI92
S'    def __copy__(self):'
p114
sI93
S'        return Row(self)'
p115
sI94
S''
ssg82
S"(self=<Row {'tiempo': 0.0, 'puntos': 1L, 'modified_by'..., 263000), 'id': 27432101387974696134752613075L}>, k='juego_datos')"
p116
sg84
S'__getattr__'
p117
sasS'pyver'
p118
S'Python 2.7.12: /usr/bin/python (prefix: /usr)'
p119
sS'session'
p120
g56
(S's\xcd\t\x00\x00<div><table><tr><td style="font-weight:bold;vertical-align:top;">auth</td><td style="vertical-align:top;">:</td><td><div><table><tr><td style="font-weight:bold;vertical-align:top;">expiration</td><td style="vertical-align:top;">:</td><td><div>3600</div></td></tr><tr><td style="font-weight:bold;vertical-align:top;">hmac_key</td><td style="vertical-align:top;">:</td><td><div>271e5f1f-15fc-4f77-ad13-91329ad1c0c0</div></td></tr><tr><td style="font-weight:bold;vertical-align:top;">last_visit</td><td style="vertical-align:top;">:</td><td><div>datetime.datetime(2017, 2, 15, 23, 0, 11, 594117)</div></td></tr><tr><td style="font-weight:bold;vertical-align:top;">remember_me</td><td style="vertical-align:top;">:</td><td><div>False</div></td></tr><tr><td style="font-weight:bold;vertical-align:top;">user</td><td style="vertical-align:top;">:</td><td><div><table><tr><td style="font-weight:bold;vertical-align:top;">email</td><td style="vertical-align:top;">:</td><td><div>estudiante@upr.edu.cu</div></td></tr><tr><td style="font-weight:bold;vertical-align:top;">fecha_nacimiento</td><td style="vertical-align:top;">:</td><td><div>datetime.date(1988, 9, 19)</div></td></tr><tr><td style="font-weight:bold;vertical-align:top;">first_name</td><td style="vertical-align:top;">:</td><td><div>Estudiante</div></td></tr><tr><td style="font-weight:bold;vertical-align:top;">id</td><td style="vertical-align:top;">:</td><td><div>27427756755470223859474236108L</div></td></tr><tr><td style="font-weight:bold;vertical-align:top;">last_name</td><td style="vertical-align:top;">:</td><td><div>asd</div></td></tr><tr><td style="font-weight:bold;vertical-align:top;">registration_id</td><td style="vertical-align:top;">:</td><td><div></div></td></tr><tr><td style="font-weight:bold;vertical-align:top;">registration_key</td><td style="vertical-align:top;">:</td><td><div></div></td></tr><tr><td style="font-weight:bold;vertical-align:top;">reset_password_key</td><td style="vertical-align:top;">:</td><td><div></div></td></tr></table></div></td></tr><tr><td style="font-weight:bold;vertical-align:top;">user_groups</td><td style="vertical-align:top;">:</td><td><div><table><tr><td style="font-weight:bold;vertical-align:top;">27427755759346043879158448841</td><td style="vertical-align:top;">:</td><td><div>Estudiante</div></td></tr></table></div></td></tr></table></div></td></tr><tr><td style="font-weight:bold;vertical-align:top;">flash</td><td style="vertical-align:top;">:</td><td><div>None</div></td></tr></table></div>'
tRp121
sS'etype'
p122
S"<type 'exceptions.AttributeError'>"
p123
sS'date'
p124
S'Wed Feb 15 23:02:24 2017'
p125
sS'response'
p126
g56
(S's\x88/\x00\x00<div><table><tr><td style="font-weight:bold;vertical-align:top;">body</td><td style="vertical-align:top;">:</td><td><div>&lt;cStringIO.StringO object at 0x7f2131dc01f0&gt;</div></td></tr><tr><td style="font-weight:bold;vertical-align:top;">cookies</td><td style="vertical-align:top;">:</td><td><div><table><tr><td style="font-weight:bold;vertical-align:top;">session_id_proyect</td><td style="vertical-align:top;">:</td><td><div>127.0.0.1-1fc48602-fce7-4c6b-a6c8-a67b315923a8<table><tr><td style="font-weight:bold;vertical-align:top;">comment</td><td style="vertical-align:top;">:</td><td><div></div></td></tr><tr><td style="font-weight:bold;vertical-align:top;">domain</td><td style="vertical-align:top;">:</td><td><div></div></td></tr><tr><td style="font-weight:bold;vertical-align:top;">expires</td><td style="vertical-align:top;">:</td><td><div></div></td></tr><tr><td style="font-weight:bold;vertical-align:top;">httponly</td><td style="vertical-align:top;">:</td><td><div></div></td></tr><tr><td style="font-weight:bold;vertical-align:top;">max-age</td><td style="vertical-align:top;">:</td><td><div></div></td></tr><tr><td style="font-weight:bold;vertical-align:top;">path</td><td style="vertical-align:top;">:</td><td><div>/</div></td></tr><tr><td style="font-weight:bold;vertical-align:top;">secure</td><td style="vertical-align:top;">:</td><td><div></div></td></tr><tr><td style="font-weight:bold;vertical-align:top;">version</td><td style="vertical-align:top;">:</td><td><div></div></td></tr></table></div></td></tr></table></div></td></tr><tr><td style="font-weight:bold;vertical-align:top;">delimiters</td><td style="vertical-align:top;">:</td><td><div><table><tr><td><div>{{</div></td></tr><tr><td><div>}}</div></td></tr></table></div></td></tr><tr><td style="font-weight:bold;vertical-align:top;">files</td><td style="vertical-align:top;">:</td><td><div><table></table></div></td></tr><tr><td style="font-weight:bold;vertical-align:top;">flash</td><td style="vertical-align:top;">:</td><td><div></div></td></tr><tr><td style="font-weight:bold;vertical-align:top;">form_label_separator</td><td style="vertical-align:top;">:</td><td><div></div></td></tr><tr><td style="font-weight:bold;vertical-align:top;">formstyle</td><td style="vertical-align:top;">:</td><td><div>bootstrap3_inline</div></td></tr><tr><td style="font-weight:bold;vertical-align:top;">generic_patterns</td><td style="vertical-align:top;">:</td><td><div><table><tr><td><div>*</div></td></tr></table></div></td></tr><tr><td style="font-weight:bold;vertical-align:top;">google_analytics_id</td><td style="vertical-align:top;">:</td><td><div>None</div></td></tr><tr><td style="font-weight:bold;vertical-align:top;">headers</td><td style="vertical-align:top;">:</td><td><div><table><tr><td style="font-weight:bold;vertical-align:top;">X-Powered-By</td><td style="vertical-align:top;">:</td><td><div>web2py</div></td></tr><tr><td style="font-weight:bold;vertical-align:top;">web2py-component-flash</td><td style="vertical-align:top;">:</td><td><div>Siguiente Pregunta</div></td></tr></table></div></td></tr><tr><td style="font-weight:bold;vertical-align:top;">logo</td><td style="vertical-align:top;">:</td><td><div><h5><a class="navbar-brand-name" data-target="#index" href="/proyect/default/index.load" id="index">Logo&trade;&nbsp;</a></h5></div></td></tr><tr><td style="font-weight:bold;vertical-align:top;">menu</td><td style="vertical-align:top;">:</td><td><div><table><tr><td><div><table><tr><td><div><ico class="glyphicon glyphicon-edit"></ico> Diagn\xc3\xb3sticos Realizados</div></td></tr><tr><td><div>False</div></td></tr><tr><td><div>/proyect/estudiante/visor_preguntas.load</div></td></tr><tr><td><div><table><tr><td><div><table><tr><td><div>cuestionario_diagnostico</div></td></tr><tr><td><div>False</div></td></tr><tr><td><div><a data-target="#cuestionario_diagnostico" href="/proyect/estudiante/cuestionario_diagnostico.load"><ico class="glyphicon glyphicon-edit"></ico> Diagn\xc3\xb3stico Inicial</a></div></td></tr></table></div></td></tr><tr><td><div><table><tr><td><div>diag_enfocada</div></td></tr><tr><td><div>False</div></td></tr><tr><td><div><a data-target="#diag_enfocada" href="/proyect/estudiante/diag_enfocada.load"><ico class="glyphicon glyphicon-edit"></ico> Atenci\xc3\xb3n Enfocada</a></div></td></tr></table></div></td></tr><tr><td><div><table><tr><td><div>diag_sostenida</div></td></tr><tr><td><div>False</div></td></tr><tr><td><div><a data-target="#diag_sostenida" href="/proyect/estudiante/diag_sostenida.load"><ico class="glyphicon glyphicon-edit"></ico> Atenci\xc3\xb3n Sostenida</a></div></td></tr></table></div></td></tr><tr><td><div><table><tr><td><div>diag_selectiva</div></td></tr><tr><td><div>False</div></td></tr><tr><td><div><a data-target="#diag_selectiva" href="/proyect/estudiante/diag_selectiva.load"><ico class="glyphicon glyphicon-edit"></ico> Atenci\xc3\xb3n Selectiva</a></div></td></tr></table></div></td></tr><tr><td><div><table><tr><td><div>diag_alternada</div></td></tr><tr><td><div>False</div></td></tr><tr><td><div><a data-target="#diag_alternada" href="/proyect/estudiante/diag_alternada.load"><ico class="glyphicon glyphicon-edit"></ico> Atenci\xc3\xb3n Alternada</a></div></td></tr></table></div></td></tr><tr><td><div><table><tr><td><div>diag_dividida</div></td></tr><tr><td><div>False</div></td></tr><tr><td><div><a data-target="#diag_dividida" href="/proyect/estudiante/diag_dividida.load"><ico class="glyphicon glyphicon-edit"></ico> Atenci\xc3\xb3n Dividida</a></div></td></tr></table></div></td></tr></table></div></td></tr></table></div></td></tr><tr><td><div><table><tr><td><div><ico class="glyphicon glyphicon-edit"></ico> Resultados</div></td></tr><tr><td><div>False</div></td></tr><tr><td><div>/proyect/estudiante/visor_preguntas.load</div></td></tr><tr><td><div><table><tr><td><div><table><tr><td><div>resultado_general</div></td></tr><tr><td><div>False</div></td></tr><tr><td><div><a data-target="#resultado_general" href="/proyect/estudiante/resultado_general.load"><ico class="glyphicon glyphicon-edit"></ico> Resultado General</a></div></td></tr></table></div></td></tr><tr><td><div><table><tr><td><div>resultado_enfocada</div></td></tr><tr><td><div>False</div></td></tr><tr><td><div><a data-target="#resultado_enfocada" href="/proyect/estudiante/resultado_enfocada.load"><ico class="glyphicon glyphicon-edit"></ico> Atenci\xc3\xb3n Enfocada</a></div></td></tr></table></div></td></tr><tr><td><div><table><tr><td><div>resultado_sostenida</div></td></tr><tr><td><div>False</div></td></tr><tr><td><div><a data-target="#resultado_sostenida" href="/proyect/estudiante/resultado_sostenida.load"><ico class="glyphicon glyphicon-edit"></ico> Atenci\xc3\xb3n Sostenida</a></div></td></tr></table></div></td></tr><tr><td><div><table><tr><td><div>resultado_selectiva</div></td></tr><tr><td><div>False</div></td></tr><tr><td><div><a data-target="#resultado_selectiva" href="/proyect/estudiante/resultado_selectiva.load"><ico class="glyphicon glyphicon-edit"></ico> Atenci\xc3\xb3n Selectiva</a></div></td></tr></table></div></td></tr><tr><td><div><table><tr><td><div>resultado_alternada</div></td></tr><tr><td><div>False</div></td></tr><tr><td><div><a data-target="#resultado_alternada" href="/proyect/estudiante/resultado_alternada.load"><ico class="glyphicon glyphicon-edit"></ico> Atenci\xc3\xb3n Alternada</a></div></td></tr></table></div></td></tr><tr><td><div><table><tr><td><div>resultado_dividida</div></td></tr><tr><td><div>False</div></td></tr><tr><td><div><a data-target="#resultado_dividida" href="/proyect/estudiante/resultado_dividida.load"><ico class="glyphicon glyphicon-edit"></ico> Atenci\xc3\xb3n Dividida</a></div></td></tr></table></div></td></tr></table></div></td></tr></table></div></td></tr></table></div></td></tr><tr><td style="font-weight:bold;vertical-align:top;">meta</td><td style="vertical-align:top;">:</td><td><div><table><tr><td style="font-weight:bold;vertical-align:top;">author</td><td style="vertical-align:top;">:</td><td><div>Enrique Alfonso Carmona &lt;eacarmona860920@gmail.com&gt;</div></td></tr><tr><td style="font-weight:bold;vertical-align:top;">description</td><td style="vertical-align:top;">:</td><td><div>Sistema automatizado para mejorar la atenci\xc3\xb3n</div></td></tr><tr><td style="font-weight:bold;vertical-align:top;">generator</td><td style="vertical-align:top;">:</td><td><div>Web2py Web Framework</div></td></tr><tr><td style="font-weight:bold;vertical-align:top;">keywords</td><td style="vertical-align:top;">:</td><td><div><table><tr><td><div>web2py</div></td></tr><tr><td><div>python</div></td></tr><tr><td><div>framework</div></td></tr></table></div></td></tr></table></div></td></tr><tr><td style="font-weight:bold;vertical-align:top;">models_to_run</td><td style="vertical-align:top;">:</td><td><div><table><tr><td><div>^\\w+\\.py$</div></td></tr><tr><td><div>^estudiante/\\w+\\.py$</div></td></tr><tr><td><div>^estudiante/visor_preguntas/\\w+\\.py$</div></td></tr></table></div></td></tr><tr><td style="font-weight:bold;vertical-align:top;">optimize_css</td><td style="vertical-align:top;">:</td><td><div>concat,minify,inline</div></td></tr><tr><td style="font-weight:bold;vertical-align:top;">optimize_js</td><td style="vertical-align:top;">:</td><td><div>concat,minify,inline</div></td></tr><tr><td style="font-weight:bold;vertical-align:top;">postprocessing</td><td style="vertical-align:top;">:</td><td><div><table></table></div></td></tr><tr><td style="font-weight:bold;vertical-align:top;">session_client</td><td style="vertical-align:top;">:</td><td><div>127.0.0.1</div></td></tr><tr><td style="font-weight:bold;vertical-align:top;">session_cookie_compression_level</td><td style="vertical-align:top;">:</td><td><div>None</div></td></tr><tr><td style="font-weight:bold;vertical-align:top;">session_cookie_expires</td><td style="vertical-align:top;">:</td><td><div>None</div></td></tr><tr><td style="font-weight:bold;vertical-align:top;">session_data_name</td><td style="vertical-align:top;">:</td><td><div>session_data_proyect</div></td></tr><tr><td style="font-weight:bold;vertical-align:top;">session_file</td><td style="vertical-align:top;">:</td><td><div>&lt;open file &#x27;/opt/python/web2py-files/web2py/applications/proyect/sessions/08f/0ee/127.0.0.1-1fc48602-fce7-4c6b-a6c8-a67b315923a8&#x27;, mode &#x27;rb+&#x27; at 0x7f2132dcad20&gt;</div></td></tr><tr><td style="font-weight:bold;vertical-align:top;">session_filename</td><td style="vertical-align:top;">:</td><td><div>/opt/python/web2py-files/web2py/applications/proyect/sessions/127.0.0.1-1fc48602-fce7-4c6b-a6c8-a67b315923a8</div></td></tr><tr><td style="font-weight:bold;vertical-align:top;">session_hash</td><td style="vertical-align:top;">:</td><td><div>40e2595050935c1b00dd92aa10d9d726</div></td></tr><tr><td style="font-weight:bold;vertical-align:top;">session_id</td><td style="vertical-align:top;">:</td><td><div>127.0.0.1-1fc48602-fce7-4c6b-a6c8-a67b315923a8</div></td></tr><tr><td style="font-weight:bold;vertical-align:top;">session_id_name</td><td style="vertical-align:top;">:</td><td><div>session_id_proyect</div></td></tr><tr><td style="font-weight:bold;vertical-align:top;">session_locked</td><td style="vertical-align:top;">:</td><td><div>True</div></td></tr><tr><td style="font-weight:bold;vertical-align:top;">session_masterapp</td><td style="vertical-align:top;">:</td><td><div>proyect</div></td></tr><tr><td style="font-weight:bold;vertical-align:top;">session_new</td><td style="vertical-align:top;">:</td><td><div>False</div></td></tr><tr><td style="font-weight:bold;vertical-align:top;">session_storage_type</td><td style="vertical-align:top;">:</td><td><div>file</div></td></tr><tr><td style="font-weight:bold;vertical-align:top;">status</td><td style="vertical-align:top;">:</td><td><div>200</div></td></tr><tr><td style="font-weight:bold;vertical-align:top;">subtitle</td><td style="vertical-align:top;">:</td><td><div></div></td></tr><tr><td style="font-weight:bold;vertical-align:top;">title</td><td style="vertical-align:top;">:</td><td><div> | Proyect</div></td></tr><tr><td style="font-weight:bold;vertical-align:top;">view</td><td style="vertical-align:top;">:</td><td><div>estudiante/visor_preguntas.load</div></td></tr></table></div>'
tRp127
sS'locals'
p128
(dp129
S'k'
S"'juego_datos'"
p130
sS'self'
p131
S"<Row {'tiempo': 0.0, 'puntos': 1L, 'modified_by'..., 263000), 'id': 27432101387974696134752613075L}>"
p132
sssS'traceback'
p133
S'Traceback (most recent call last):\n  File "/opt/python/web2py-files/web2py/gluon/restricted.py", line 227, in restricted\n    exec ccode in environment\n  File "/opt/python/web2py-files/web2py/applications/proyect/views/estudiante/visor_preguntas.load", line 12, in <module>\n    <!--/.Card titlw-->\n  File "/opt/python/web2py-files/web2py/gluon/packages/dal/pydal/objects.py", line 90, in __getattr__\n    raise AttributeError\nAttributeError\n'
p134
s.