(dp1
S'output'
p2
S"<type 'exceptions.SyntaxError'> invalid syntax (db.py, line 207)"
p3
sS'layer'
p4
S'/opt/python/web2py-files/web2py/applications/proyect/models/db.py'
p5
sS'code'
p6
S'# -*- coding: utf-8 -*-\n\n# -------------------------------------------------------------------------\n# This scaffolding model makes your app work on Google App Engine too\n# File is released under public domain and you can use without limitations\n# -------------------------------------------------------------------------\n\nif request.global_settings.web2py_version < "2.14.1":\n    raise HTTP(500, "Requires web2py 2.13.3 or newer")\n\n# -------------------------------------------------------------------------\n# if SSL/HTTPS is properly configured and you want all HTTP requests to\n# be redirected to HTTPS, uncomment the line below:\n# -------------------------------------------------------------------------\n# request.requires_https()\n\n# -------------------------------------------------------------------------\n# app configuration made easy. Look inside private/appconfig.ini\n# -------------------------------------------------------------------------\nfrom gluon.contrib.appconfig import AppConfig\n\n# -------------------------------------------------------------------------\n# once in production, remove reload=True to gain full speed\n# -------------------------------------------------------------------------\nmyconf = AppConfig(reload=True)\n\nif not request.env.web2py_runtime_gae:\n    # ---------------------------------------------------------------------\n    # if NOT running on Google App Engine use SQLite or other DB\n    # ---------------------------------------------------------------------\n    db = DAL(myconf.get(\'db.uri\'),\n             pool_size=myconf.get(\'db.pool_size\'),\n             migrate_enabled=myconf.get(\'db.migrate\'),\n             check_reserved=[\'all\'])\nelse:\n    # ---------------------------------------------------------------------\n    # connect to Google BigTable (optional \'google:datastore://namespace\')\n    # ---------------------------------------------------------------------\n    db = DAL(\'google:datastore+ndb\')\n    # ---------------------------------------------------------------------\n    # store sessions and tickets there\n    # ---------------------------------------------------------------------\n    session.connect(request, response, db=db)\n    # ---------------------------------------------------------------------\n    # or store session in Memcache, Redis, etc.\n    # from gluon.contrib.memdb import MEMDB\n    # from google.appengine.api.memcache import Client\n    # session.connect(request, response, db = MEMDB(Client()))\n    # ---------------------------------------------------------------------\n\n# -------------------------------------------------------------------------\n# by default give a view/generic.extension to all actions from localhost\n# none otherwise. a pattern can be \'controller/function.extension\'\n# -------------------------------------------------------------------------\nresponse.generic_patterns = [\'*\'] if request.is_local else []\n# -------------------------------------------------------------------------\n# choose a style for forms\n# -------------------------------------------------------------------------\nresponse.formstyle = myconf.get(\'forms.formstyle\')  # or \'bootstrap3_stacked\' or \'bootstrap2\' or other\nresponse.form_label_separator = myconf.get(\'forms.separator\') or \'\'\n\n# -------------------------------------------------------------------------\n# (optional) optimize handling of static files\n# -------------------------------------------------------------------------\nresponse.optimize_css = \'concat,minify,inline\'\nresponse.optimize_js = \'concat,minify,inline\'\n\n# -------------------------------------------------------------------------\n# (optional) static assets folder versioning\n# -------------------------------------------------------------------------\n# response.static_version = \'0.0.0\'\n\n# -------------------------------------------------------------------------\n# Here is sample code if you need for\n# - email capabilities\n# - authentication (registration, login, logout, ... )\n# - authorization (role based authorization)\n# - services (xml, csv, json, xmlrpc, jsonrpc, amf, rss)\n# - old style crud actions\n# (more options discussed in gluon/tools.py)\n# -------------------------------------------------------------------------\n\nfrom gluon.tools import Auth, Service, PluginManager\n\n# host names must be a list of allowed host names (glob syntax allowed)\nauth = Auth(db, host_names=myconf.get(\'host.names\'))\nservice = Service()\nplugins = PluginManager()\n\n\'\'\'\n\ndb.define_table(\'centro\',\n    Field(\'nombre\', \'string\', default=\'\', label=T(\'Nombre del centro\')),\n    Field(\'nivel_educativo\', \'string\', default=\'\', label=T(\'Nivel Educativo\')),\n    Field(\'direccion\', \'string\', default=\'\', label=T(\'Direcci\xc3\xb3n\')),\n    format=\'%(nombre)s\')\n\ndb.centro._singular = T("Centro")\ndb.centro._plural = T("Centros")\n\ndb.centro.nivel_educativo.requires = IS_IN_SET({\'Presscolar\': T(\'Presscolar\'), \'Primaria\': T(\'Primaria\'), \'Secundaria\': T(\'Secundaria\'), \'Media Superior\': T(\'Media Superior\'), \'Superior\': T(\'Superior\')}, zero=T(\'Choose one\'), error_message=T(\'Choose one\'))\ndb.centro.nombre.requires = IS_NOT_EMPTY()\ndb.centro.direccion.requires = IS_NOT_EMPTY()\n\nauth.settings.extra_fields[\'auth_user\']= [\n  Field(\'centro\', \'reference centro\', label=T(\'Centro de procedencia\'))]\n\n\'\'\'\n\n# -------------------------------------------------------------------------\n# create all tables needed by auth if not custom tables\n# -------------------------------------------------------------------------\nauth.define_tables(username=False, signature=False)\n\ndb._common_fields.append(auth.signature)\n\n# -------------------------------------------------------------------------\n# configure email\n# -------------------------------------------------------------------------\nmail = auth.settings.mailer\nmail.settings.server = \'logging\' if request.is_local else myconf.get(\'smtp.server\')\nmail.settings.sender = myconf.get(\'smtp.sender\')\nmail.settings.login = myconf.get(\'smtp.login\')\nmail.settings.tls = myconf.get(\'smtp.tls\') or False\nmail.settings.ssl = myconf.get(\'smtp.ssl\') or False\n\n# all we need is login\nauth.settings.actions_disabled=[\'retrieve_username\', \'register\',\'profile\']#, \'request_reset_password\']\n\n# -------------------------------------------------------------------------\n# configure auth policy\n# -------------------------------------------------------------------------\nauth.settings.registration_requires_verification = False\nauth.settings.registration_requires_approval = False\nauth.settings.reset_password_requires_verification = False\nauth.settings.create_user_groups = None\n\nauth.settings.remember_me_form = False\n\n# -------------------------------------------------------------------------\n# Define your tables below (or better in another model file) for example\n#\n# >>> db.define_table(\'mytable\', Field(\'myfield\', \'string\'))\n#\n# Fields can be \'string\',\'text\',\'password\',\'integer\',\'double\',\'boolean\'\n#       \'date\',\'time\',\'datetime\',\'blob\',\'upload\', \'reference TABLENAME\'\n# There is an implicit \'id integer autoincrement\' field\n# Consult manual for more options, validators, etc.\n#\n# More API examples for controllers:\n#\n# >>> db.mytable.insert(myfield=\'value\')\n# >>> rows = db(db.mytable.myfield == \'value\').select(db.mytable.ALL)\n# >>> for row in rows: print row.id, row.myfield\n# -------------------------------------------------------------------------\n\n# -------------------------------------------------------------------------\n# after defining tables, uncomment below to enable auditing\n# -------------------------------------------------------------------------\n# auth.enable_record_versioning(db)\n\ntipo_pregunta = {\'0\': T(\'Orientaci\xc3\xb3n\'), \'1\': T(\'D\xc3\xadgitos en progresi\xc3\xb3n\'), \'2\': T(\'D\xc3\xadgitos en regresi\xc3\xb3n\'), \'3\': T(\'Cubos en progresi\xc3\xb3n\'), \'4\': T(\'Detecci\xc3\xb3n visual\'), \'5\': T(\'Detecci\xc3\xb3n de d\xc3\xadgitos\'), \'6\': T(\'Series sucesivas\')}\n\ntipo_diagnostico = {\'0\': T(\'Inicial\'), \'1\': T(\'Otro\')}\n\n\ndb.define_table(\'diagnostico\',\n   Field(\'titulo\', \'string\', label=T(\'T\xc3\xadtulo\'), comment=T(\'T\xc3\xadtulo del diagn\xc3\xb3stico\')),\n   Field(\'descripcion\', \'text\', label=T(\'Descripci\xc3\xb3n\'), comment=T(\'Descripci\xc3\xb3n del diagn\xc3\xb3stico\')),\n   Field(\'tipo\', \'string\', label=T(\'Tipo\'), comment=T(\'Tipo de cuestionario diagn\xc3\xb3stico\')),\n   Field(\'activo\', \'boolean\', default=False, label=T(\'Activo\'), comment=T(\'\xc2\xbfCuestionario activo?\')),\n   format=\'%(titulo)s\')\n\ndb.diagnostico._singular = T(\'Diagn\xc3\xb3stico\')\ndb.diagnostico._plural = T(\'Diagn\xc3\xb3sticos\')\n\ndb.diagnostico.titulo.requires = [IS_NOT_EMPTY(), IS_NOT_IN_DB(db, \'diagnostico.titulo\')]\ndb.diagnostico.descripcion.requires = IS_NOT_EMPTY()\ndb.diagnostico.tipo.requires = IS_IN_SET(tipo_diagnostico, zero=T(\'Choose one\'), error_message=T(\'Choose one\'))\n\ndb.diagnostico.tipo.represent = lambda valor, registro: tipo_diagnostico[valor]\n\n\ndef desactivarDiagnostico(f):\n    """\n    Desactivar cuestionario diagn\xc3\xb3stico activo\n    """\n    try:\n        if f.has_key(\'activo\') and f.has_key(\'tipo\'):\n            if f[\'activo\']:\n                db((db.diagnostico.id > 0) & (db.diagnostico.tipo == f[\'tipo\'])).update(activo=False)\n        return None\n    except Exception, e:\n        return True\n\ndb.diagnostico._before_insert.append(lambda f: desactivarDiagnostico(f))\ndb.diagnostico._before_update.append(lambda s,f: desactivarDiagnostico(f))\n\n\ndb.define_table(\'pregunta\',\n   Field(\'descripcion\', \'text\', label=T(\'Descripci\xc3\xb3n\'), comment=T(\'Descripci\xc3\xb3n de la pregunta\')),\n   Field(\'juego_datos\', \'text\', label=T(\'Juegos de Datos\'), comment=T(\'Formato de juego de Datos ejemplo: "1,2,3|2,3,4|1,3,5" (juegos de datos 3)\')),\n   Field(\'juego_respuestas\', \'text\', label=T(\'Juegos de Respuestas\'), comment=T(\'Formato de juego de Respuestas ejemplo: "1,2,3|2,3,4|1,3,5" (juegos de respuestas 3\')),\n   Field(\'tipo\', \'string\', label=T(\'Tipo\'), comment=T(\'Tipo de pregunta\')),\n   Field(\'tiempo\', \'double\', label=T(\'Tiempo\'), default=-1.0, comment=T(\'Tiempo para realizar la pregunta espresado en segundos (s)\')),\n   Field(\'intentos\', \'integer\', label=T(\'Intentos\'), default=1)\n   Field(\'puntos\', \'integer\',  label=T(\'Evaluaci\xc3\xb3n\'), comment=T(\'Evaluaci\xc3\xb3n de la pregunta\')),\n   format=\'%(texto)s\')\n\ndb.pregunta._singular = T(\'Pregunta\')\ndb.pregunta._plural = T(\'Preguntas\')\n\ndb.pregunta.texto.requires = [IS_NOT_EMPTY(), IS_NOT_IN_DB(db, \'pregunta.texto\')]\ndb.pregunta.puntos.requires = IS_INT_IN_RANGE()\ndb.pregunta.tipo.requires = IS_IN_SET(tipo_pregunta, zero=T(\'Choose one\'), error_message=T(\'Choose one\'))\n\ndb.pregunta.tipo.represent = lambda valor, registro: tipo_pregunta[valor]\n\n\n\'\'\'NEWS_WIDTH = 2340\nNEWS_HEIGTH = 600\n\ndb.define_table(\'banner\',\n   Field(\'titulo\', \'string\', label=T(\'T\xc3\xadtulo\')),\n   Field(\'imagen\', \'upload\', uploadseparate = True, autodelete=True, label=T(\'Imagen\'), comment=T(\'Image size \'+str(NEWS_WIDTH)+\'x\'+str(NEWS_HEIGTH))),\n   Field(\'publicar_en\', \'date\', default=request.now, label=T(\'Publicar en\')),\n   Field(\'habilitado\', \'boolean\', default=True, label=T(\'Est\xc3\xa1 habilitado\')),\n   format=\'%(titulo)s\')\n\ndb.banner._singular = T(\'Banner\')\ndb.banner._plural = T(\'Banners\')\n\ndb.banner.titulo.requires = IS_NOT_EMPTY()\ndb.banner.publicar_en.requires = IS_DATE()\ndb.banner.imagen.requires = [IS_EMPTY_OR(IS_IMAGE(extensions=(\'png\', \'jpg\', \'jpeg\'), maxsize=(NEWS_WIDTH, NEWS_HEIGTH),  error_message=T(\'Image news format (png, jpeg, jpg), maxsize \'+str(NEWS_WIDTH)+\'x\'+str(NEWS_HEIGTH))))]\n\ndb.banner.imagen.represent = lambda value, register: A(T(\'Click here for download or url copy\'), _href=URL(\'default\', \'download\', args=[value]))\n\n\ndb.define_table(\'nivel_atencional\',\n    Field(\'nombre\', \'string\', default=\'\', label=T(\'Nombre\'), comment=T(\'Atencion enfocada, Sostenida, Selectiva, Alternada, Dividida\')),\n    Field(\'descripcion\', \'text\', default=\'\', label=T(\'Descripcion\')),\n    format=\'%(nombre)s\')\n\ndb.nivel_atencional._singular = T(\'Nivel de atenci\xc3\xb3n\')\ndb.nivel_atencional._plural = T(\'Niveles de atenci\xc3\xb3n\')\n\ndb.nivel_atencional.nombre.requires = IS_NOT_EMPTY()\n\n\ndb.define_table(\'resultado_general\',\n    Field(\'fecha\', \'date\', default=request.now, label=T(\'Fecha\')),\n    Field(\'nivel_atencional\', \'reference nivel_atencional\', label=T(\'Nivel atencional\')),\n    Field(\'resultado\', \'string\', label=T(\'Resultado\')),\n    Field(\'observacion\', \'text\', default=\'\', label=T(\'Observaciones\')),\n    format=\'%(id)s\')\n\ndb.resultado_general._singular = T(\'Observaci\xc3\xb3n general\')\ndb.resultado_general._plural = T(\'Observaciones generales\')\n\ndb.resultado_general.fecha.requires = IS_DATE()\ndb.resultado_general.resultado.requires = IS_IN_SET({\'Mejor\': T(\'Mejor\'), \'Igual\': T(\'Igual\'), \'Peor\': T(\'Peor\')}, zero=T(\'Choose one\'), error_message=T(\'Choose one\'))\ndb.resultado_general.observacion.requires = IS_NOT_EMPTY()\n\n\ndb.define_table(\'ejercicio\',\n    Field(\'hora_inicio\', \'datetime\', default=request.now, label=T(\'Hora de inicio\')),\n    Field(\'hora_fin\', \'datetime\', default=request.now, label=T(\'Hora de fin\')),\n    Field(\'tiempo_completar\', \'double\', label=T(\'Tiempo en completar\')),\n    Field(\'nivel_atencional\', \'reference nivel_atencional\', label=T(\'Nivel atencional\')),\n    Field(\'estudiante\', \'reference auth_user\', label=T(\'Estudiante\')),\n    format=\'%(id)s\')\n\ndb.ejercicio._singular = T(\'Ejercicio\')\ndb.ejercicio._plural = T(\'Ejercicios\')\n\ndb.ejercicio.hora_inicio.requires = IS_DATETIME()\ndb.ejercicio.hora_fin.requires = IS_DATETIME()\n\ndb.ejercicio.tiempo_completar.compute = lambda r:r[\'hora_fin\']-r[\'hora_inicio\']\n\n\n#Control Resultados {id estudiante, id evaluador, id ejercicio, # aciertos, # intrusiones, # omisiones, hora de inicio, hora fin, tiempo ejecucion (lo que se demora desde que empieza hasta que termina), tiempo eficacia}\n\ndb.define_table(\'control_resultado\',\n    Field(\'hora_inicio\', \'datetime\', default=request.now, label=T(\'Hora de inicio\')),\n    Field(\'hora_fin\', \'datetime\', default=request.now, label=T(\'Hora de fin\')),\n    Field(\'tiempo_ejecucion\', \'double\', label=T(\'Tiempo ejecuci\xc3\xb3n\')),\n    Field(\'tiempo_eficacia\', \'double\', label=T(\'Tiempo eficacia\')),\n    Field(\'aciertos\', \'double\', label=T(\'N\xc3\xbamero de aciertos\')),\n    Field(\'intrusiones\', \'double\', label=T(\'N\xc3\xbamero de intrusiones\')),\n    Field(\'omisiones\', \'double\', label=T(\'N\xc3\xbamero de omisiones\')),\n    Field(\'ejercicio\', \'reference ejercicio\', label=T(\'Ejercicio\')),\n    Field(\'estudiante\', \'reference auth_user\', label=T(\'Estudiante\')),\n    Field(\'evaluador\', \'reference auth_user\', label=T(\'Evaluador\')),\n    format=\'%(id)s\')\n\ndb.control_resultado._singular = T(\'Control de resultado\')\ndb.control_resultado._plural = T(\'Control de resultados\')\n\ndb.control_resultado.hora_inicio.requires = IS_DATETIME()\ndb.control_resultado.hora_fin.requires = IS_DATETIME()\n\ndb.control_resultado.tiempo_ejecucion.compute = lambda r:r[\'hora_fin\']-r[\'hora_inicio\']\n\'\'\'\n'
p7
sS'snapshot'
p8
(dp9
S'exception'
p10
(dp11
S'__getslice__'
p12
S"<method-wrapper '__getslice__' of exceptions.SyntaxError object>"
p13
sS'text'
p14
S'"   Field(\'puntos\', \'integer\',  label=T(\'Evaluaci\\xc3\\xb3n\'), comment=T(\'Evaluaci\\xc3\\xb3n de la pregunta\')),\\n"'
p15
sS'__str__'
p16
S"<method-wrapper '__str__' of exceptions.SyntaxError object>"
p17
sS'__reduce__'
p18
S'<built-in method __reduce__ of exceptions.SyntaxError object>'
p19
sS'__dict__'
p20
S'{}'
p21
sS'__sizeof__'
p22
S'<built-in method __sizeof__ of exceptions.SyntaxError object>'
p23
sS'__init__'
p24
S"<method-wrapper '__init__' of exceptions.SyntaxError object>"
p25
sS'__setattr__'
p26
S"<method-wrapper '__setattr__' of exceptions.SyntaxError object>"
p27
sS'__reduce_ex__'
p28
S'<built-in method __reduce_ex__ of exceptions.SyntaxError object>'
p29
sS'__new__'
p30
S'<built-in method __new__ of type object>'
p31
sS'__format__'
p32
S'<built-in method __format__ of exceptions.SyntaxError object>'
p33
sS'__class__'
p34
S"<type 'exceptions.SyntaxError'>"
p35
sS'filename'
p36
S"'/opt/python/web2py-files/web2py/applications/proyect/models/db.py'"
p37
sS'lineno'
p38
S'207'
p39
sS'msg'
p40
S"'invalid syntax'"
p41
sS'__doc__'
p42
S"'Invalid syntax.'"
p43
sS'__getitem__'
p44
S"<method-wrapper '__getitem__' of exceptions.SyntaxError object>"
p45
sS'__setstate__'
p46
S'<built-in method __setstate__ of exceptions.SyntaxError object>'
p47
sS'__getattribute__'
p48
S"<method-wrapper '__getattribute__' of exceptions.SyntaxError object>"
p49
sS'print_file_and_line'
p50
S'None'
p51
sS'args'
p52
S'(\'invalid syntax\', (\'/opt/python/web2py-files/web2py/applications/proyect/models/db.py\', 207, 8, "   Field(\'puntos\', \'integer\',  label=T(\'Evaluaci\\xc3\\xb3n\'), comment=T(\'Evaluaci\\xc3\\xb3n de la pregunta\')),\\n"))'
p53
sS'__subclasshook__'
p54
S'<built-in method __subclasshook__ of type object>'
p55
sS'offset'
p56
S'8'
sS'__unicode__'
p57
S'<built-in method __unicode__ of exceptions.SyntaxError object>'
p58
sS'__delattr__'
p59
S"<method-wrapper '__delattr__' of exceptions.SyntaxError object>"
p60
sS'__repr__'
p61
S"<method-wrapper '__repr__' of exceptions.SyntaxError object>"
p62
sS'__hash__'
p63
S"<method-wrapper '__hash__' of exceptions.SyntaxError object>"
p64
ssS'evalue'
p65
S'invalid syntax (db.py, line 207)'
p66
sS'request'
p67
cgluon.html
XML_unpickle
p68
(S's\x0ba\x00\x00<div><table><tr><td style="font-weight:bold;vertical-align:top;">ajax</td><td style="vertical-align:top;">:</td><td><div>True</div></td></tr><tr><td style="font-weight:bold;vertical-align:top;">application</td><td style="vertical-align:top;">:</td><td><div>proyect</div></td></tr><tr><td style="font-weight:bold;vertical-align:top;">args</td><td style="vertical-align:top;">:</td><td><div><table></table></div></td></tr><tr><td style="font-weight:bold;vertical-align:top;">cid</td><td style="vertical-align:top;">:</td><td><div>c129850881637</div></td></tr><tr><td style="font-weight:bold;vertical-align:top;">client</td><td style="vertical-align:top;">:</td><td><div>127.0.0.1</div></td></tr><tr><td style="font-weight:bold;vertical-align:top;">controller</td><td style="vertical-align:top;">:</td><td><div>appadmin</div></td></tr><tr><td style="font-weight:bold;vertical-align:top;">cookies</td><td style="vertical-align:top;">:</td><td><div><table><tr><td style="font-weight:bold;vertical-align:top;">session_id_admin</td><td style="vertical-align:top;">:</td><td><div>127.0.0.1-3f2efa1a-17a6-4689-950d-9e0013215b9b<table><tr><td style="font-weight:bold;vertical-align:top;">comment</td><td style="vertical-align:top;">:</td><td><div></div></td></tr><tr><td style="font-weight:bold;vertical-align:top;">domain</td><td style="vertical-align:top;">:</td><td><div></div></td></tr><tr><td style="font-weight:bold;vertical-align:top;">expires</td><td style="vertical-align:top;">:</td><td><div></div></td></tr><tr><td style="font-weight:bold;vertical-align:top;">httponly</td><td style="vertical-align:top;">:</td><td><div></div></td></tr><tr><td style="font-weight:bold;vertical-align:top;">max-age</td><td style="vertical-align:top;">:</td><td><div></div></td></tr><tr><td style="font-weight:bold;vertical-align:top;">path</td><td style="vertical-align:top;">:</td><td><div></div></td></tr><tr><td style="font-weight:bold;vertical-align:top;">secure</td><td style="vertical-align:top;">:</td><td><div></div></td></tr><tr><td style="font-weight:bold;vertical-align:top;">version</td><td style="vertical-align:top;">:</td><td><div></div></td></tr></table></div></td></tr><tr><td style="font-weight:bold;vertical-align:top;">session_id_cvrfv14</td><td style="vertical-align:top;">:</td><td><div>127.0.0.1-f03ce8d6-9aa8-471a-be5e-b13718e6875d<table><tr><td style="font-weight:bold;vertical-align:top;">comment</td><td style="vertical-align:top;">:</td><td><div></div></td></tr><tr><td style="font-weight:bold;vertical-align:top;">domain</td><td style="vertical-align:top;">:</td><td><div></div></td></tr><tr><td style="font-weight:bold;vertical-align:top;">expires</td><td style="vertical-align:top;">:</td><td><div></div></td></tr><tr><td style="font-weight:bold;vertical-align:top;">httponly</td><td style="vertical-align:top;">:</td><td><div></div></td></tr><tr><td style="font-weight:bold;vertical-align:top;">max-age</td><td style="vertical-align:top;">:</td><td><div></div></td></tr><tr><td style="font-weight:bold;vertical-align:top;">path</td><td style="vertical-align:top;">:</td><td><div></div></td></tr><tr><td style="font-weight:bold;vertical-align:top;">secure</td><td style="vertical-align:top;">:</td><td><div></div></td></tr><tr><td style="font-weight:bold;vertical-align:top;">version</td><td style="vertical-align:top;">:</td><td><div></div></td></tr></table></div></td></tr><tr><td style="font-weight:bold;vertical-align:top;">session_id_proyect</td><td style="vertical-align:top;">:</td><td><div>127.0.0.1-20f18ec3-8363-4295-a289-b817745d810a<table><tr><td style="font-weight:bold;vertical-align:top;">comment</td><td style="vertical-align:top;">:</td><td><div></div></td></tr><tr><td style="font-weight:bold;vertical-align:top;">domain</td><td style="vertical-align:top;">:</td><td><div></div></td></tr><tr><td style="font-weight:bold;vertical-align:top;">expires</td><td style="vertical-align:top;">:</td><td><div></div></td></tr><tr><td style="font-weight:bold;vertical-align:top;">httponly</td><td style="vertical-align:top;">:</td><td><div></div></td></tr><tr><td style="font-weight:bold;vertical-align:top;">max-age</td><td style="vertical-align:top;">:</td><td><div></div></td></tr><tr><td style="font-weight:bold;vertical-align:top;">path</td><td style="vertical-align:top;">:</td><td><div></div></td></tr><tr><td style="font-weight:bold;vertical-align:top;">secure</td><td style="vertical-align:top;">:</td><td><div></div></td></tr><tr><td style="font-weight:bold;vertical-align:top;">version</td><td style="vertical-align:top;">:</td><td><div></div></td></tr></table></div></td></tr></table></div></td></tr><tr><td style="font-weight:bold;vertical-align:top;">env</td><td style="vertical-align:top;">:</td><td><div><table><tr><td style="font-weight:bold;vertical-align:top;">HTTP_ACCEPT</td><td style="vertical-align:top;">:</td><td><div>*/*</div></td></tr><tr><td style="font-weight:bold;vertical-align:top;">HTTP_ACCEPT_ENCODING</td><td style="vertical-align:top;">:</td><td><div>gzip, deflate, sdch, br</div></td></tr><tr><td style="font-weight:bold;vertical-align:top;">HTTP_ACCEPT_LANGUAGE</td><td style="vertical-align:top;">:</td><td><div>es-ES,es;q=0.8</div></td></tr><tr><td style="font-weight:bold;vertical-align:top;">HTTP_CONNECTION</td><td style="vertical-align:top;">:</td><td><div>keep-alive</div></td></tr><tr><td style="font-weight:bold;vertical-align:top;">HTTP_COOKIE</td><td style="vertical-align:top;">:</td><td><div>session_id_cvrfv14=127.0.0.1-f03ce8d6-9aa8-471a-be5e-b13718e6875d; session_id_proyect=127.0.0.1-20f18ec3-8363-4295-a289-b817745d810a; session_id_admin=127.0.0.1-3f2efa1a-17a6-4689-950d-9e0013215b9b</div></td></tr><tr><td style="font-weight:bold;vertical-align:top;">HTTP_HOST</td><td style="vertical-align:top;">:</td><td><div>localhost:8000</div></td></tr><tr><td style="font-weight:bold;vertical-align:top;">HTTP_REFERER</td><td style="vertical-align:top;">:</td><td><div>http://localhost:8000/admin/default/edit/proyect/models/db.py?id=models__db__py</div></td></tr><tr><td style="font-weight:bold;vertical-align:top;">HTTP_USER_AGENT</td><td style="vertical-align:top;">:</td><td><div>Mozilla/5.0 (X11; Linux x86_64) AppleWebKit/537.36 (KHTML, like Gecko) Ubuntu Chromium/55.0.2883.87 Chrome/55.0.2883.87 Safari/537.36</div></td></tr><tr><td style="font-weight:bold;vertical-align:top;">HTTP_WEB2PY_COMPONENT_ELEMENT</td><td style="vertical-align:top;">:</td><td><div>c129850881637</div></td></tr><tr><td style="font-weight:bold;vertical-align:top;">HTTP_WEB2PY_COMPONENT_LOCATION</td><td style="vertical-align:top;">:</td><td><div>http://localhost:8000/admin/default/edit/proyect/models/db.py?id=models__db__py</div></td></tr><tr><td style="font-weight:bold;vertical-align:top;">HTTP_X_REQUESTED_WITH</td><td style="vertical-align:top;">:</td><td><div>XMLHttpRequest</div></td></tr><tr><td style="font-weight:bold;vertical-align:top;">PATH_INFO</td><td style="vertical-align:top;">:</td><td><div>/proyect/appadmin/hooks</div></td></tr><tr><td style="font-weight:bold;vertical-align:top;">QUERY_STRING</td><td style="vertical-align:top;">:</td><td><div></div></td></tr><tr><td style="font-weight:bold;vertical-align:top;">REMOTE_ADDR</td><td style="vertical-align:top;">:</td><td><div>127.0.0.1</div></td></tr><tr><td style="font-weight:bold;vertical-align:top;">REMOTE_PORT</td><td style="vertical-align:top;">:</td><td><div>59010</div></td></tr><tr><td style="font-weight:bold;vertical-align:top;">REQUEST_METHOD</td><td style="vertical-align:top;">:</td><td><div>GET</div></td></tr><tr><td style="font-weight:bold;vertical-align:top;">SCRIPT_NAME</td><td style="vertical-align:top;">:</td><td><div></div></td></tr><tr><td style="font-weight:bold;vertical-align:top;">SERVER_NAME</td><td style="vertical-align:top;">:</td><td><div>yasmany-tp500lab</div></td></tr><tr><td style="font-weight:bold;vertical-align:top;">SERVER_PORT</td><td style="vertical-align:top;">:</td><td><div>8000</div></td></tr><tr><td style="font-weight:bold;vertical-align:top;">SERVER_PROTOCOL</td><td style="vertical-align:top;">:</td><td><div>HTTP/1.1</div></td></tr><tr><td style="font-weight:bold;vertical-align:top;">SERVER_SOFTWARE</td><td style="vertical-align:top;">:</td><td><div>Rocket 1.2.6</div></td></tr><tr><td style="font-weight:bold;vertical-align:top;">app_folders</td><td style="vertical-align:top;">:</td><td><div>set([&#x27;/opt/python/web2py-files/web2py/applications/observatorio/&#x27;, &#x27;/opt/python/web2py-files/web2py/applications/cvrfv14/&#x27;, &#x27;/opt/python/web2py-files/web2py/applications/proyect/&#x27;, &#x27;/opt/python/web2py-files/web2py/applications/admin/&#x27;, &#x27;/opt/python/web2py-files/web2py/applications/cvrf/&#x27;, &#x27;/opt/python/web2py-files/web2py/applications/welcome/&#x27;])</div></td></tr><tr><td style="font-weight:bold;vertical-align:top;">applications_parent</td><td style="vertical-align:top;">:</td><td><div>/opt/python/web2py-files/web2py</div></td></tr><tr><td style="font-weight:bold;vertical-align:top;">cmd_args</td><td style="vertical-align:top;">:</td><td><div><table></table></div></td></tr><tr><td style="font-weight:bold;vertical-align:top;">cmd_options</td><td style="vertical-align:top;">:</td><td><div>&lt;Values at 0x7f5d84d67320: {&#x27;verbose&#x27;: False, &#x27;ip&#x27;: &#x27;127.0.0.1&#x27;, &#x27;debuglevel&#x27;: 30, &#x27;with_scheduler&#x27;: False, &#x27;shutdown_timeout&#x27;: 5, &#x27;taskbar&#x27;: False, &#x27;with_coverage&#x27;: False, &#x27;pid_filename&#x27;: &#x27;httpserver.pid&#x27;, &#x27;maxthreads&#x27;: None, &#x27;softcron&#x27;: False, &#x27;server_name&#x27;: &#x27;yasmany-tp500lab&#x27;, &#x27;bpython&#x27;: False, &#x27;nogui&#x27;: False, &#x27;port&#x27;: 8000, &#x27;print_errors&#x27;: False, &#x27;extcron&#x27;: False, &#x27;runcron&#x27;: False, &#x27;run_system_tests&#x27;: False, &#x27;test&#x27;: None, &#x27;folder&#x27;: &#x27;/opt/python/web2py-files/web2py&#x27;, &#x27;config&#x27;: &#x27;&#x27;, &#x27;minthreads&#x27;: None, &#x27;shell&#x27;: None, &#x27;run&#x27;: &#x27;&#x27;, &#x27;log_filename&#x27;: &#x27;httpserver.log&#x27;, &#x27;profiler_dir&#x27;: None, &#x27;args&#x27;: [&#x27;&#x27;], &#x27;socket_timeout&#x27;: 5, &#x27;ssl_ca_certificate&#x27;: None, &#x27;scheduler&#x27;: None, &#x27;interfaces&#x27;: None, &#x27;ssl_private_key&#x27;: &#x27;&#x27;, &#x27;gae&#x27;: None, &#x27;password&#x27;: &#x27;******&#x27;, &#x27;request_queue_size&#x27;: 5, &#x27;ssl_certificate&#x27;: &#x27;&#x27;, &#x27;cronjob&#x27;: False, &#x27;numthreads&#x27;: None, &#x27;quiet&#x27;: False, &#x27;import_models&#x27;: False, &#x27;timeout&#x27;: 10, &#x27;plain&#x27;: False, &#x27;nobanner&#x27;: False}&gt;</div></td></tr><tr><td style="font-weight:bold;vertical-align:top;">db_sessions</td><td style="vertical-align:top;">:</td><td><div>set([&#x27;observatorio&#x27;])</div></td></tr><tr><td style="font-weight:bold;vertical-align:top;">debugging</td><td style="vertical-align:top;">:</td><td><div>True</div></td></tr><tr><td style="font-weight:bold;vertical-align:top;">gluon_parent</td><td style="vertical-align:top;">:</td><td><div>/opt/python/web2py-files/web2py</div></td></tr><tr><td style="font-weight:bold;vertical-align:top;">http_accept</td><td style="vertical-align:top;">:</td><td><div>*/*</div></td></tr><tr><td style="font-weight:bold;vertical-align:top;">http_accept_encoding</td><td style="vertical-align:top;">:</td><td><div>gzip, deflate, sdch, br</div></td></tr><tr><td style="font-weight:bold;vertical-align:top;">http_accept_language</td><td style="vertical-align:top;">:</td><td><div>es-ES,es;q=0.8</div></td></tr><tr><td style="font-weight:bold;vertical-align:top;">http_connection</td><td style="vertical-align:top;">:</td><td><div>keep-alive</div></td></tr><tr><td style="font-weight:bold;vertical-align:top;">http_cookie</td><td style="vertical-align:top;">:</td><td><div>session_id_cvrfv14=127.0.0.1-f03ce8d6-9aa8-471a-be5e-b13718e6875d; session_id_proyect=127.0.0.1-20f18ec3-8363-4295-a289-b817745d810a; session_id_admin=127.0.0.1-3f2efa1a-17a6-4689-950d-9e0013215b9b</div></td></tr><tr><td style="font-weight:bold;vertical-align:top;">http_host</td><td style="vertical-align:top;">:</td><td><div>localhost:8000</div></td></tr><tr><td style="font-weight:bold;vertical-align:top;">http_referer</td><td style="vertical-align:top;">:</td><td><div>http://localhost:8000/admin/default/edit/proyect/models/db.py?id=models__db__py</div></td></tr><tr><td style="font-weight:bold;vertical-align:top;">http_user_agent</td><td style="vertical-align:top;">:</td><td><div>Mozilla/5.0 (X11; Linux x86_64) AppleWebKit/537.36 (KHTML, like Gecko) Ubuntu Chromium/55.0.2883.87 Chrome/55.0.2883.87 Safari/537.36</div></td></tr><tr><td style="font-weight:bold;vertical-align:top;">http_web2py_component_element</td><td style="vertical-align:top;">:</td><td><div>c129850881637</div></td></tr><tr><td style="font-weight:bold;vertical-align:top;">http_web2py_component_location</td><td style="vertical-align:top;">:</td><td><div>http://localhost:8000/admin/default/edit/proyect/models/db.py?id=models__db__py</div></td></tr><tr><td style="font-weight:bold;vertical-align:top;">http_x_requested_with</td><td style="vertical-align:top;">:</td><td><div>XMLHttpRequest</div></td></tr><tr><td style="font-weight:bold;vertical-align:top;">is_jython</td><td style="vertical-align:top;">:</td><td><div>False</div></td></tr><tr><td style="font-weight:bold;vertical-align:top;">is_pypy</td><td style="vertical-align:top;">:</td><td><div>False</div></td></tr><tr><td style="font-weight:bold;vertical-align:top;">is_source</td><td style="vertical-align:top;">:</td><td><div>True</div></td></tr><tr><td style="font-weight:bold;vertical-align:top;">local_hosts</td><td style="vertical-align:top;">:</td><td><div><table><tr><td><div>yasmany-tp500lab</div></td></tr><tr><td><div>127.0.1.1</div></td></tr><tr><td><div>::ffff:127.0.0.1</div></td></tr><tr><td><div>::1</div></td></tr><tr><td><div>yasmany-TP500LAB</div></td></tr><tr><td><div>127.0.0.1</div></td></tr></table></div></td></tr><tr><td style="font-weight:bold;vertical-align:top;">path_info</td><td style="vertical-align:top;">:</td><td><div>/proyect/appadmin/hooks</div></td></tr><tr><td style="font-weight:bold;vertical-align:top;">query_string</td><td style="vertical-align:top;">:</td><td><div></div></td></tr><tr><td style="font-weight:bold;vertical-align:top;">remote_addr</td><td style="vertical-align:top;">:</td><td><div>127.0.0.1</div></td></tr><tr><td style="font-weight:bold;vertical-align:top;">remote_port</td><td style="vertical-align:top;">:</td><td><div>59010</div></td></tr><tr><td style="font-weight:bold;vertical-align:top;">request_method</td><td style="vertical-align:top;">:</td><td><div>GET</div></td></tr><tr><td style="font-weight:bold;vertical-align:top;">request_uri</td><td style="vertical-align:top;">:</td><td><div>/proyect/appadmin/hooks</div></td></tr><tr><td style="font-weight:bold;vertical-align:top;">script_name</td><td style="vertical-align:top;">:</td><td><div></div></td></tr><tr><td style="font-weight:bold;vertical-align:top;">server_name</td><td style="vertical-align:top;">:</td><td><div>yasmany-tp500lab</div></td></tr><tr><td style="font-weight:bold;vertical-align:top;">server_port</td><td style="vertical-align:top;">:</td><td><div>8000</div></td></tr><tr><td style="font-weight:bold;vertical-align:top;">server_protocol</td><td style="vertical-align:top;">:</td><td><div>HTTP/1.1</div></td></tr><tr><td style="font-weight:bold;vertical-align:top;">server_software</td><td style="vertical-align:top;">:</td><td><div>Rocket 1.2.6</div></td></tr><tr><td style="font-weight:bold;vertical-align:top;">web2py_path</td><td style="vertical-align:top;">:</td><td><div>/opt/python/web2py-files/web2py</div></td></tr><tr><td style="font-weight:bold;vertical-align:top;">web2py_version</td><td style="vertical-align:top;">:</td><td><div>2.14.6-stable+timestamp.2016.05.10.00.21.47</div></td></tr><tr><td style="font-weight:bold;vertical-align:top;">wsgi.errors</td><td style="vertical-align:top;">:</td><td><div>&lt;open file &#x27;&lt;stderr&gt;&#x27;, mode &#x27;w&#x27; at 0x7f5d89a561e0&gt;</div></td></tr><tr><td style="font-weight:bold;vertical-align:top;">wsgi.file_wrapper</td><td style="vertical-align:top;">:</td><td><div>&lt;class wsgiref.util.FileWrapper at 0x7f5d84dffe88&gt;</div></td></tr><tr><td style="font-weight:bold;vertical-align:top;">wsgi.input</td><td style="vertical-align:top;">:</td><td><div>&lt;socket._fileobject object at 0x7f5d5c4d1b50&gt;</div></td></tr><tr><td style="font-weight:bold;vertical-align:top;">wsgi.multiprocess</td><td style="vertical-align:top;">:</td><td><div>False</div></td></tr><tr><td style="font-weight:bold;vertical-align:top;">wsgi.multithread</td><td style="vertical-align:top;">:</td><td><div>True</div></td></tr><tr><td style="font-weight:bold;vertical-align:top;">wsgi.run_once</td><td style="vertical-align:top;">:</td><td><div>False</div></td></tr><tr><td style="font-weight:bold;vertical-align:top;">wsgi.url_scheme</td><td style="vertical-align:top;">:</td><td><div>http</div></td></tr><tr><td style="font-weight:bold;vertical-align:top;">wsgi.version</td><td style="vertical-align:top;">:</td><td><div><table><tr><td><div>1</div></td></tr><tr><td><div>0</div></td></tr></table></div></td></tr><tr><td style="font-weight:bold;vertical-align:top;">wsgi_errors</td><td style="vertical-align:top;">:</td><td><div>&lt;open file &#x27;&lt;stderr&gt;&#x27;, mode &#x27;w&#x27; at 0x7f5d89a561e0&gt;</div></td></tr><tr><td style="font-weight:bold;vertical-align:top;">wsgi_file_wrapper</td><td style="vertical-align:top;">:</td><td><div>&lt;class wsgiref.util.FileWrapper at 0x7f5d84dffe88&gt;</div></td></tr><tr><td style="font-weight:bold;vertical-align:top;">wsgi_input</td><td style="vertical-align:top;">:</td><td><div>&lt;socket._fileobject object at 0x7f5d5c4d1b50&gt;</div></td></tr><tr><td style="font-weight:bold;vertical-align:top;">wsgi_multiprocess</td><td style="vertical-align:top;">:</td><td><div>False</div></td></tr><tr><td style="font-weight:bold;vertical-align:top;">wsgi_multithread</td><td style="vertical-align:top;">:</td><td><div>True</div></td></tr><tr><td style="font-weight:bold;vertical-align:top;">wsgi_run_once</td><td style="vertical-align:top;">:</td><td><div>False</div></td></tr><tr><td style="font-weight:bold;vertical-align:top;">wsgi_url_scheme</td><td style="vertical-align:top;">:</td><td><div>http</div></td></tr><tr><td style="font-weight:bold;vertical-align:top;">wsgi_version</td><td style="vertical-align:top;">:</td><td><div><table><tr><td><div>1</div></td></tr><tr><td><div>0</div></td></tr></table></div></td></tr></table></div></td></tr><tr><td style="font-weight:bold;vertical-align:top;">extension</td><td style="vertical-align:top;">:</td><td><div>html</div></td></tr><tr><td style="font-weight:bold;vertical-align:top;">folder</td><td style="vertical-align:top;">:</td><td><div>/opt/python/web2py-files/web2py/applications/proyect/</div></td></tr><tr><td style="font-weight:bold;vertical-align:top;">function</td><td style="vertical-align:top;">:</td><td><div>hooks</div></td></tr><tr><td style="font-weight:bold;vertical-align:top;">global_settings</td><td style="vertical-align:top;">:</td><td><div><table><tr><td style="font-weight:bold;vertical-align:top;">app_folders</td><td style="vertical-align:top;">:</td><td><div>set([&#x27;/opt/python/web2py-files/web2py/applications/observatorio/&#x27;, &#x27;/opt/python/web2py-files/web2py/applications/cvrfv14/&#x27;, &#x27;/opt/python/web2py-files/web2py/applications/proyect/&#x27;, &#x27;/opt/python/web2py-files/web2py/applications/admin/&#x27;, &#x27;/opt/python/web2py-files/web2py/applications/cvrf/&#x27;, &#x27;/opt/python/web2py-files/web2py/applications/welcome/&#x27;])</div></td></tr><tr><td style="font-weight:bold;vertical-align:top;">applications_parent</td><td style="vertical-align:top;">:</td><td><div>/opt/python/web2py-files/web2py</div></td></tr><tr><td style="font-weight:bold;vertical-align:top;">cmd_args</td><td style="vertical-align:top;">:</td><td><div><table></table></div></td></tr><tr><td style="font-weight:bold;vertical-align:top;">cmd_options</td><td style="vertical-align:top;">:</td><td><div>&lt;Values at 0x7f5d84d67320: {&#x27;verbose&#x27;: False, &#x27;ip&#x27;: &#x27;127.0.0.1&#x27;, &#x27;debuglevel&#x27;: 30, &#x27;with_scheduler&#x27;: False, &#x27;shutdown_timeout&#x27;: 5, &#x27;taskbar&#x27;: False, &#x27;with_coverage&#x27;: False, &#x27;pid_filename&#x27;: &#x27;httpserver.pid&#x27;, &#x27;maxthreads&#x27;: None, &#x27;softcron&#x27;: False, &#x27;server_name&#x27;: &#x27;yasmany-tp500lab&#x27;, &#x27;bpython&#x27;: False, &#x27;nogui&#x27;: False, &#x27;port&#x27;: 8000, &#x27;print_errors&#x27;: False, &#x27;extcron&#x27;: False, &#x27;runcron&#x27;: False, &#x27;run_system_tests&#x27;: False, &#x27;test&#x27;: None, &#x27;folder&#x27;: &#x27;/opt/python/web2py-files/web2py&#x27;, &#x27;config&#x27;: &#x27;&#x27;, &#x27;minthreads&#x27;: None, &#x27;shell&#x27;: None, &#x27;run&#x27;: &#x27;&#x27;, &#x27;log_filename&#x27;: &#x27;httpserver.log&#x27;, &#x27;profiler_dir&#x27;: None, &#x27;args&#x27;: [&#x27;&#x27;], &#x27;socket_timeout&#x27;: 5, &#x27;ssl_ca_certificate&#x27;: None, &#x27;scheduler&#x27;: None, &#x27;interfaces&#x27;: None, &#x27;ssl_private_key&#x27;: &#x27;&#x27;, &#x27;gae&#x27;: None, &#x27;password&#x27;: &#x27;******&#x27;, &#x27;request_queue_size&#x27;: 5, &#x27;ssl_certificate&#x27;: &#x27;&#x27;, &#x27;cronjob&#x27;: False, &#x27;numthreads&#x27;: None, &#x27;quiet&#x27;: False, &#x27;import_models&#x27;: False, &#x27;timeout&#x27;: 10, &#x27;plain&#x27;: False, &#x27;nobanner&#x27;: False}&gt;</div></td></tr><tr><td style="font-weight:bold;vertical-align:top;">db_sessions</td><td style="vertical-align:top;">:</td><td><div>set([&#x27;observatorio&#x27;])</div></td></tr><tr><td style="font-weight:bold;vertical-align:top;">debugging</td><td style="vertical-align:top;">:</td><td><div>True</div></td></tr><tr><td style="font-weight:bold;vertical-align:top;">gluon_parent</td><td style="vertical-align:top;">:</td><td><div>/opt/python/web2py-files/web2py</div></td></tr><tr><td style="font-weight:bold;vertical-align:top;">is_jython</td><td style="vertical-align:top;">:</td><td><div>False</div></td></tr><tr><td style="font-weight:bold;vertical-align:top;">is_pypy</td><td style="vertical-align:top;">:</td><td><div>False</div></td></tr><tr><td style="font-weight:bold;vertical-align:top;">is_source</td><td style="vertical-align:top;">:</td><td><div>True</div></td></tr><tr><td style="font-weight:bold;vertical-align:top;">local_hosts</td><td style="vertical-align:top;">:</td><td><div><table><tr><td><div>yasmany-tp500lab</div></td></tr><tr><td><div>127.0.1.1</div></td></tr><tr><td><div>::ffff:127.0.0.1</div></td></tr><tr><td><div>::1</div></td></tr><tr><td><div>yasmany-TP500LAB</div></td></tr><tr><td><div>127.0.0.1</div></td></tr></table></div></td></tr><tr><td style="font-weight:bold;vertical-align:top;">web2py_version</td><td style="vertical-align:top;">:</td><td><div>2.14.6-stable+timestamp.2016.05.10.00.21.47</div></td></tr></table></div></td></tr><tr><td style="font-weight:bold;vertical-align:top;">is_https</td><td style="vertical-align:top;">:</td><td><div>False</div></td></tr><tr><td style="font-weight:bold;vertical-align:top;">is_local</td><td style="vertical-align:top;">:</td><td><div>True</div></td></tr><tr><td style="font-weight:bold;vertical-align:top;">is_restful</td><td style="vertical-align:top;">:</td><td><div>False</div></td></tr><tr><td style="font-weight:bold;vertical-align:top;">is_scheduler</td><td style="vertical-align:top;">:</td><td><div>False</div></td></tr><tr><td style="font-weight:bold;vertical-align:top;">is_shell</td><td style="vertical-align:top;">:</td><td><div>False</div></td></tr><tr><td style="font-weight:bold;vertical-align:top;">now</td><td style="vertical-align:top;">:</td><td><div>datetime.datetime(2017, 2, 12, 9, 27, 6, 991452)</div></td></tr><tr><td style="font-weight:bold;vertical-align:top;">raw_args</td><td style="vertical-align:top;">:</td><td><div></div></td></tr><tr><td style="font-weight:bold;vertical-align:top;">raw_extension</td><td style="vertical-align:top;">:</td><td><div>None</div></td></tr><tr><td style="font-weight:bold;vertical-align:top;">url</td><td style="vertical-align:top;">:</td><td><div>/proyect/appadmin/hooks</div></td></tr><tr><td style="font-weight:bold;vertical-align:top;">utcnow</td><td style="vertical-align:top;">:</td><td><div>datetime.datetime(2017, 2, 12, 14, 27, 6, 991465)</div></td></tr><tr><td style="font-weight:bold;vertical-align:top;">wsgi</td><td style="vertical-align:top;">:</td><td><div>&lt;gluon.main.LazyWSGI object at 0x7f5d4408fd50&gt;</div></td></tr></table></div>'
tRp69
sS'frames'
p70
(lp71
(dp72
S'file'
p73
S'/opt/python/web2py-files/web2py/gluon/restricted.py'
p74
sS'dump'
p75
(dp76
S'code'
p77
S'"# -*- coding: utf-8 -*-\\n\\n# ---------------------...te = lambda r:r[\'hora_fin\']-r[\'hora_inicio\']\\n\'\'\'\\n"'
p78
sS'layer'
p79
S"'/opt/python/web2py-files/web2py/applications/proyect/models/db.py'"
p80
sS'global compile2'
p81
S'<function compile2>'
p82
sS'ccode'
p83
S'undefined'
p84
ssS'lnum'
p85
I226
sS'lines'
p86
(dp87
I224
S'            ccode = code'
p88
sI225
S'        else:'
p89
sI226
S'            ccode = compile2(code, layer)'
p90
sI227
S'        exec ccode in environment'
p91
sI228
S'    except HTTP:'
p92
sI229
S'        raise'
p93
sI230
S'    except RestrictedError:'
p94
sI221
S"    environment['__name__'] = '__restricted__'"
p95
sI222
S'    try:'
p96
sI223
S'        if isinstance(code, types.CodeType):'
p97
ssS'call'
p98
S'(code="# -*- coding: utf-8 -*-\\n\\n# ---------------------...te = lambda r:r[\'hora_fin\']-r[\'hora_inicio\']\\n\'\'\'\\n", environment={\'A\': <class \'gluon.html.A\'>, \'ANY_OF\': <class \'gluon.validators.ANY_OF\'>, \'ASSIGNJS\': <function ASSIGNJS>, \'B\': <class \'gluon.html.B\'>, \'BEAUTIFY\': <class \'gluon.html.BEAUTIFY\'>, \'BODY\': <class \'gluon.html.BODY\'>, \'BR\': <class \'gluon.html.BR\'>, \'BUTTON\': <class \'gluon.html.BUTTON\'>, \'CAT\': <class \'gluon.html.CAT\'>, \'CENTER\': <class \'gluon.html.CENTER\'>, ...}, layer=\'/opt/python/web2py-files/web2py/applications/proyect/models/db.py\')'
p99
sS'func'
p100
S'restricted'
p101
sa(dp102
g73
S'/opt/python/web2py-files/web2py/gluon/restricted.py'
p103
sg75
(dp104
S'builtincompile'
p105
S'<built-in function compile>'
p106
sS'code'
p107
S'"# -*- coding: utf-8 -*-\\n\\n# ---------------------...te = lambda r:r[\'hora_fin\']-r[\'hora_inicio\']\\n\'\'\'\\n"'
p108
sS'code.rstrip'
p109
S'<built-in method rstrip of str object>'
p110
sS').replace'
p111
g84
sS'layer'
p112
S"'/opt/python/web2py-files/web2py/applications/proyect/models/db.py'"
p113
ssg85
I209
sg86
(dp114
I204
S'def compile2(code, layer):'
p115
sI205
S'    """'
p116
sI206
S"    The ``+'\\\\n'`` is necessary else compile fails when code ends in a comment."
p117
sI207
S'    """'
p118
sI208
S''
sI209
S"    return compile(code.rstrip().replace('\\r\\n', '\\n') + '\\n', layer, 'exec')"
p119
sI210
S''
sI211
S''
sI212
S"def restricted(code, environment=None, layer='Unknown'):"
p120
sI213
S'    """'
p121
ssg98
S'(code="# -*- coding: utf-8 -*-\\n\\n# ---------------------...te = lambda r:r[\'hora_fin\']-r[\'hora_inicio\']\\n\'\'\'\\n", layer=\'/opt/python/web2py-files/web2py/applications/proyect/models/db.py\')'
p122
sg100
S'compile2'
p123
sasS'pyver'
p124
S'Python 2.7.12: /usr/bin/python (prefix: /usr)'
p125
sS'session'
p126
g68
(S's\x1a\x00\x00\x00<div><table></table></div>'
tRp127
sS'etype'
p128
S"<type 'exceptions.SyntaxError'>"
p129
sS'date'
p130
S'Sun Feb 12 09:27:07 2017'
p131
sS'response'
p132
g68
(S'sz\x17\x00\x00<div><table><tr><td style="font-weight:bold;vertical-align:top;">body</td><td style="vertical-align:top;">:</td><td><div>&lt;cStringIO.StringO object at 0x7f5d5c810260&gt;</div></td></tr><tr><td style="font-weight:bold;vertical-align:top;">cookies</td><td style="vertical-align:top;">:</td><td><div><table><tr><td style="font-weight:bold;vertical-align:top;">session_id_proyect</td><td style="vertical-align:top;">:</td><td><div>127.0.0.1-20f18ec3-8363-4295-a289-b817745d810a<table><tr><td style="font-weight:bold;vertical-align:top;">comment</td><td style="vertical-align:top;">:</td><td><div></div></td></tr><tr><td style="font-weight:bold;vertical-align:top;">domain</td><td style="vertical-align:top;">:</td><td><div></div></td></tr><tr><td style="font-weight:bold;vertical-align:top;">expires</td><td style="vertical-align:top;">:</td><td><div></div></td></tr><tr><td style="font-weight:bold;vertical-align:top;">httponly</td><td style="vertical-align:top;">:</td><td><div></div></td></tr><tr><td style="font-weight:bold;vertical-align:top;">max-age</td><td style="vertical-align:top;">:</td><td><div></div></td></tr><tr><td style="font-weight:bold;vertical-align:top;">path</td><td style="vertical-align:top;">:</td><td><div>/</div></td></tr><tr><td style="font-weight:bold;vertical-align:top;">secure</td><td style="vertical-align:top;">:</td><td><div></div></td></tr><tr><td style="font-weight:bold;vertical-align:top;">version</td><td style="vertical-align:top;">:</td><td><div></div></td></tr></table></div></td></tr></table></div></td></tr><tr><td style="font-weight:bold;vertical-align:top;">delimiters</td><td style="vertical-align:top;">:</td><td><div><table><tr><td><div>{{</div></td></tr><tr><td><div>}}</div></td></tr></table></div></td></tr><tr><td style="font-weight:bold;vertical-align:top;">files</td><td style="vertical-align:top;">:</td><td><div><table></table></div></td></tr><tr><td style="font-weight:bold;vertical-align:top;">flash</td><td style="vertical-align:top;">:</td><td><div></div></td></tr><tr><td style="font-weight:bold;vertical-align:top;">form_label_separator</td><td style="vertical-align:top;">:</td><td><div>: </div></td></tr><tr><td style="font-weight:bold;vertical-align:top;">formstyle</td><td style="vertical-align:top;">:</td><td><div>table3cols</div></td></tr><tr><td style="font-weight:bold;vertical-align:top;">generic_patterns</td><td style="vertical-align:top;">:</td><td><div><table><tr><td><div>*</div></td></tr></table></div></td></tr><tr><td style="font-weight:bold;vertical-align:top;">headers</td><td style="vertical-align:top;">:</td><td><div><table><tr><td style="font-weight:bold;vertical-align:top;">X-Powered-By</td><td style="vertical-align:top;">:</td><td><div>web2py</div></td></tr></table></div></td></tr><tr><td style="font-weight:bold;vertical-align:top;">menu</td><td style="vertical-align:top;">:</td><td><div><table></table></div></td></tr><tr><td style="font-weight:bold;vertical-align:top;">meta</td><td style="vertical-align:top;">:</td><td><div><table></table></div></td></tr><tr><td style="font-weight:bold;vertical-align:top;">models_to_run</td><td style="vertical-align:top;">:</td><td><div><table><tr><td><div>^\\w+\\.py$</div></td></tr><tr><td><div>^appadmin/\\w+\\.py$</div></td></tr><tr><td><div>^appadmin/hooks/\\w+\\.py$</div></td></tr></table></div></td></tr><tr><td style="font-weight:bold;vertical-align:top;">postprocessing</td><td style="vertical-align:top;">:</td><td><div><table></table></div></td></tr><tr><td style="font-weight:bold;vertical-align:top;">session_client</td><td style="vertical-align:top;">:</td><td><div>127.0.0.1</div></td></tr><tr><td style="font-weight:bold;vertical-align:top;">session_cookie_compression_level</td><td style="vertical-align:top;">:</td><td><div>None</div></td></tr><tr><td style="font-weight:bold;vertical-align:top;">session_cookie_expires</td><td style="vertical-align:top;">:</td><td><div>None</div></td></tr><tr><td style="font-weight:bold;vertical-align:top;">session_data_name</td><td style="vertical-align:top;">:</td><td><div>session_data_proyect</div></td></tr><tr><td style="font-weight:bold;vertical-align:top;">session_file</td><td style="vertical-align:top;">:</td><td><div>&lt;open file &#x27;/opt/python/web2py-files/web2py/applications/proyect/sessions/1f2/1be/127.0.0.1-20f18ec3-8363-4295-a289-b817745d810a&#x27;, mode &#x27;rb+&#x27; at 0x7f5d7c36cb70&gt;</div></td></tr><tr><td style="font-weight:bold;vertical-align:top;">session_filename</td><td style="vertical-align:top;">:</td><td><div>/opt/python/web2py-files/web2py/applications/proyect/sessions/127.0.0.1-20f18ec3-8363-4295-a289-b817745d810a</div></td></tr><tr><td style="font-weight:bold;vertical-align:top;">session_hash</td><td style="vertical-align:top;">:</td><td><div>c0762cbf4baf7f9af97c051e7fcb8083</div></td></tr><tr><td style="font-weight:bold;vertical-align:top;">session_id</td><td style="vertical-align:top;">:</td><td><div>127.0.0.1-20f18ec3-8363-4295-a289-b817745d810a</div></td></tr><tr><td style="font-weight:bold;vertical-align:top;">session_id_name</td><td style="vertical-align:top;">:</td><td><div>session_id_proyect</div></td></tr><tr><td style="font-weight:bold;vertical-align:top;">session_locked</td><td style="vertical-align:top;">:</td><td><div>True</div></td></tr><tr><td style="font-weight:bold;vertical-align:top;">session_masterapp</td><td style="vertical-align:top;">:</td><td><div>proyect</div></td></tr><tr><td style="font-weight:bold;vertical-align:top;">session_new</td><td style="vertical-align:top;">:</td><td><div>False</div></td></tr><tr><td style="font-weight:bold;vertical-align:top;">session_storage_type</td><td style="vertical-align:top;">:</td><td><div>file</div></td></tr><tr><td style="font-weight:bold;vertical-align:top;">status</td><td style="vertical-align:top;">:</td><td><div>200</div></td></tr><tr><td style="font-weight:bold;vertical-align:top;">view</td><td style="vertical-align:top;">:</td><td><div>appadmin/hooks.html</div></td></tr></table></div>'
tRp133
sS'locals'
p134
(dp135
g4
S"'/opt/python/web2py-files/web2py/applications/proyect/models/db.py'"
p136
sg6
S'"# -*- coding: utf-8 -*-\\n\\n# ---------------------...te = lambda r:r[\'hora_fin\']-r[\'hora_inicio\']\\n\'\'\'\\n"'
p137
sssS'traceback'
p138
S'Traceback (most recent call last):\n  File "/opt/python/web2py-files/web2py/gluon/restricted.py", line 226, in restricted\n    ccode = compile2(code, layer)\n  File "/opt/python/web2py-files/web2py/gluon/restricted.py", line 209, in compile2\n    return compile(code.rstrip().replace(\'\\r\\n\', \'\\n\') + \'\\n\', layer, \'exec\')\n  File "/opt/python/web2py-files/web2py/applications/proyect/models/db.py", line 207\n    Field(\'puntos\', \'integer\',  label=T(\'Evaluaci\xc3\xb3n\'), comment=T(\'Evaluaci\xc3\xb3n de la pregunta\')),\n        ^\nSyntaxError: invalid syntax\n'
p139
s.