(dp1
S'output'
p2
S"<type 'exceptions.AttributeError'> 'Table' object has no attribute 'diagnostico'"
p3
sS'layer'
p4
S'/opt/python/web2py-files/web2py/applications/proyect/models/db.py'
p5
sS'code'
p6
S'# -*- coding: utf-8 -*-\n\n# -------------------------------------------------------------------------\n# This scaffolding model makes your app work on Google App Engine too\n# File is released under public domain and you can use without limitations\n# -------------------------------------------------------------------------\n\nif request.global_settings.web2py_version < "2.14.1":\n    raise HTTP(500, "Requires web2py 2.13.3 or newer")\n\n# -------------------------------------------------------------------------\n# if SSL/HTTPS is properly configured and you want all HTTP requests to\n# be redirected to HTTPS, uncomment the line below:\n# -------------------------------------------------------------------------\n# request.requires_https()\n\n# -------------------------------------------------------------------------\n# app configuration made easy. Look inside private/appconfig.ini\n# -------------------------------------------------------------------------\nfrom gluon.contrib.appconfig import AppConfig\n\n# -------------------------------------------------------------------------\n# once in production, remove reload=True to gain full speed\n# -------------------------------------------------------------------------\nmyconf = AppConfig(reload=True)\n\nif not request.env.web2py_runtime_gae:\n    # ---------------------------------------------------------------------\n    # if NOT running on Google App Engine use SQLite or other DB\n    # ---------------------------------------------------------------------\n    db = DAL(myconf.get(\'db.uri\'),\n             pool_size=myconf.get(\'db.pool_size\'),\n             migrate_enabled=myconf.get(\'db.migrate\'),\n             check_reserved=[\'all\'])\nelse:\n    # ---------------------------------------------------------------------\n    # connect to Google BigTable (optional \'google:datastore://namespace\')\n    # ---------------------------------------------------------------------\n    db = DAL(\'google:datastore+ndb\')\n    # ---------------------------------------------------------------------\n    # store sessions and tickets there\n    # ---------------------------------------------------------------------\n    session.connect(request, response, db=db)\n    # ---------------------------------------------------------------------\n    # or store session in Memcache, Redis, etc.\n    # from gluon.contrib.memdb import MEMDB\n    # from google.appengine.api.memcache import Client\n    # session.connect(request, response, db = MEMDB(Client()))\n    # ---------------------------------------------------------------------\n\n# -------------------------------------------------------------------------\n# by default give a view/generic.extension to all actions from localhost\n# none otherwise. a pattern can be \'controller/function.extension\'\n# -------------------------------------------------------------------------\nresponse.generic_patterns = [\'*\'] if request.is_local else []\n# -------------------------------------------------------------------------\n# choose a style for forms\n# -------------------------------------------------------------------------\nresponse.formstyle = myconf.get(\'forms.formstyle\')  # or \'bootstrap3_stacked\' or \'bootstrap2\' or other\nresponse.form_label_separator = myconf.get(\'forms.separator\') or \'\'\n\n# -------------------------------------------------------------------------\n# (optional) optimize handling of static files\n# -------------------------------------------------------------------------\nresponse.optimize_css = \'concat,minify,inline\'\nresponse.optimize_js = \'concat,minify,inline\'\n\n# -------------------------------------------------------------------------\n# (optional) static assets folder versioning\n# -------------------------------------------------------------------------\n# response.static_version = \'0.0.0\'\n\n# -------------------------------------------------------------------------\n# Here is sample code if you need for\n# - email capabilities\n# - authentication (registration, login, logout, ... )\n# - authorization (role based authorization)\n# - services (xml, csv, json, xmlrpc, jsonrpc, amf, rss)\n# - old style crud actions\n# (more options discussed in gluon/tools.py)\n# -------------------------------------------------------------------------\n\nfrom gluon.tools import Auth, Service, PluginManager\n\n# host names must be a list of allowed host names (glob syntax allowed)\nauth = Auth(db, host_names=myconf.get(\'host.names\'))\nservice = Service()\nplugins = PluginManager()\n\n\'\'\'\n\ndb.define_table(\'centro\',\n    Field(\'nombre\', \'string\', default=\'\', label=T(\'Nombre del centro\')),\n    Field(\'nivel_educativo\', \'string\', default=\'\', label=T(\'Nivel Educativo\')),\n    Field(\'direccion\', \'string\', default=\'\', label=T(\'Direcci\xc3\xb3n\')),\n    format=\'%(nombre)s\')\n\ndb.centro._singular = T("Centro")\ndb.centro._plural = T("Centros")\n\ndb.centro.nivel_educativo.requires = IS_IN_SET({\'Presscolar\': T(\'Presscolar\'), \'Primaria\': T(\'Primaria\'), \'Secundaria\': T(\'Secundaria\'), \'Media Superior\': T(\'Media Superior\'), \'Superior\': T(\'Superior\')}, zero=T(\'Choose one\'), error_message=T(\'Choose one\'))\ndb.centro.nombre.requires = IS_NOT_EMPTY()\ndb.centro.direccion.requires = IS_NOT_EMPTY()\n\'\'\'\nauth.settings.extra_fields[\'auth_user\']= [\n  Field(\'fecha_nacimiento\', \'date\', default=request.now, label=T(\'Fecha de Nacimiento\'))]\n\n\n\n# -------------------------------------------------------------------------\n# create all tables needed by auth if not custom tables\n# -------------------------------------------------------------------------\nauth.define_tables(username=False, signature=False)\n\ndb._common_fields.append(auth.signature)\n\n# -------------------------------------------------------------------------\n# configure email\n# -------------------------------------------------------------------------\nmail = auth.settings.mailer\nmail.settings.server = \'logging\' if request.is_local else myconf.get(\'smtp.server\')\nmail.settings.sender = myconf.get(\'smtp.sender\')\nmail.settings.login = myconf.get(\'smtp.login\')\nmail.settings.tls = myconf.get(\'smtp.tls\') or False\nmail.settings.ssl = myconf.get(\'smtp.ssl\') or False\n\n# all we need is login\nauth.settings.actions_disabled=[\'retrieve_username\', \'register\',\'profile\']#, \'request_reset_password\']\n\n# -------------------------------------------------------------------------\n# configure auth policy\n# -------------------------------------------------------------------------\nauth.settings.registration_requires_verification = False\nauth.settings.registration_requires_approval = False\nauth.settings.reset_password_requires_verification = False\nauth.settings.create_user_groups = None\n\nauth.settings.remember_me_form = False\n\n# -------------------------------------------------------------------------\n# Define your tables below (or better in another model file) for example\n#\n# >>> db.define_table(\'mytable\', Field(\'myfield\', \'string\'))\n#\n# Fields can be \'string\',\'text\',\'password\',\'integer\',\'double\',\'boolean\'\n#       \'date\',\'time\',\'datetime\',\'blob\',\'upload\', \'reference TABLENAME\'\n# There is an implicit \'id integer autoincrement\' field\n# Consult manual for more options, validators, etc.\n#\n# More API examples for controllers:\n#\n# >>> db.mytable.insert(myfield=\'value\')\n# >>> rows = db(db.mytable.myfield == \'value\').select(db.mytable.ALL)\n# >>> for row in rows: print row.id, row.myfield\n# -------------------------------------------------------------------------\n\n# -------------------------------------------------------------------------\n# after defining tables, uncomment below to enable auditing\n# -------------------------------------------------------------------------\n# auth.enable_record_versioning(db)\n\ntipo_pregunta = {\'0\': T(\'Orientaci\xc3\xb3n\'), \'1\': T(\'D\xc3\xadgitos en progresi\xc3\xb3n\'), \'2\': T(\'D\xc3\xadgitos en regresi\xc3\xb3n\'), \'3\': T(\'Cubos en progresi\xc3\xb3n\'), \'4\': T(\'Detecci\xc3\xb3n visual\'), \'5\': T(\'Detecci\xc3\xb3n de d\xc3\xadgitos\'), \'6\': T(\'Series sucesivas\')}\n\ntipo_diagnostico = {\'0\': T(\'Inicial\'), \'1\': T(\'Atenci\xc3\xb3n Enfocada\'), \'2\': T(\'Atenci\xc3\xb3n Sostenida\'), \'3\': T(\'Atenci\xc3\xb3n Selectiva\'), \'4\': T(\'Atenci\xc3\xb3n Alternada\'), \'5\': T(\'Atenci\xc3\xb3n Dividida\')}\n\n\ndb.define_table(\'diagnostico\',\n   Field(\'titulo\', \'string\', label=T(\'T\xc3\xadtulo\'), comment=T(\'T\xc3\xadtulo del diagn\xc3\xb3stico\')),\n   Field(\'descripcion\', \'text\', label=T(\'Descripci\xc3\xb3n\'), comment=T(\'Descripci\xc3\xb3n del diagn\xc3\xb3stico\')),\n   Field(\'tipo\', \'string\', label=T(\'Tipo de diagn\xc3\xb3stico\'), comment=T(\'Tipo de cuestionario diagn\xc3\xb3stico\')),\n   Field(\'activo\', \'boolean\', default=False, label=T(\'Activo\'), comment=T(\'\xc2\xbfCuestionario activo? Solo puede habr\xc3\xa1 uno activado por tipo.\')),\n   format=\'%(titulo)s\')\n\ndb.diagnostico._singular = T(\'Diagn\xc3\xb3stico\')\ndb.diagnostico._plural = T(\'Diagn\xc3\xb3sticos\')\n\ndb.diagnostico.titulo.requires = [IS_NOT_EMPTY(), IS_NOT_IN_DB(db, \'diagnostico.titulo\')]\ndb.diagnostico.descripcion.requires = IS_NOT_EMPTY()\ndb.diagnostico.tipo.requires = IS_IN_SET(tipo_diagnostico, zero=T(\'Choose one\'), error_message=T(\'Choose one\'))\n\ndb.diagnostico.tipo.represent = lambda valor, registro: tipo_diagnostico[valor]\ndb.diagnostico.titulo.represent = lambda value, register: A(value, _title=register.descripcion, **{\'_data-toggle\': "tooltip", \'_data-placement\': "right"})\n\ndef desactivarDiagnostico(f):\n    """\n    Desactivar cuestionario diagn\xc3\xb3stico activo\n    """\n    try:\n        if f.has_key(\'activo\') and f.has_key(\'tipo\'):\n            if f[\'activo\']:\n                db((db.diagnostico.id > 0) & (db.diagnostico.tipo == f[\'tipo\'])).update(activo=False)\n        return None\n    except Exception, e:\n        return True\n\ndb.diagnostico._before_insert.append(lambda f: desactivarDiagnostico(f))\ndb.diagnostico._before_update.append(lambda s,f: desactivarDiagnostico(f))\n\n\ndb.define_table(\'pregunta\',\n   Field(\'descripcion\', \'string\', label=T(\'Descripci\xc3\xb3n\'), comment=T(\'Descripci\xc3\xb3n de la pregunta\')),\n   Field(\'juego_datos\', \'text\', label=T(\'Juegos de Datos\'), comment=T(\'Formato de juego de Datos ejemplo: "1-2|4-5-4|7-8-4-1%2-3-9-0-1|3-1-8-7" (Dos ensayos de tres juegos de datos). S\xc3\xadmbolo % divide los ensayos, s\xc3\xadmbolo | divide los juegos de datos (series)\')),\n   Field(\'juego_respuestas\', \'text\', label=T(\'Juegos de Respuestas\'), comment=T(\'Formato de juego de Respuestas ejemplo: "1-2|4-5-4|7-8-4-1%2-3-9-0-1|3-1-8-7" (Dos ensayos de tres juegos de respuestas). S\xc3\xadmbolo % divide los ensayos, s\xc3\xadmbolo | divide los juegos de respuestas (series), si se deja en blanco no es necesario los juegos de respuestas\')),\n   Field(\'tipo\', \'string\', label=T(\'Tipo\'), comment=T(\'Tipo de pregunta\')),\n   Field(\'tiempo\', \'double\', label=T(\'Tiempo\'), default=0.0, comment=T(\'Tiempo para realizar la pregunta espresado en segundos (s)\')),\n   Field(\'intentos\', \'integer\', label=T(\'Intentos\'), default=1, comment=T(\'N\xc3\xbamero de intentos por cada juego de datos\')),\n   Field(\'evaluacion\', \'integer\', label=T(\'Evaluaci\xc3\xb3n\'), default=1, comment=T(\'Evaluaci\xc3\xb3n por cada juego de datos (series)\')),\n   Field(\'puntos\', \'integer\',  label=T(\'Puntos\'), default=1, comment=T(\'Evaluaci\xc3\xb3n de la pregunta\')),\n   Field(\'diagnostico\', \'reference diagnostico\', writable=False, readable=False, label=T(\'Diagn\xc3\xb3stico\')),\n   format=\'%(id)s\')\n\ndb.pregunta._singular = T(\'Pregunta\')\ndb.pregunta._plural = T(\'Preguntas\')\n\ndb.pregunta.descripcion.requires = [IS_NOT_EMPTY()]\ndb.pregunta.juego_datos.requires = [IS_NOT_EMPTY()]\ndb.pregunta.evaluacion.requires = [IS_NOT_EMPTY()]\ndb.pregunta.tiempo.requires = [IS_NOT_EMPTY()]\ndb.pregunta.tipo.requires = IS_IN_SET(tipo_pregunta, zero=T(\'Choose one\'), error_message=T(\'Choose one\'))\n\ndef __evaluar_pregunta(row):\n    \'\'\'\n    Funci\xc3\xb3n que permite evaluar la pregunta\n    \'\'\'\n    if row.juego_datos and row.evaluacion:\n        ensayos = row.juego_datos.split(\'%\')\n        if len(ensayos) > 0:\n            return row.evaluacion * len(ensayos[0].split(\'|\')) * len(ensayos)\n        else:\n            return 0\n    else:\n        return 0\n\ndb.pregunta.puntos.compute = lambda row: __evaluar_pregunta(row)\ndb.pregunta.intentos.compute = lambda row: len(row.juego_datos.split(\'%\'))\n\ndef __formato_ensayo(datos, clase):\n    \'\'\'\n    Formato de preguntas y respuestas ejemplo (1-2|4-5-4|7-8-4-1%2-3-9-0-1|3-1-8-7) s\xc3\xadmbolo % divide los ensayos, s\xc3\xadmbolo | divide las juegos de datos o respuestas series\n    \'\'\'\n    if datos:\n        ensayos = datos.split(\'%\')\n        ul = UL(_class="nav")\n        i = 1\n\n        for ensayo in ensayos:\n            ul.append(LI(CAT(T("Ensayo #:"), \' \', i)))\n            ul.append(UL(ensayo.split(\'|\'), _class="nav "+clase))\n            i=i+1\n\n        return ul\n    else:\n        return UL(LI(T("No tiene juego de respuestas")), _class="nav "+clase)\n\ndb.pregunta.juego_datos.represent = lambda valor, registro: __formato_ensayo(valor, \'pregunta\')\ndb.pregunta.juego_respuestas.represent = lambda valor, registro: __formato_ensayo(valor, \'respuesta\')\ndb.pregunta.tipo.represent = lambda valor, registro: tipo_pregunta[valor]\n\n\ndb.define_table(\'respuesta\',\n   Field(\'aciertos\', \'integer\', label=T(\'Aciertos\'), comment=T(\'Aciertos de la respuesta\')),\n   Field(\'intrusiones\', \'integer\', label=T(\'Intruciones\'), comment=T(\'Intrusiones de la respuesta\')),\n   Field(\'pregunta\', \'reference pregunta\', label=T(\'Pregunta\'), comment=T(\'Pregunta\')),\n   Field(\'respuesta\', \'text\', label=T(\'Respuesta\'), comment=T(\'Respuesta de la pregunta ejemplo: "1-2|4-5-4|7-8-4-1%2-3-9-0-1|3-1-8-7". S\xc3\xadmbolo % divide los ensayos, s\xc3\xadmbolo | divide las respuestas (series)\')),\n   format=\'%(id)s\')\n\ndb.respuesta.diagnostico.requires = IS_IN_SET(tipo_diagnostico, zero=T(\'Choose one\'), error_message=T(\'Choose one\'))\n\n\n\'\'\'\nNEWS_WIDTH = 2340\nNEWS_HEIGTH = 600\n\ndb.define_table(\'banner\',\n   Field(\'titulo\', \'string\', label=T(\'T\xc3\xadtulo\')),\n   Field(\'imagen\', \'upload\', uploadseparate = True, autodelete=True, label=T(\'Imagen\'), comment=T(\'Image size \'+str(NEWS_WIDTH)+\'x\'+str(NEWS_HEIGTH))),\n   Field(\'publicar_en\', \'date\', default=request.now, label=T(\'Publicar en\')),\n   Field(\'habilitado\', \'boolean\', default=True, label=T(\'Est\xc3\xa1 habilitado\')),\n   format=\'%(titulo)s\')\n\ndb.banner._singular = T(\'Banner\')\ndb.banner._plural = T(\'Banners\')\n\ndb.banner.titulo.requires = IS_NOT_EMPTY()\ndb.banner.publicar_en.requires = IS_DATE()\ndb.banner.imagen.requires = [IS_EMPTY_OR(IS_IMAGE(extensions=(\'png\', \'jpg\', \'jpeg\'), maxsize=(NEWS_WIDTH, NEWS_HEIGTH),  error_message=T(\'Image news format (png, jpeg, jpg), maxsize \'+str(NEWS_WIDTH)+\'x\'+str(NEWS_HEIGTH))))]\n\ndb.banner.imagen.represent = lambda value, register: A(T(\'Click here for download or url copy\'), _href=URL(\'default\', \'download\', args=[value]))\n\n\ndb.define_table(\'nivel_atencional\',\n    Field(\'nombre\', \'string\', default=\'\', label=T(\'Nombre\'), comment=T(\'Atencion enfocada, Sostenida, Selectiva, Alternada, Dividida\')),\n    Field(\'descripcion\', \'text\', default=\'\', label=T(\'Descripcion\')),\n    format=\'%(nombre)s\')\n\ndb.nivel_atencional._singular = T(\'Nivel de atenci\xc3\xb3n\')\ndb.nivel_atencional._plural = T(\'Niveles de atenci\xc3\xb3n\')\n\ndb.nivel_atencional.nombre.requires = IS_NOT_EMPTY()\n\n\ndb.define_table(\'resultado_general\',\n    Field(\'fecha\', \'date\', default=request.now, label=T(\'Fecha\')),\n    Field(\'nivel_atencional\', \'reference nivel_atencional\', label=T(\'Nivel atencional\')),\n    Field(\'resultado\', \'string\', label=T(\'Resultado\')),\n    Field(\'observacion\', \'text\', default=\'\', label=T(\'Observaciones\')),\n    format=\'%(id)s\')\n\ndb.resultado_general._singular = T(\'Observaci\xc3\xb3n general\')\ndb.resultado_general._plural = T(\'Observaciones generales\')\n\ndb.resultado_general.fecha.requires = IS_DATE()\ndb.resultado_general.resultado.requires = IS_IN_SET({\'Mejor\': T(\'Mejor\'), \'Igual\': T(\'Igual\'), \'Peor\': T(\'Peor\')}, zero=T(\'Choose one\'), error_message=T(\'Choose one\'))\ndb.resultado_general.observacion.requires = IS_NOT_EMPTY()\n\n\ndb.define_table(\'ejercicio\',\n    Field(\'hora_inicio\', \'datetime\', default=request.now, label=T(\'Hora de inicio\')),\n    Field(\'hora_fin\', \'datetime\', default=request.now, label=T(\'Hora de fin\')),\n    Field(\'tiempo_completar\', \'double\', label=T(\'Tiempo en completar\')),\n    Field(\'nivel_atencional\', \'reference nivel_atencional\', label=T(\'Nivel atencional\')),\n    Field(\'estudiante\', \'reference auth_user\', label=T(\'Estudiante\')),\n    format=\'%(id)s\')\n\ndb.ejercicio._singular = T(\'Ejercicio\')\ndb.ejercicio._plural = T(\'Ejercicios\')\n\ndb.ejercicio.hora_inicio.requires = IS_DATETIME()\ndb.ejercicio.hora_fin.requires = IS_DATETIME()\n\ndb.ejercicio.tiempo_completar.compute = lambda r:r[\'hora_fin\']-r[\'hora_inicio\']\n\n\n#Control Resultados {id estudiante, id evaluador, id ejercicio, # aciertos, # intrusiones, # omisiones, hora de inicio, hora fin, tiempo ejecucion (lo que se demora desde que empieza hasta que termina), tiempo eficacia}\n\ndb.define_table(\'control_resultado\',\n    Field(\'hora_inicio\', \'datetime\', default=request.now, label=T(\'Hora de inicio\')),\n    Field(\'hora_fin\', \'datetime\', default=request.now, label=T(\'Hora de fin\')),\n    Field(\'tiempo_ejecucion\', \'double\', label=T(\'Tiempo ejecuci\xc3\xb3n\')),\n    Field(\'tiempo_eficacia\', \'double\', label=T(\'Tiempo eficacia\')),\n    Field(\'aciertos\', \'double\', label=T(\'N\xc3\xbamero de aciertos\')),\n    Field(\'intrusiones\', \'double\', label=T(\'N\xc3\xbamero de intrusiones\')),\n    Field(\'omisiones\', \'double\', label=T(\'N\xc3\xbamero de omisiones\')),\n    Field(\'ejercicio\', \'reference ejercicio\', label=T(\'Ejercicio\')),\n    Field(\'estudiante\', \'reference auth_user\', label=T(\'Estudiante\')),\n    Field(\'evaluador\', \'reference auth_user\', label=T(\'Evaluador\')),\n    format=\'%(id)s\')\n\ndb.control_resultado._singular = T(\'Control de resultado\')\ndb.control_resultado._plural = T(\'Control de resultados\')\n\ndb.control_resultado.hora_inicio.requires = IS_DATETIME()\ndb.control_resultado.hora_fin.requires = IS_DATETIME()\n\ndb.control_resultado.tiempo_ejecucion.compute = lambda r:r[\'hora_fin\']-r[\'hora_inicio\']\n\'\'\'\n'
p7
sS'snapshot'
p8
(dp9
S'exception'
p10
(dp11
S'__hash__'
p12
S"<method-wrapper '__hash__' of exceptions.AttributeError object>"
p13
sS'__setattr__'
p14
S"<method-wrapper '__setattr__' of exceptions.AttributeError object>"
p15
sS'__reduce_ex__'
p16
S'<built-in method __reduce_ex__ of exceptions.AttributeError object>'
p17
sS'__getslice__'
p18
S"<method-wrapper '__getslice__' of exceptions.AttributeError object>"
p19
sS'__getitem__'
p20
S"<method-wrapper '__getitem__' of exceptions.AttributeError object>"
p21
sS'__setstate__'
p22
S'<built-in method __setstate__ of exceptions.AttributeError object>'
p23
sS'args'
p24
S'("\'Table\' object has no attribute \'diagnostico\'",)'
p25
sS'__reduce__'
p26
S'<built-in method __reduce__ of exceptions.AttributeError object>'
p27
sS'__str__'
p28
S"<method-wrapper '__str__' of exceptions.AttributeError object>"
p29
sS'__format__'
p30
S'<built-in method __format__ of exceptions.AttributeError object>'
p31
sS'__getattribute__'
p32
S"<method-wrapper '__getattribute__' of exceptions.AttributeError object>"
p33
sS'__class__'
p34
S"<type 'exceptions.AttributeError'>"
p35
sS'__unicode__'
p36
S'<built-in method __unicode__ of exceptions.AttributeError object>'
p37
sS'__delattr__'
p38
S"<method-wrapper '__delattr__' of exceptions.AttributeError object>"
p39
sS'__subclasshook__'
p40
S'<built-in method __subclasshook__ of type object>'
p41
sS'__repr__'
p42
S"<method-wrapper '__repr__' of exceptions.AttributeError object>"
p43
sS'__dict__'
p44
S'{}'
p45
sS'__sizeof__'
p46
S'<built-in method __sizeof__ of exceptions.AttributeError object>'
p47
sS'__doc__'
p48
S"'Attribute not found.'"
p49
sS'__init__'
p50
S"<method-wrapper '__init__' of exceptions.AttributeError object>"
p51
sS'__new__'
p52
S'<built-in method __new__ of type object>'
p53
ssS'evalue'
p54
S"'Table' object has no attribute 'diagnostico'"
p55
sS'request'
p56
cgluon.html
XML_unpickle
p57
(S's\xd0j\x00\x00<div><table><tr><td style="font-weight:bold;vertical-align:top;">ajax</td><td style="vertical-align:top;">:</td><td><div>False</div></td></tr><tr><td style="font-weight:bold;vertical-align:top;">application</td><td style="vertical-align:top;">:</td><td><div>proyect</div></td></tr><tr><td style="font-weight:bold;vertical-align:top;">args</td><td style="vertical-align:top;">:</td><td><div><table></table></div></td></tr><tr><td style="font-weight:bold;vertical-align:top;">cid</td><td style="vertical-align:top;">:</td><td><div>None</div></td></tr><tr><td style="font-weight:bold;vertical-align:top;">client</td><td style="vertical-align:top;">:</td><td><div>127.0.0.1</div></td></tr><tr><td style="font-weight:bold;vertical-align:top;">controller</td><td style="vertical-align:top;">:</td><td><div>estudiante</div></td></tr><tr><td style="font-weight:bold;vertical-align:top;">cookies</td><td style="vertical-align:top;">:</td><td><div><table><tr><td style="font-weight:bold;vertical-align:top;">session_id_admin</td><td style="vertical-align:top;">:</td><td><div>127.0.0.1-3f2efa1a-17a6-4689-950d-9e0013215b9b<table><tr><td style="font-weight:bold;vertical-align:top;">comment</td><td style="vertical-align:top;">:</td><td><div></div></td></tr><tr><td style="font-weight:bold;vertical-align:top;">domain</td><td style="vertical-align:top;">:</td><td><div></div></td></tr><tr><td style="font-weight:bold;vertical-align:top;">expires</td><td style="vertical-align:top;">:</td><td><div></div></td></tr><tr><td style="font-weight:bold;vertical-align:top;">httponly</td><td style="vertical-align:top;">:</td><td><div></div></td></tr><tr><td style="font-weight:bold;vertical-align:top;">max-age</td><td style="vertical-align:top;">:</td><td><div></div></td></tr><tr><td style="font-weight:bold;vertical-align:top;">path</td><td style="vertical-align:top;">:</td><td><div></div></td></tr><tr><td style="font-weight:bold;vertical-align:top;">secure</td><td style="vertical-align:top;">:</td><td><div></div></td></tr><tr><td style="font-weight:bold;vertical-align:top;">version</td><td style="vertical-align:top;">:</td><td><div></div></td></tr></table></div></td></tr><tr><td style="font-weight:bold;vertical-align:top;">session_id_cvrf</td><td style="vertical-align:top;">:</td><td><div>127.0.0.1-e146ad3c-8f6a-4fa4-96d5-463b15a91ae7<table><tr><td style="font-weight:bold;vertical-align:top;">comment</td><td style="vertical-align:top;">:</td><td><div></div></td></tr><tr><td style="font-weight:bold;vertical-align:top;">domain</td><td style="vertical-align:top;">:</td><td><div></div></td></tr><tr><td style="font-weight:bold;vertical-align:top;">expires</td><td style="vertical-align:top;">:</td><td><div></div></td></tr><tr><td style="font-weight:bold;vertical-align:top;">httponly</td><td style="vertical-align:top;">:</td><td><div></div></td></tr><tr><td style="font-weight:bold;vertical-align:top;">max-age</td><td style="vertical-align:top;">:</td><td><div></div></td></tr><tr><td style="font-weight:bold;vertical-align:top;">path</td><td style="vertical-align:top;">:</td><td><div></div></td></tr><tr><td style="font-weight:bold;vertical-align:top;">secure</td><td style="vertical-align:top;">:</td><td><div></div></td></tr><tr><td style="font-weight:bold;vertical-align:top;">version</td><td style="vertical-align:top;">:</td><td><div></div></td></tr></table></div></td></tr><tr><td style="font-weight:bold;vertical-align:top;">session_id_cvrfv14</td><td style="vertical-align:top;">:</td><td><div>127.0.0.1-f03ce8d6-9aa8-471a-be5e-b13718e6875d<table><tr><td style="font-weight:bold;vertical-align:top;">comment</td><td style="vertical-align:top;">:</td><td><div></div></td></tr><tr><td style="font-weight:bold;vertical-align:top;">domain</td><td style="vertical-align:top;">:</td><td><div></div></td></tr><tr><td style="font-weight:bold;vertical-align:top;">expires</td><td style="vertical-align:top;">:</td><td><div></div></td></tr><tr><td style="font-weight:bold;vertical-align:top;">httponly</td><td style="vertical-align:top;">:</td><td><div></div></td></tr><tr><td style="font-weight:bold;vertical-align:top;">max-age</td><td style="vertical-align:top;">:</td><td><div></div></td></tr><tr><td style="font-weight:bold;vertical-align:top;">path</td><td style="vertical-align:top;">:</td><td><div></div></td></tr><tr><td style="font-weight:bold;vertical-align:top;">secure</td><td style="vertical-align:top;">:</td><td><div></div></td></tr><tr><td style="font-weight:bold;vertical-align:top;">version</td><td style="vertical-align:top;">:</td><td><div></div></td></tr></table></div></td></tr><tr><td style="font-weight:bold;vertical-align:top;">session_id_observatorio</td><td style="vertical-align:top;">:</td><td><div>30:8577c2d1-df99-4c3e-9fe8-953e0853029f<table><tr><td style="font-weight:bold;vertical-align:top;">comment</td><td style="vertical-align:top;">:</td><td><div></div></td></tr><tr><td style="font-weight:bold;vertical-align:top;">domain</td><td style="vertical-align:top;">:</td><td><div></div></td></tr><tr><td style="font-weight:bold;vertical-align:top;">expires</td><td style="vertical-align:top;">:</td><td><div></div></td></tr><tr><td style="font-weight:bold;vertical-align:top;">httponly</td><td style="vertical-align:top;">:</td><td><div></div></td></tr><tr><td style="font-weight:bold;vertical-align:top;">max-age</td><td style="vertical-align:top;">:</td><td><div></div></td></tr><tr><td style="font-weight:bold;vertical-align:top;">path</td><td style="vertical-align:top;">:</td><td><div></div></td></tr><tr><td style="font-weight:bold;vertical-align:top;">secure</td><td style="vertical-align:top;">:</td><td><div></div></td></tr><tr><td style="font-weight:bold;vertical-align:top;">version</td><td style="vertical-align:top;">:</td><td><div></div></td></tr></table></div></td></tr><tr><td style="font-weight:bold;vertical-align:top;">session_id_proyect</td><td style="vertical-align:top;">:</td><td><div>127.0.0.1-6c441933-a9ba-4bcf-995f-306005603452<table><tr><td style="font-weight:bold;vertical-align:top;">comment</td><td style="vertical-align:top;">:</td><td><div></div></td></tr><tr><td style="font-weight:bold;vertical-align:top;">domain</td><td style="vertical-align:top;">:</td><td><div></div></td></tr><tr><td style="font-weight:bold;vertical-align:top;">expires</td><td style="vertical-align:top;">:</td><td><div></div></td></tr><tr><td style="font-weight:bold;vertical-align:top;">httponly</td><td style="vertical-align:top;">:</td><td><div></div></td></tr><tr><td style="font-weight:bold;vertical-align:top;">max-age</td><td style="vertical-align:top;">:</td><td><div></div></td></tr><tr><td style="font-weight:bold;vertical-align:top;">path</td><td style="vertical-align:top;">:</td><td><div></div></td></tr><tr><td style="font-weight:bold;vertical-align:top;">secure</td><td style="vertical-align:top;">:</td><td><div></div></td></tr><tr><td style="font-weight:bold;vertical-align:top;">version</td><td style="vertical-align:top;">:</td><td><div></div></td></tr></table></div></td></tr></table></div></td></tr><tr><td style="font-weight:bold;vertical-align:top;">env</td><td style="vertical-align:top;">:</td><td><div><table><tr><td style="font-weight:bold;vertical-align:top;">HTTP_ACCEPT</td><td style="vertical-align:top;">:</td><td><div>text/html,application/xhtml+xml,application/xml;q=0.9,image/webp,*/*;q=0.8</div></td></tr><tr><td style="font-weight:bold;vertical-align:top;">HTTP_ACCEPT_ENCODING</td><td style="vertical-align:top;">:</td><td><div>gzip, deflate, sdch, br</div></td></tr><tr><td style="font-weight:bold;vertical-align:top;">HTTP_ACCEPT_LANGUAGE</td><td style="vertical-align:top;">:</td><td><div>es-ES,es;q=0.8</div></td></tr><tr><td style="font-weight:bold;vertical-align:top;">HTTP_CACHE_CONTROL</td><td style="vertical-align:top;">:</td><td><div>max-age=0</div></td></tr><tr><td style="font-weight:bold;vertical-align:top;">HTTP_CONNECTION</td><td style="vertical-align:top;">:</td><td><div>keep-alive</div></td></tr><tr><td style="font-weight:bold;vertical-align:top;">HTTP_COOKIE</td><td style="vertical-align:top;">:</td><td><div>session_id_cvrfv14=127.0.0.1-f03ce8d6-9aa8-471a-be5e-b13718e6875d; session_id_cvrf=127.0.0.1-e146ad3c-8f6a-4fa4-96d5-463b15a91ae7; session_id_observatorio=&quot;30:8577c2d1-df99-4c3e-9fe8-953e0853029f&quot;; session_id_proyect=127.0.0.1-6c441933-a9ba-4bcf-995f-306005603452; session_id_admin=127.0.0.1-3f2efa1a-17a6-4689-950d-9e0013215b9b</div></td></tr><tr><td style="font-weight:bold;vertical-align:top;">HTTP_HOST</td><td style="vertical-align:top;">:</td><td><div>localhost:8000</div></td></tr><tr><td style="font-weight:bold;vertical-align:top;">HTTP_REFERER</td><td style="vertical-align:top;">:</td><td><div>http://localhost:8000/proyect/default/user/login?_next=/proyect/estudiante/cuestionario_diagnostico</div></td></tr><tr><td style="font-weight:bold;vertical-align:top;">HTTP_UPGRADE_INSECURE_REQUESTS</td><td style="vertical-align:top;">:</td><td><div>1</div></td></tr><tr><td style="font-weight:bold;vertical-align:top;">HTTP_USER_AGENT</td><td style="vertical-align:top;">:</td><td><div>Mozilla/5.0 (X11; Linux x86_64) AppleWebKit/537.36 (KHTML, like Gecko) Ubuntu Chromium/55.0.2883.87 Chrome/55.0.2883.87 Safari/537.36</div></td></tr><tr><td style="font-weight:bold;vertical-align:top;">PATH_INFO</td><td style="vertical-align:top;">:</td><td><div>/proyect/estudiante/cuestionario_diagnostico</div></td></tr><tr><td style="font-weight:bold;vertical-align:top;">QUERY_STRING</td><td style="vertical-align:top;">:</td><td><div></div></td></tr><tr><td style="font-weight:bold;vertical-align:top;">REMOTE_ADDR</td><td style="vertical-align:top;">:</td><td><div>127.0.0.1</div></td></tr><tr><td style="font-weight:bold;vertical-align:top;">REMOTE_PORT</td><td style="vertical-align:top;">:</td><td><div>33266</div></td></tr><tr><td style="font-weight:bold;vertical-align:top;">REQUEST_METHOD</td><td style="vertical-align:top;">:</td><td><div>GET</div></td></tr><tr><td style="font-weight:bold;vertical-align:top;">SCRIPT_NAME</td><td style="vertical-align:top;">:</td><td><div></div></td></tr><tr><td style="font-weight:bold;vertical-align:top;">SERVER_NAME</td><td style="vertical-align:top;">:</td><td><div>yasmany-tp500lab</div></td></tr><tr><td style="font-weight:bold;vertical-align:top;">SERVER_PORT</td><td style="vertical-align:top;">:</td><td><div>8000</div></td></tr><tr><td style="font-weight:bold;vertical-align:top;">SERVER_PROTOCOL</td><td style="vertical-align:top;">:</td><td><div>HTTP/1.1</div></td></tr><tr><td style="font-weight:bold;vertical-align:top;">SERVER_SOFTWARE</td><td style="vertical-align:top;">:</td><td><div>Rocket 1.2.6</div></td></tr><tr><td style="font-weight:bold;vertical-align:top;">app_folders</td><td style="vertical-align:top;">:</td><td><div>set([&#x27;/opt/python/web2py-files/web2py/applications/observatorio/&#x27;, &#x27;/opt/python/web2py-files/web2py/applications/cvrfv14/&#x27;, &#x27;/opt/python/web2py-files/web2py/applications/proyect/&#x27;, &#x27;/opt/python/web2py-files/web2py/applications/admin/&#x27;, &#x27;/opt/python/web2py-files/web2py/applications/cvrf/&#x27;, &#x27;/opt/python/web2py-files/web2py/applications/welcome/&#x27;])</div></td></tr><tr><td style="font-weight:bold;vertical-align:top;">applications_parent</td><td style="vertical-align:top;">:</td><td><div>/opt/python/web2py-files/web2py</div></td></tr><tr><td style="font-weight:bold;vertical-align:top;">cmd_args</td><td style="vertical-align:top;">:</td><td><div><table></table></div></td></tr><tr><td style="font-weight:bold;vertical-align:top;">cmd_options</td><td style="vertical-align:top;">:</td><td><div>&lt;Values at 0x7f5d84d67320: {&#x27;verbose&#x27;: False, &#x27;ip&#x27;: &#x27;127.0.0.1&#x27;, &#x27;debuglevel&#x27;: 30, &#x27;with_scheduler&#x27;: False, &#x27;shutdown_timeout&#x27;: 5, &#x27;taskbar&#x27;: False, &#x27;with_coverage&#x27;: False, &#x27;pid_filename&#x27;: &#x27;httpserver.pid&#x27;, &#x27;maxthreads&#x27;: None, &#x27;softcron&#x27;: False, &#x27;server_name&#x27;: &#x27;yasmany-tp500lab&#x27;, &#x27;bpython&#x27;: False, &#x27;nogui&#x27;: False, &#x27;port&#x27;: 8000, &#x27;print_errors&#x27;: False, &#x27;extcron&#x27;: False, &#x27;runcron&#x27;: False, &#x27;run_system_tests&#x27;: False, &#x27;test&#x27;: None, &#x27;folder&#x27;: &#x27;/opt/python/web2py-files/web2py&#x27;, &#x27;config&#x27;: &#x27;&#x27;, &#x27;minthreads&#x27;: None, &#x27;shell&#x27;: None, &#x27;run&#x27;: &#x27;&#x27;, &#x27;log_filename&#x27;: &#x27;httpserver.log&#x27;, &#x27;profiler_dir&#x27;: None, &#x27;args&#x27;: [&#x27;&#x27;], &#x27;socket_timeout&#x27;: 5, &#x27;ssl_ca_certificate&#x27;: None, &#x27;scheduler&#x27;: None, &#x27;interfaces&#x27;: None, &#x27;ssl_private_key&#x27;: &#x27;&#x27;, &#x27;gae&#x27;: None, &#x27;password&#x27;: &#x27;******&#x27;, &#x27;request_queue_size&#x27;: 5, &#x27;ssl_certificate&#x27;: &#x27;&#x27;, &#x27;cronjob&#x27;: False, &#x27;numthreads&#x27;: None, &#x27;quiet&#x27;: False, &#x27;import_models&#x27;: False, &#x27;timeout&#x27;: 10, &#x27;plain&#x27;: False, &#x27;nobanner&#x27;: False}&gt;</div></td></tr><tr><td style="font-weight:bold;vertical-align:top;">db_sessions</td><td style="vertical-align:top;">:</td><td><div>set([&#x27;observatorio&#x27;])</div></td></tr><tr><td style="font-weight:bold;vertical-align:top;">debugging</td><td style="vertical-align:top;">:</td><td><div>True</div></td></tr><tr><td style="font-weight:bold;vertical-align:top;">gluon_parent</td><td style="vertical-align:top;">:</td><td><div>/opt/python/web2py-files/web2py</div></td></tr><tr><td style="font-weight:bold;vertical-align:top;">http_accept</td><td style="vertical-align:top;">:</td><td><div>text/html,application/xhtml+xml,application/xml;q=0.9,image/webp,*/*;q=0.8</div></td></tr><tr><td style="font-weight:bold;vertical-align:top;">http_accept_encoding</td><td style="vertical-align:top;">:</td><td><div>gzip, deflate, sdch, br</div></td></tr><tr><td style="font-weight:bold;vertical-align:top;">http_accept_language</td><td style="vertical-align:top;">:</td><td><div>es-ES,es;q=0.8</div></td></tr><tr><td style="font-weight:bold;vertical-align:top;">http_cache_control</td><td style="vertical-align:top;">:</td><td><div>max-age=0</div></td></tr><tr><td style="font-weight:bold;vertical-align:top;">http_connection</td><td style="vertical-align:top;">:</td><td><div>keep-alive</div></td></tr><tr><td style="font-weight:bold;vertical-align:top;">http_cookie</td><td style="vertical-align:top;">:</td><td><div>session_id_cvrfv14=127.0.0.1-f03ce8d6-9aa8-471a-be5e-b13718e6875d; session_id_cvrf=127.0.0.1-e146ad3c-8f6a-4fa4-96d5-463b15a91ae7; session_id_observatorio=&quot;30:8577c2d1-df99-4c3e-9fe8-953e0853029f&quot;; session_id_proyect=127.0.0.1-6c441933-a9ba-4bcf-995f-306005603452; session_id_admin=127.0.0.1-3f2efa1a-17a6-4689-950d-9e0013215b9b</div></td></tr><tr><td style="font-weight:bold;vertical-align:top;">http_host</td><td style="vertical-align:top;">:</td><td><div>localhost:8000</div></td></tr><tr><td style="font-weight:bold;vertical-align:top;">http_referer</td><td style="vertical-align:top;">:</td><td><div>http://localhost:8000/proyect/default/user/login?_next=/proyect/estudiante/cuestionario_diagnostico</div></td></tr><tr><td style="font-weight:bold;vertical-align:top;">http_upgrade_insecure_requests</td><td style="vertical-align:top;">:</td><td><div>1</div></td></tr><tr><td style="font-weight:bold;vertical-align:top;">http_user_agent</td><td style="vertical-align:top;">:</td><td><div>Mozilla/5.0 (X11; Linux x86_64) AppleWebKit/537.36 (KHTML, like Gecko) Ubuntu Chromium/55.0.2883.87 Chrome/55.0.2883.87 Safari/537.36</div></td></tr><tr><td style="font-weight:bold;vertical-align:top;">is_jython</td><td style="vertical-align:top;">:</td><td><div>False</div></td></tr><tr><td style="font-weight:bold;vertical-align:top;">is_pypy</td><td style="vertical-align:top;">:</td><td><div>False</div></td></tr><tr><td style="font-weight:bold;vertical-align:top;">is_source</td><td style="vertical-align:top;">:</td><td><div>True</div></td></tr><tr><td style="font-weight:bold;vertical-align:top;">local_hosts</td><td style="vertical-align:top;">:</td><td><div><table><tr><td><div>yasmany-tp500lab</div></td></tr><tr><td><div>127.0.1.1</div></td></tr><tr><td><div>::ffff:127.0.0.1</div></td></tr><tr><td><div>::1</div></td></tr><tr><td><div>yasmany-TP500LAB</div></td></tr><tr><td><div>127.0.0.1</div></td></tr></table></div></td></tr><tr><td style="font-weight:bold;vertical-align:top;">path_info</td><td style="vertical-align:top;">:</td><td><div>/proyect/estudiante/cuestionario_diagnostico</div></td></tr><tr><td style="font-weight:bold;vertical-align:top;">query_string</td><td style="vertical-align:top;">:</td><td><div></div></td></tr><tr><td style="font-weight:bold;vertical-align:top;">remote_addr</td><td style="vertical-align:top;">:</td><td><div>127.0.0.1</div></td></tr><tr><td style="font-weight:bold;vertical-align:top;">remote_port</td><td style="vertical-align:top;">:</td><td><div>33266</div></td></tr><tr><td style="font-weight:bold;vertical-align:top;">request_method</td><td style="vertical-align:top;">:</td><td><div>GET</div></td></tr><tr><td style="font-weight:bold;vertical-align:top;">request_uri</td><td style="vertical-align:top;">:</td><td><div>/proyect/estudiante/cuestionario_diagnostico</div></td></tr><tr><td style="font-weight:bold;vertical-align:top;">script_name</td><td style="vertical-align:top;">:</td><td><div></div></td></tr><tr><td style="font-weight:bold;vertical-align:top;">server_name</td><td style="vertical-align:top;">:</td><td><div>yasmany-tp500lab</div></td></tr><tr><td style="font-weight:bold;vertical-align:top;">server_port</td><td style="vertical-align:top;">:</td><td><div>8000</div></td></tr><tr><td style="font-weight:bold;vertical-align:top;">server_protocol</td><td style="vertical-align:top;">:</td><td><div>HTTP/1.1</div></td></tr><tr><td style="font-weight:bold;vertical-align:top;">server_software</td><td style="vertical-align:top;">:</td><td><div>Rocket 1.2.6</div></td></tr><tr><td style="font-weight:bold;vertical-align:top;">web2py_path</td><td style="vertical-align:top;">:</td><td><div>/opt/python/web2py-files/web2py</div></td></tr><tr><td style="font-weight:bold;vertical-align:top;">web2py_version</td><td style="vertical-align:top;">:</td><td><div>2.14.6-stable+timestamp.2016.05.10.00.21.47</div></td></tr><tr><td style="font-weight:bold;vertical-align:top;">wsgi.errors</td><td style="vertical-align:top;">:</td><td><div>&lt;open file &#x27;&lt;stderr&gt;&#x27;, mode &#x27;w&#x27; at 0x7f5d89a561e0&gt;</div></td></tr><tr><td style="font-weight:bold;vertical-align:top;">wsgi.file_wrapper</td><td style="vertical-align:top;">:</td><td><div>&lt;class wsgiref.util.FileWrapper at 0x7f5d84dffe88&gt;</div></td></tr><tr><td style="font-weight:bold;vertical-align:top;">wsgi.input</td><td style="vertical-align:top;">:</td><td><div>&lt;socket._fileobject object at 0x7f5d44004e50&gt;</div></td></tr><tr><td style="font-weight:bold;vertical-align:top;">wsgi.multiprocess</td><td style="vertical-align:top;">:</td><td><div>False</div></td></tr><tr><td style="font-weight:bold;vertical-align:top;">wsgi.multithread</td><td style="vertical-align:top;">:</td><td><div>True</div></td></tr><tr><td style="font-weight:bold;vertical-align:top;">wsgi.run_once</td><td style="vertical-align:top;">:</td><td><div>False</div></td></tr><tr><td style="font-weight:bold;vertical-align:top;">wsgi.url_scheme</td><td style="vertical-align:top;">:</td><td><div>http</div></td></tr><tr><td style="font-weight:bold;vertical-align:top;">wsgi.version</td><td style="vertical-align:top;">:</td><td><div><table><tr><td><div>1</div></td></tr><tr><td><div>0</div></td></tr></table></div></td></tr><tr><td style="font-weight:bold;vertical-align:top;">wsgi_errors</td><td style="vertical-align:top;">:</td><td><div>&lt;open file &#x27;&lt;stderr&gt;&#x27;, mode &#x27;w&#x27; at 0x7f5d89a561e0&gt;</div></td></tr><tr><td style="font-weight:bold;vertical-align:top;">wsgi_file_wrapper</td><td style="vertical-align:top;">:</td><td><div>&lt;class wsgiref.util.FileWrapper at 0x7f5d84dffe88&gt;</div></td></tr><tr><td style="font-weight:bold;vertical-align:top;">wsgi_input</td><td style="vertical-align:top;">:</td><td><div>&lt;socket._fileobject object at 0x7f5d44004e50&gt;</div></td></tr><tr><td style="font-weight:bold;vertical-align:top;">wsgi_multiprocess</td><td style="vertical-align:top;">:</td><td><div>False</div></td></tr><tr><td style="font-weight:bold;vertical-align:top;">wsgi_multithread</td><td style="vertical-align:top;">:</td><td><div>True</div></td></tr><tr><td style="font-weight:bold;vertical-align:top;">wsgi_run_once</td><td style="vertical-align:top;">:</td><td><div>False</div></td></tr><tr><td style="font-weight:bold;vertical-align:top;">wsgi_url_scheme</td><td style="vertical-align:top;">:</td><td><div>http</div></td></tr><tr><td style="font-weight:bold;vertical-align:top;">wsgi_version</td><td style="vertical-align:top;">:</td><td><div><table><tr><td><div>1</div></td></tr><tr><td><div>0</div></td></tr></table></div></td></tr></table></div></td></tr><tr><td style="font-weight:bold;vertical-align:top;">extension</td><td style="vertical-align:top;">:</td><td><div>html</div></td></tr><tr><td style="font-weight:bold;vertical-align:top;">folder</td><td style="vertical-align:top;">:</td><td><div>/opt/python/web2py-files/web2py/applications/proyect/</div></td></tr><tr><td style="font-weight:bold;vertical-align:top;">function</td><td style="vertical-align:top;">:</td><td><div>cuestionario_diagnostico</div></td></tr><tr><td style="font-weight:bold;vertical-align:top;">global_settings</td><td style="vertical-align:top;">:</td><td><div><table><tr><td style="font-weight:bold;vertical-align:top;">app_folders</td><td style="vertical-align:top;">:</td><td><div>set([&#x27;/opt/python/web2py-files/web2py/applications/observatorio/&#x27;, &#x27;/opt/python/web2py-files/web2py/applications/cvrfv14/&#x27;, &#x27;/opt/python/web2py-files/web2py/applications/proyect/&#x27;, &#x27;/opt/python/web2py-files/web2py/applications/admin/&#x27;, &#x27;/opt/python/web2py-files/web2py/applications/cvrf/&#x27;, &#x27;/opt/python/web2py-files/web2py/applications/welcome/&#x27;])</div></td></tr><tr><td style="font-weight:bold;vertical-align:top;">applications_parent</td><td style="vertical-align:top;">:</td><td><div>/opt/python/web2py-files/web2py</div></td></tr><tr><td style="font-weight:bold;vertical-align:top;">cmd_args</td><td style="vertical-align:top;">:</td><td><div><table></table></div></td></tr><tr><td style="font-weight:bold;vertical-align:top;">cmd_options</td><td style="vertical-align:top;">:</td><td><div>&lt;Values at 0x7f5d84d67320: {&#x27;verbose&#x27;: False, &#x27;ip&#x27;: &#x27;127.0.0.1&#x27;, &#x27;debuglevel&#x27;: 30, &#x27;with_scheduler&#x27;: False, &#x27;shutdown_timeout&#x27;: 5, &#x27;taskbar&#x27;: False, &#x27;with_coverage&#x27;: False, &#x27;pid_filename&#x27;: &#x27;httpserver.pid&#x27;, &#x27;maxthreads&#x27;: None, &#x27;softcron&#x27;: False, &#x27;server_name&#x27;: &#x27;yasmany-tp500lab&#x27;, &#x27;bpython&#x27;: False, &#x27;nogui&#x27;: False, &#x27;port&#x27;: 8000, &#x27;print_errors&#x27;: False, &#x27;extcron&#x27;: False, &#x27;runcron&#x27;: False, &#x27;run_system_tests&#x27;: False, &#x27;test&#x27;: None, &#x27;folder&#x27;: &#x27;/opt/python/web2py-files/web2py&#x27;, &#x27;config&#x27;: &#x27;&#x27;, &#x27;minthreads&#x27;: None, &#x27;shell&#x27;: None, &#x27;run&#x27;: &#x27;&#x27;, &#x27;log_filename&#x27;: &#x27;httpserver.log&#x27;, &#x27;profiler_dir&#x27;: None, &#x27;args&#x27;: [&#x27;&#x27;], &#x27;socket_timeout&#x27;: 5, &#x27;ssl_ca_certificate&#x27;: None, &#x27;scheduler&#x27;: None, &#x27;interfaces&#x27;: None, &#x27;ssl_private_key&#x27;: &#x27;&#x27;, &#x27;gae&#x27;: None, &#x27;password&#x27;: &#x27;******&#x27;, &#x27;request_queue_size&#x27;: 5, &#x27;ssl_certificate&#x27;: &#x27;&#x27;, &#x27;cronjob&#x27;: False, &#x27;numthreads&#x27;: None, &#x27;quiet&#x27;: False, &#x27;import_models&#x27;: False, &#x27;timeout&#x27;: 10, &#x27;plain&#x27;: False, &#x27;nobanner&#x27;: False}&gt;</div></td></tr><tr><td style="font-weight:bold;vertical-align:top;">db_sessions</td><td style="vertical-align:top;">:</td><td><div>set([&#x27;observatorio&#x27;])</div></td></tr><tr><td style="font-weight:bold;vertical-align:top;">debugging</td><td style="vertical-align:top;">:</td><td><div>True</div></td></tr><tr><td style="font-weight:bold;vertical-align:top;">gluon_parent</td><td style="vertical-align:top;">:</td><td><div>/opt/python/web2py-files/web2py</div></td></tr><tr><td style="font-weight:bold;vertical-align:top;">is_jython</td><td style="vertical-align:top;">:</td><td><div>False</div></td></tr><tr><td style="font-weight:bold;vertical-align:top;">is_pypy</td><td style="vertical-align:top;">:</td><td><div>False</div></td></tr><tr><td style="font-weight:bold;vertical-align:top;">is_source</td><td style="vertical-align:top;">:</td><td><div>True</div></td></tr><tr><td style="font-weight:bold;vertical-align:top;">local_hosts</td><td style="vertical-align:top;">:</td><td><div><table><tr><td><div>yasmany-tp500lab</div></td></tr><tr><td><div>127.0.1.1</div></td></tr><tr><td><div>::ffff:127.0.0.1</div></td></tr><tr><td><div>::1</div></td></tr><tr><td><div>yasmany-TP500LAB</div></td></tr><tr><td><div>127.0.0.1</div></td></tr></table></div></td></tr><tr><td style="font-weight:bold;vertical-align:top;">web2py_version</td><td style="vertical-align:top;">:</td><td><div>2.14.6-stable+timestamp.2016.05.10.00.21.47</div></td></tr></table></div></td></tr><tr><td style="font-weight:bold;vertical-align:top;">is_https</td><td style="vertical-align:top;">:</td><td><div>False</div></td></tr><tr><td style="font-weight:bold;vertical-align:top;">is_local</td><td style="vertical-align:top;">:</td><td><div>True</div></td></tr><tr><td style="font-weight:bold;vertical-align:top;">is_restful</td><td style="vertical-align:top;">:</td><td><div>False</div></td></tr><tr><td style="font-weight:bold;vertical-align:top;">is_scheduler</td><td style="vertical-align:top;">:</td><td><div>False</div></td></tr><tr><td style="font-weight:bold;vertical-align:top;">is_shell</td><td style="vertical-align:top;">:</td><td><div>False</div></td></tr><tr><td style="font-weight:bold;vertical-align:top;">now</td><td style="vertical-align:top;">:</td><td><div>datetime.datetime(2017, 2, 13, 11, 21, 11, 955585)</div></td></tr><tr><td style="font-weight:bold;vertical-align:top;">raw_args</td><td style="vertical-align:top;">:</td><td><div></div></td></tr><tr><td style="font-weight:bold;vertical-align:top;">raw_extension</td><td style="vertical-align:top;">:</td><td><div>None</div></td></tr><tr><td style="font-weight:bold;vertical-align:top;">url</td><td style="vertical-align:top;">:</td><td><div>/proyect/estudiante/cuestionario_diagnostico</div></td></tr><tr><td style="font-weight:bold;vertical-align:top;">utcnow</td><td style="vertical-align:top;">:</td><td><div>datetime.datetime(2017, 2, 13, 16, 21, 11, 955650)</div></td></tr><tr><td style="font-weight:bold;vertical-align:top;">wsgi</td><td style="vertical-align:top;">:</td><td><div>&lt;gluon.main.LazyWSGI object at 0x7f5d35608910&gt;</div></td></tr></table></div>'
tRp58
sS'frames'
p59
(lp60
(dp61
S'file'
p62
S'/opt/python/web2py-files/web2py/gluon/restricted.py'
p63
sS'dump'
p64
(dp65
S'environment'
p66
S"{'A': <class 'gluon.html.A'>, 'ANY_OF': <class 'gluon.validators.ANY_OF'>, 'ASSIGNJS': <function ASSIGNJS>, 'AppConfig': <function AppConfig>, 'Auth': <class 'gluon.tools.Auth'>, 'B': <class 'gluon.html.B'>, 'BEAUTIFY': <class 'gluon.html.BEAUTIFY'>, 'BODY': <class 'gluon.html.BODY'>, 'BR': <class 'gluon.html.BR'>, 'BUTTON': <class 'gluon.html.BUTTON'>, ...}"
p67
sS'ccode'
p68
S'<code object <module> at 0x7f5d440236b0, file "/...eb2py/applications/proyect/models/db.py", line 8>'
p69
ssS'lnum'
p70
I227
sS'lines'
p71
(dp72
I224
S'            ccode = code'
p73
sI225
S'        else:'
p74
sI226
S'            ccode = compile2(code, layer)'
p75
sI227
S'        exec ccode in environment'
p76
sI228
S'    except HTTP:'
p77
sI229
S'        raise'
p78
sI230
S'    except RestrictedError:'
p79
sI231
S'        # do not encapsulate (obfuscate) the original RestrictedError'
p80
sI222
S'    try:'
p81
sI223
S'        if isinstance(code, types.CodeType):'
p82
ssS'call'
p83
S'(code="# -*- coding: utf-8 -*-\\n\\n# ---------------------...te = lambda r:r[\'hora_fin\']-r[\'hora_inicio\']\\n\'\'\'\\n", environment={\'A\': <class \'gluon.html.A\'>, \'ANY_OF\': <class \'gluon.validators.ANY_OF\'>, \'ASSIGNJS\': <function ASSIGNJS>, \'AppConfig\': <function AppConfig>, \'Auth\': <class \'gluon.tools.Auth\'>, \'B\': <class \'gluon.html.B\'>, \'BEAUTIFY\': <class \'gluon.html.BEAUTIFY\'>, \'BODY\': <class \'gluon.html.BODY\'>, \'BR\': <class \'gluon.html.BR\'>, \'BUTTON\': <class \'gluon.html.BUTTON\'>, ...}, layer=\'/opt/python/web2py-files/web2py/applications/proyect/models/db.py\')'
p84
sS'func'
p85
S'restricted'
p86
sa(dp87
g62
S'/opt/python/web2py-files/web2py/applications/proyect/models/db.py'
p88
sg64
(dp89
S'db.respuesta'
p90
S'<Table respuesta (id, aciertos, intrusiones, pre...reated_on, created_by, modified_on, modified_by)>'
p91
sS'db.respuesta.diagnostico'
p92
S'undefined'
p93
sS'error_message'
p94
g93
sS'db'
p95
S'<DAL uri="mongodb://localhost/proyect">'
p96
sS'zero'
p97
g93
sS'IS_IN_SET'
p98
S"<class 'gluon.validators.IS_IN_SET'>"
p99
sS'T'
S'<gluon.languages.translator object>'
p100
sS'tipo_diagnostico'
p101
S"{'0': <lazyT 'Inicial'>, '1': <lazyT 'Atenci\xc3\xb3n Enfocada'>, '2': <lazyT 'Atenci\xc3\xb3n Sostenida'>, '3': <lazyT 'Atenci\xc3\xb3n Selectiva'>, '4': <lazyT 'Atenci\xc3\xb3n Alternada'>, '5': <lazyT 'Atenci\xc3\xb3n Dividida'>}"
p102
ssg70
I267
sg71
(dp103
I262
S"   Field('intrusiones', 'integer', label=T('Intruciones'), comment=T('Intrusiones de la respuesta')),"
p104
sI263
S"   Field('pregunta', 'reference pregunta', label=T('Pregunta'), comment=T('Pregunta')),"
p105
sI264
S'   Field(\'respuesta\', \'text\', label=T(\'Respuesta\'), comment=T(\'Respuesta de la pregunta ejemplo: "1-2|4-5-4|7-8-4-1%2-3-9-0-1|3-1-8-7". S\xc3\xadmbolo % divide los ensayos, s\xc3\xadmbolo | divide las respuestas (series)\')),'
p106
sI265
S"   format='%(id)s')"
p107
sI266
S''
sI267
S"db.respuesta.diagnostico.requires = IS_IN_SET(tipo_diagnostico, zero=T('Choose one'), error_message=T('Choose one'))"
p108
sI268
S''
sI269
S''
sI270
S"'''"
p109
sI271
S'NEWS_WIDTH = 2340'
p110
ssg83
S'()'
p111
sg85
S'<module>'
p112
sasS'pyver'
p113
S'Python 2.7.12: /usr/bin/python (prefix: /usr)'
p114
sS'session'
p115
g57
(S's\xcd\t\x00\x00<div><table><tr><td style="font-weight:bold;vertical-align:top;">auth</td><td style="vertical-align:top;">:</td><td><div><table><tr><td style="font-weight:bold;vertical-align:top;">expiration</td><td style="vertical-align:top;">:</td><td><div>3600</div></td></tr><tr><td style="font-weight:bold;vertical-align:top;">hmac_key</td><td style="vertical-align:top;">:</td><td><div>338d62d4-676d-4228-aef0-c5dfae462fe2</div></td></tr><tr><td style="font-weight:bold;vertical-align:top;">last_visit</td><td style="vertical-align:top;">:</td><td><div>datetime.datetime(2017, 2, 13, 11, 17, 26, 30397)</div></td></tr><tr><td style="font-weight:bold;vertical-align:top;">remember_me</td><td style="vertical-align:top;">:</td><td><div>False</div></td></tr><tr><td style="font-weight:bold;vertical-align:top;">user</td><td style="vertical-align:top;">:</td><td><div><table><tr><td style="font-weight:bold;vertical-align:top;">email</td><td style="vertical-align:top;">:</td><td><div>estudiante@upr.edu.cu</div></td></tr><tr><td style="font-weight:bold;vertical-align:top;">fecha_nacimiento</td><td style="vertical-align:top;">:</td><td><div>datetime.date(1988, 9, 19)</div></td></tr><tr><td style="font-weight:bold;vertical-align:top;">first_name</td><td style="vertical-align:top;">:</td><td><div>Estudiante</div></td></tr><tr><td style="font-weight:bold;vertical-align:top;">id</td><td style="vertical-align:top;">:</td><td><div>27427756755470223859474236108L</div></td></tr><tr><td style="font-weight:bold;vertical-align:top;">last_name</td><td style="vertical-align:top;">:</td><td><div>asd</div></td></tr><tr><td style="font-weight:bold;vertical-align:top;">registration_id</td><td style="vertical-align:top;">:</td><td><div></div></td></tr><tr><td style="font-weight:bold;vertical-align:top;">registration_key</td><td style="vertical-align:top;">:</td><td><div></div></td></tr><tr><td style="font-weight:bold;vertical-align:top;">reset_password_key</td><td style="vertical-align:top;">:</td><td><div></div></td></tr></table></div></td></tr><tr><td style="font-weight:bold;vertical-align:top;">user_groups</td><td style="vertical-align:top;">:</td><td><div><table><tr><td style="font-weight:bold;vertical-align:top;">27427755759346043879158448841</td><td style="vertical-align:top;">:</td><td><div>Estudiante</div></td></tr></table></div></td></tr></table></div></td></tr><tr><td style="font-weight:bold;vertical-align:top;">flash</td><td style="vertical-align:top;">:</td><td><div>None</div></td></tr></table></div>'
tRp116
sS'etype'
p117
S"<type 'exceptions.AttributeError'>"
p118
sS'date'
p119
S'Mon Feb 13 11:21:11 2017'
p120
sS'response'
p121
g57
(S's\xdc\x18\x00\x00<div><table><tr><td style="font-weight:bold;vertical-align:top;">body</td><td style="vertical-align:top;">:</td><td><div>&lt;cStringIO.StringO object at 0x7f5d3c12c298&gt;</div></td></tr><tr><td style="font-weight:bold;vertical-align:top;">cookies</td><td style="vertical-align:top;">:</td><td><div><table><tr><td style="font-weight:bold;vertical-align:top;">session_id_proyect</td><td style="vertical-align:top;">:</td><td><div>127.0.0.1-6c441933-a9ba-4bcf-995f-306005603452<table><tr><td style="font-weight:bold;vertical-align:top;">comment</td><td style="vertical-align:top;">:</td><td><div></div></td></tr><tr><td style="font-weight:bold;vertical-align:top;">domain</td><td style="vertical-align:top;">:</td><td><div></div></td></tr><tr><td style="font-weight:bold;vertical-align:top;">expires</td><td style="vertical-align:top;">:</td><td><div></div></td></tr><tr><td style="font-weight:bold;vertical-align:top;">httponly</td><td style="vertical-align:top;">:</td><td><div></div></td></tr><tr><td style="font-weight:bold;vertical-align:top;">max-age</td><td style="vertical-align:top;">:</td><td><div></div></td></tr><tr><td style="font-weight:bold;vertical-align:top;">path</td><td style="vertical-align:top;">:</td><td><div>/</div></td></tr><tr><td style="font-weight:bold;vertical-align:top;">secure</td><td style="vertical-align:top;">:</td><td><div></div></td></tr><tr><td style="font-weight:bold;vertical-align:top;">version</td><td style="vertical-align:top;">:</td><td><div></div></td></tr></table></div></td></tr></table></div></td></tr><tr><td style="font-weight:bold;vertical-align:top;">delimiters</td><td style="vertical-align:top;">:</td><td><div><table><tr><td><div>{{</div></td></tr><tr><td><div>}}</div></td></tr></table></div></td></tr><tr><td style="font-weight:bold;vertical-align:top;">files</td><td style="vertical-align:top;">:</td><td><div><table></table></div></td></tr><tr><td style="font-weight:bold;vertical-align:top;">flash</td><td style="vertical-align:top;">:</td><td><div></div></td></tr><tr><td style="font-weight:bold;vertical-align:top;">form_label_separator</td><td style="vertical-align:top;">:</td><td><div></div></td></tr><tr><td style="font-weight:bold;vertical-align:top;">formstyle</td><td style="vertical-align:top;">:</td><td><div>bootstrap3_inline</div></td></tr><tr><td style="font-weight:bold;vertical-align:top;">generic_patterns</td><td style="vertical-align:top;">:</td><td><div><table><tr><td><div>*</div></td></tr></table></div></td></tr><tr><td style="font-weight:bold;vertical-align:top;">headers</td><td style="vertical-align:top;">:</td><td><div><table><tr><td style="font-weight:bold;vertical-align:top;">X-Powered-By</td><td style="vertical-align:top;">:</td><td><div>web2py</div></td></tr></table></div></td></tr><tr><td style="font-weight:bold;vertical-align:top;">menu</td><td style="vertical-align:top;">:</td><td><div><table></table></div></td></tr><tr><td style="font-weight:bold;vertical-align:top;">meta</td><td style="vertical-align:top;">:</td><td><div><table></table></div></td></tr><tr><td style="font-weight:bold;vertical-align:top;">models_to_run</td><td style="vertical-align:top;">:</td><td><div><table><tr><td><div>^\\w+\\.py$</div></td></tr><tr><td><div>^estudiante/\\w+\\.py$</div></td></tr><tr><td><div>^estudiante/cuestionario_diagnostico/\\w+\\.py$</div></td></tr></table></div></td></tr><tr><td style="font-weight:bold;vertical-align:top;">optimize_css</td><td style="vertical-align:top;">:</td><td><div>concat,minify,inline</div></td></tr><tr><td style="font-weight:bold;vertical-align:top;">optimize_js</td><td style="vertical-align:top;">:</td><td><div>concat,minify,inline</div></td></tr><tr><td style="font-weight:bold;vertical-align:top;">postprocessing</td><td style="vertical-align:top;">:</td><td><div><table></table></div></td></tr><tr><td style="font-weight:bold;vertical-align:top;">session_client</td><td style="vertical-align:top;">:</td><td><div>127.0.0.1</div></td></tr><tr><td style="font-weight:bold;vertical-align:top;">session_cookie_compression_level</td><td style="vertical-align:top;">:</td><td><div>None</div></td></tr><tr><td style="font-weight:bold;vertical-align:top;">session_cookie_expires</td><td style="vertical-align:top;">:</td><td><div>None</div></td></tr><tr><td style="font-weight:bold;vertical-align:top;">session_data_name</td><td style="vertical-align:top;">:</td><td><div>session_data_proyect</div></td></tr><tr><td style="font-weight:bold;vertical-align:top;">session_file</td><td style="vertical-align:top;">:</td><td><div>&lt;open file &#x27;/opt/python/web2py-files/web2py/applications/proyect/sessions/059/09a/127.0.0.1-6c441933-a9ba-4bcf-995f-306005603452&#x27;, mode &#x27;rb+&#x27; at 0x7f5d5cb8ec90&gt;</div></td></tr><tr><td style="font-weight:bold;vertical-align:top;">session_filename</td><td style="vertical-align:top;">:</td><td><div>/opt/python/web2py-files/web2py/applications/proyect/sessions/127.0.0.1-6c441933-a9ba-4bcf-995f-306005603452</div></td></tr><tr><td style="font-weight:bold;vertical-align:top;">session_hash</td><td style="vertical-align:top;">:</td><td><div>6e28962a256e5c377910fb529512a7cd</div></td></tr><tr><td style="font-weight:bold;vertical-align:top;">session_id</td><td style="vertical-align:top;">:</td><td><div>127.0.0.1-6c441933-a9ba-4bcf-995f-306005603452</div></td></tr><tr><td style="font-weight:bold;vertical-align:top;">session_id_name</td><td style="vertical-align:top;">:</td><td><div>session_id_proyect</div></td></tr><tr><td style="font-weight:bold;vertical-align:top;">session_locked</td><td style="vertical-align:top;">:</td><td><div>True</div></td></tr><tr><td style="font-weight:bold;vertical-align:top;">session_masterapp</td><td style="vertical-align:top;">:</td><td><div>proyect</div></td></tr><tr><td style="font-weight:bold;vertical-align:top;">session_new</td><td style="vertical-align:top;">:</td><td><div>False</div></td></tr><tr><td style="font-weight:bold;vertical-align:top;">session_storage_type</td><td style="vertical-align:top;">:</td><td><div>file</div></td></tr><tr><td style="font-weight:bold;vertical-align:top;">status</td><td style="vertical-align:top;">:</td><td><div>200</div></td></tr><tr><td style="font-weight:bold;vertical-align:top;">view</td><td style="vertical-align:top;">:</td><td><div>estudiante/cuestionario_diagnostico.html</div></td></tr></table></div>'
tRp122
sS'locals'
p123
(dp124
S'Service'
p125
S"<class 'gluon.tools.Service'>"
p126
sS'OBJECT'
p127
S"<class 'gluon.html.OBJECT'>"
p128
sS'SQLDB'
p129
S"<class 'pydal.base.DAL'>"
p130
sg115
S"<Storage {'_auth_next': None, 'flash': None, 'au...gin]': ['a5ac98ab-0022-4b28-afa6-9f0b011e4409']}>"
p131
sS'LINK'
p132
S"<class 'gluon.html.LINK'>"
p133
sS'BR'
p134
S"<class 'gluon.html.BR'>"
p135
sS'local_import'
p136
S'<function <lambda>>'
p137
sS'OPTGROUP'
p138
S"<class 'gluon.html.OPTGROUP'>"
p139
sS'LI'
p140
S"<class 'gluon.html.LI'>"
p141
sS'PRE'
p142
S"<class 'gluon.html.PRE'>"
p143
sS'IS_INT_IN_RANGE'
p144
S"<class 'gluon.validators.IS_INT_IN_RANGE'>"
p145
sS'IS_LOWER'
p146
S"<class 'gluon.validators.IS_LOWER'>"
p147
sS'IS_STRONG'
p148
S"<class 'gluon.validators.IS_STRONG'>"
p149
sS'cache'
p150
S'<gluon.cache.Cache object>'
p151
sS'IS_IN_DB'
p152
S"<class 'gluon.validators.IS_IN_DB'>"
p153
sS'TAG'
p154
S'<gluon.html.__TAG__ object>'
p155
sS'SQLField'
p156
S"<class 'pydal.objects.Field'>"
p157
sS'mail'
p158
S'<gluon.tools.Mail object>'
p159
sS'BODY'
p160
S"<class 'gluon.html.BODY'>"
p161
sS'IS_DATE_IN_RANGE'
p162
S"<class 'gluon.validators.IS_DATE_IN_RANGE'>"
p163
sS'TH'
p164
S"<class 'gluon.html.TH'>"
p165
sS'URL'
p166
S'<function URL>'
p167
sS'__file__'
p168
S"'/opt/python/web2py-files/web2py/applications/proyect/models/db.py'"
p169
sS'db'
p170
S'<DAL uri="mongodb://localhost/proyect">'
p171
sS'auth'
p172
S'<gluon.tools.Auth object>'
p173
sS'P'
S"<class 'gluon.html.P'>"
p174
sS'TFOOT'
p175
S"<class 'gluon.html.TFOOT'>"
p176
sS'XHTML'
p177
S"<class 'gluon.html.XHTML'>"
p178
sS'ON'
p179
S'True'
p180
sS'OL'
p181
S"<class 'gluon.html.OL'>"
p182
sS'TEXTAREA'
p183
S"<class 'gluon.html.TEXTAREA'>"
p184
sS'MENU'
p185
S"<class 'gluon.html.MENU'>"
p186
sS'LOAD'
p187
S'<function LOAD>'
p188
sS'CODE'
p189
S"<class 'gluon.html.CODE'>"
p190
sS'HTTP'
p191
S"<class 'gluon.http.HTTP'>"
p192
sS'HR'
p193
S"<class 'gluon.html.HR'>"
p194
sS'IS_DATETIME'
p195
S"<class 'gluon.validators.IS_DATETIME'>"
p196
sS'HEAD'
p197
S"<class 'gluon.html.HEAD'>"
p198
sS'LABEL'
p199
S"<class 'gluon.html.LABEL'>"
p200
sS'CLEANUP'
p201
S"<class 'gluon.validators.CLEANUP'>"
p202
sS'plugins'
p203
S'<gluon.tools.PluginManager object>'
p204
sS'SELECT'
p205
S"<class 'gluon.html.SELECT'>"
p206
sS'__formato_ensayo'
p207
S'<function __formato_ensayo>'
p208
sS'CENTER'
p209
S"<class 'gluon.html.CENTER'>"
p210
sS'Auth'
p211
S"<class 'gluon.tools.Auth'>"
p212
sS'__builtins__'
p213
S"{'ArithmeticError': <type 'exceptions.ArithmeticError'>, 'AssertionError': <type 'exceptions.AssertionError'>, 'AttributeError': <type 'exceptions.AttributeError'>, 'BaseException': <type 'exceptions.BaseException'>, 'BufferError': <type 'exceptions.BufferError'>, 'BytesWarning': <type 'exceptions.BytesWarning'>, 'DeprecationWarning': <type 'exceptions.DeprecationWarning'>, 'EOFError': <type 'exceptions.EOFError'>, 'Ellipsis': Ellipsis, 'EnvironmentError': <type 'exceptions.EnvironmentError'>, ...}"
p214
sS'HTML'
p215
S"<class 'gluon.html.HTML'>"
p216
sS'SQLFORM'
p217
S"<class 'gluon.sqlhtml.SQLFORM'>"
p218
sS'EM'
p219
S"<class 'gluon.html.EM'>"
p220
sS'redirect'
p221
S'<function redirect>'
p222
sS'FIELDSET'
p223
S"<class 'gluon.html.FIELDSET'>"
p224
sS'IS_EQUAL_TO'
p225
S"<class 'gluon.validators.IS_EQUAL_TO'>"
p226
sS'desactivarDiagnostico'
p227
S'<function desactivarDiagnostico>'
p228
sS'embed64'
p229
S'<function embed64>'
p230
sS'IS_LIST_OF'
p231
S"<class 'gluon.validators.IS_LIST_OF'>"
p232
sS'__name__'
p233
S"'__restricted__'"
p234
sS'EMBED'
p235
S"<class 'gluon.html.EMBED'>"
p236
sS'FORM'
p237
S"<class 'gluon.html.FORM'>"
p238
sS'myconf'
p239
S"{'forms': {'formstyle': 'bootstrap3_inline', 'se...': {'names': 'localhost:*, 127.0.0.1:*, *:*, *'}}"
p240
sS'H2'
p241
S"<class 'gluon.html.H2'>"
p242
sS'H3'
p243
S"<class 'gluon.html.H3'>"
p244
sS'AppConfig'
p245
S'<function AppConfig>'
p246
sS'H1'
p247
S"<class 'gluon.html.H1'>"
p248
sS'H6'
p249
S"<class 'gluon.html.H6'>"
p250
sS'H4'
p251
S"<class 'gluon.html.H4'>"
p252
sS'H5'
p253
S"<class 'gluon.html.H5'>"
p254
sS'UL'
p255
S"<class 'gluon.html.UL'>"
p256
sS'IS_UPPER'
p257
S"<class 'gluon.validators.IS_UPPER'>"
p258
sS'xmlescape'
p259
S'<function xmlescape>'
p260
sS'IS_TIME'
p261
S"<class 'gluon.validators.IS_TIME'>"
p262
sS'OPTION'
p263
S"<class 'gluon.html.OPTION'>"
p264
sS'TITLE'
p265
S"<class 'gluon.html.TITLE'>"
p266
sS'CRYPT'
p267
S"<class 'gluon.validators.CRYPT'>"
p268
sS'IS_EMPTY_OR'
p269
S"<class 'gluon.validators.IS_EMPTY_OR'>"
p270
sS'MARKMIN'
p271
S"<class 'gluon.html.MARKMIN'>"
p272
sS'INPUT'
p273
S"<class 'gluon.html.INPUT'>"
p274
sS'STRONG'
p275
S"<class 'gluon.html.STRONG'>"
p276
sS'COL'
p277
S"<class 'gluon.html.COL'>"
p278
sS'service'
p279
S'<gluon.tools.Service object>'
p280
sS'SCRIPT'
p281
S"<class 'gluon.html.SCRIPT'>"
p282
sS'TABLE'
p283
S"<class 'gluon.html.TABLE'>"
p284
sS'IS_IPV4'
p285
S"<class 'gluon.validators.IS_IPV4'>"
p286
sS'IS_LENGTH'
p287
S"<class 'gluon.validators.IS_LENGTH'>"
p288
sS'IS_IPV6'
p289
S"<class 'gluon.validators.IS_IPV6'>"
p290
sS'XML'
p291
S"<class 'gluon.html.XML'>"
p292
sS'tipo_pregunta'
p293
S"{'0': <lazyT 'Orientaci\xc3\xb3n'>, '1': <lazyT 'D\xc3\xadgitos en progresi\xc3\xb3n'>, '2': <lazyT 'D\xc3\xadgitos en regresi\xc3\xb3n'>, '3': <lazyT 'Cubos en progresi\xc3\xb3n'>, '4': <lazyT 'Detecci\xc3\xb3n visual'>, '5': <lazyT 'Detecci\xc3\xb3n de d\xc3\xadgitos'>, '6': <lazyT 'Series sucesivas'>}"
p294
sS'B'
S"<class 'gluon.html.B'>"
p295
sS'IMG'
p296
S"<class 'gluon.html.IMG'>"
p297
sS'SQLTABLE'
p298
S"<class 'gluon.sqlhtml.SQLTABLE'>"
p299
sS'IS_MATCH'
p300
S"<class 'gluon.validators.IS_MATCH'>"
p301
sS'__evaluar_pregunta'
p302
S'<function __evaluar_pregunta>'
p303
sS'IS_ALPHANUMERIC'
p304
S"<class 'gluon.validators.IS_ALPHANUMERIC'>"
p305
sS'SPAN'
p306
S"<class 'gluon.html.SPAN'>"
p307
sS'IS_JSON'
p308
S"<class 'gluon.validators.IS_JSON'>"
p309
sS'IS_IPADDRESS'
p310
S"<class 'gluon.validators.IS_IPADDRESS'>"
p311
sS'IS_SLUG'
p312
S"<class 'gluon.validators.IS_SLUG'>"
p313
sS'BEAUTIFY'
p314
S"<class 'gluon.html.BEAUTIFY'>"
p315
sS'META'
p316
S"<class 'gluon.html.META'>"
p317
sS'tipo_diagnostico'
p318
S"{'0': <lazyT 'Inicial'>, '1': <lazyT 'Atenci\xc3\xb3n Enfocada'>, '2': <lazyT 'Atenci\xc3\xb3n Sostenida'>, '3': <lazyT 'Atenci\xc3\xb3n Selectiva'>, '4': <lazyT 'Atenci\xc3\xb3n Alternada'>, '5': <lazyT 'Atenci\xc3\xb3n Dividida'>}"
p319
sS'BUTTON'
p320
S"<class 'gluon.html.BUTTON'>"
p321
sS'IS_DATE'
p322
S"<class 'gluon.validators.IS_DATE'>"
p323
sS'IS_EMAIL'
p324
S"<class 'gluon.validators.IS_EMAIL'>"
p325
sS'IS_NOT_EMPTY'
p326
S"<class 'gluon.validators.IS_NOT_EMPTY'>"
p327
sS'IS_FLOAT_IN_RANGE'
p328
S"<class 'gluon.validators.IS_FLOAT_IN_RANGE'>"
p329
sS'TBODY'
p330
S"<class 'gluon.html.TBODY'>"
p331
sS'CAT'
p332
S"<class 'gluon.html.CAT'>"
p333
sS'Field'
p334
S"<class 'pydal.objects.Field'>"
p335
sS'IS_LIST_OF_EMAILS'
p336
S"<class 'gluon.validators.IS_LIST_OF_EMAILS'>"
p337
sS'DIV'
p338
S"<class 'gluon.html.DIV'>"
p339
sS'LEGEND'
p340
S"<class 'gluon.html.LEGEND'>"
p341
sS'COLGROUP'
p342
S"<class 'gluon.html.COLGROUP'>"
p343
sS'DAL'
p344
S"<class 'pydal.base.DAL'>"
p345
sS'ASSIGNJS'
p346
S'<function ASSIGNJS>'
p347
sS'TR'
p348
S"<class 'gluon.html.TR'>"
p349
sS'__package__'
p350
S'None'
p351
sS'IFRAME'
p352
S"<class 'gluon.html.IFRAME'>"
p353
sS'TD'
p354
S"<class 'gluon.html.TD'>"
p355
sS'PluginManager'
p356
S"<class 'gluon.tools.PluginManager'>"
p357
sS'IS_URL'
p358
S"<class 'gluon.validators.IS_URL'>"
p359
sS'A'
S"<class 'gluon.html.A'>"
p360
sS'STYLE'
p361
S"<class 'gluon.html.STYLE'>"
p362
sS'IS_DATETIME_IN_RANGE'
p363
S"<class 'gluon.validators.IS_DATETIME_IN_RANGE'>"
p364
sS'IS_IMAGE'
p365
S"<class 'gluon.validators.IS_IMAGE'>"
p366
sS'I'
S"<class 'gluon.html.I'>"
p367
sS'IS_NOT_IN_DB'
p368
S"<class 'gluon.validators.IS_NOT_IN_DB'>"
p369
sg121
S"<Storage {'body': <cStringIO.StringO object at 0...ew': 'estudiante/cuestionario_diagnostico.html'}>"
p370
sS'THEAD'
p371
S"<class 'gluon.html.THEAD'>"
p372
sS'ANY_OF'
p373
S"<class 'gluon.validators.ANY_OF'>"
p374
sS'IS_NULL_OR'
p375
S"<class 'gluon.validators.IS_EMPTY_OR'>"
p376
sg56
S"<Storage {'_vars': None, 'function': 'cuestionar...thon/web2py-files/web2py/applications/proyect/'}>"
p377
sS'IS_EXPR'
p378
S"<class 'gluon.validators.IS_EXPR'>"
p379
sS'IS_IN_SET'
p380
S"<class 'gluon.validators.IS_IN_SET'>"
p381
sS'IS_UPLOAD_FILENAME'
p382
S"<class 'gluon.validators.IS_UPLOAD_FILENAME'>"
p383
sS'IS_DECIMAL_IN_RANGE'
p384
S"<class 'gluon.validators.IS_DECIMAL_IN_RANGE'>"
p385
sS'TT'
p386
S"<class 'gluon.html.TT'>"
p387
sS'T'
S'<gluon.languages.translator object>'
p388
sssS'traceback'
p389
S'Traceback (most recent call last):\n  File "/opt/python/web2py-files/web2py/gluon/restricted.py", line 227, in restricted\n    exec ccode in environment\n  File "/opt/python/web2py-files/web2py/applications/proyect/models/db.py", line 267, in <module>\n    db.respuesta.diagnostico.requires = IS_IN_SET(tipo_diagnostico, zero=T(\'Choose one\'), error_message=T(\'Choose one\'))\nAttributeError: \'Table\' object has no attribute \'diagnostico\'\n'
p390
s.