(dp1
S'output'
p2
S"<type 'exceptions.NameError'> name 'news' is not defined"
p3
sS'layer'
p4
S'/opt/python/web2py-files/web2py/applications/atencion/views/component/show_carousel.load'
p5
sS'code'
p6
S'if banners:\n    response.write(\'\\n    <div class="container">\\n        <div class="row">\\n            <div class="col-md-12">\\n                <div id="carousel-generic" class="carousel slide" data-ride="carousel">\\n\\n                    <!-- Wrapper for slides -->\\n                    <div class="carousel-inner" role="listbox">\\n                        \', escape=False)\n    var = "active"\n    response.write(\'\\n                        \', escape=False)\n    for i in xrange(0, len(banners)):\n        response.write(\'\\n\\n                            \', escape=False)\n        response.write(DIV(CAT(IMG(_src=URL(\'default\',\'download\', args=[news[i].image]), _width="100%"), DIV(news[i].title, _class="carousel-caption")),_class="item "+var))\n        response.write(\'\\n\\n                        \', escape=False)\n        var = ""\n        response.write(\'\\n                        \', escape=False)\n        pass\n    response.write(\'\\n                    </div>\\n\\n                </div>\\n                <hr />\\n            </div>\\n        </div>\\n    </div>\\n\', escape=False)\nelse:\n    response.write(\'\\n    <h2>No hay banner</h2>\\n\', escape=False)\n    pass'
p7
sS'snapshot'
p8
(dp9
S'exception'
p10
(dp11
S'__hash__'
p12
S"<method-wrapper '__hash__' of exceptions.NameError object>"
p13
sS'__setattr__'
p14
S"<method-wrapper '__setattr__' of exceptions.NameError object>"
p15
sS'__reduce_ex__'
p16
S'<built-in method __reduce_ex__ of exceptions.NameError object>'
p17
sS'__getslice__'
p18
S"<method-wrapper '__getslice__' of exceptions.NameError object>"
p19
sS'__getitem__'
p20
S"<method-wrapper '__getitem__' of exceptions.NameError object>"
p21
sS'__setstate__'
p22
S'<built-in method __setstate__ of exceptions.NameError object>'
p23
sS'args'
p24
S'("name \'news\' is not defined",)'
p25
sS'__reduce__'
p26
S'<built-in method __reduce__ of exceptions.NameError object>'
p27
sS'__str__'
p28
S"<method-wrapper '__str__' of exceptions.NameError object>"
p29
sS'__format__'
p30
S'<built-in method __format__ of exceptions.NameError object>'
p31
sS'__getattribute__'
p32
S"<method-wrapper '__getattribute__' of exceptions.NameError object>"
p33
sS'__class__'
p34
S"<type 'exceptions.NameError'>"
p35
sS'__unicode__'
p36
S'<built-in method __unicode__ of exceptions.NameError object>'
p37
sS'__delattr__'
p38
S"<method-wrapper '__delattr__' of exceptions.NameError object>"
p39
sS'__subclasshook__'
p40
S'<built-in method __subclasshook__ of type object>'
p41
sS'__repr__'
p42
S"<method-wrapper '__repr__' of exceptions.NameError object>"
p43
sS'__dict__'
p44
S'{}'
p45
sS'__sizeof__'
p46
S'<built-in method __sizeof__ of exceptions.NameError object>'
p47
sS'__doc__'
p48
S"'Name not found globally.'"
p49
sS'__init__'
p50
S"<method-wrapper '__init__' of exceptions.NameError object>"
p51
sS'__new__'
p52
S'<built-in method __new__ of type object>'
p53
ssS'evalue'
p54
S"name 'news' is not defined"
p55
sS'request'
p56
cgluon.html
XML_unpickle
p57
(S's \x86\x00\x00<div><table><tr><td style="font-weight:bold;vertical-align:top;">ajax</td><td style="vertical-align:top;">:</td><td><div>False</div></td></tr><tr><td style="font-weight:bold;vertical-align:top;">application</td><td style="vertical-align:top;">:</td><td><div>atencion</div></td></tr><tr><td style="font-weight:bold;vertical-align:top;">args</td><td style="vertical-align:top;">:</td><td><div><table></table></div></td></tr><tr><td style="font-weight:bold;vertical-align:top;">cid</td><td style="vertical-align:top;">:</td><td><div>c380397309181</div></td></tr><tr><td style="font-weight:bold;vertical-align:top;">client</td><td style="vertical-align:top;">:</td><td><div>127.0.0.1</div></td></tr><tr><td style="font-weight:bold;vertical-align:top;">controller</td><td style="vertical-align:top;">:</td><td><div>component</div></td></tr><tr><td style="font-weight:bold;vertical-align:top;">cookies</td><td style="vertical-align:top;">:</td><td><div><table><tr><td style="font-weight:bold;vertical-align:top;">session_id_admin</td><td style="vertical-align:top;">:</td><td><div>127.0.0.1-6fb4d08b-f744-4cbd-b76d-a776133b9e7c<table><tr><td style="font-weight:bold;vertical-align:top;">comment</td><td style="vertical-align:top;">:</td><td><div></div></td></tr><tr><td style="font-weight:bold;vertical-align:top;">domain</td><td style="vertical-align:top;">:</td><td><div></div></td></tr><tr><td style="font-weight:bold;vertical-align:top;">expires</td><td style="vertical-align:top;">:</td><td><div></div></td></tr><tr><td style="font-weight:bold;vertical-align:top;">httponly</td><td style="vertical-align:top;">:</td><td><div></div></td></tr><tr><td style="font-weight:bold;vertical-align:top;">max-age</td><td style="vertical-align:top;">:</td><td><div></div></td></tr><tr><td style="font-weight:bold;vertical-align:top;">path</td><td style="vertical-align:top;">:</td><td><div></div></td></tr><tr><td style="font-weight:bold;vertical-align:top;">secure</td><td style="vertical-align:top;">:</td><td><div></div></td></tr><tr><td style="font-weight:bold;vertical-align:top;">version</td><td style="vertical-align:top;">:</td><td><div></div></td></tr></table></div></td></tr><tr><td style="font-weight:bold;vertical-align:top;">session_id_atencion</td><td style="vertical-align:top;">:</td><td><div>127.0.0.1-966854c0-e664-44cc-a3bc-a960a2c08e7d<table><tr><td style="font-weight:bold;vertical-align:top;">comment</td><td style="vertical-align:top;">:</td><td><div></div></td></tr><tr><td style="font-weight:bold;vertical-align:top;">domain</td><td style="vertical-align:top;">:</td><td><div></div></td></tr><tr><td style="font-weight:bold;vertical-align:top;">expires</td><td style="vertical-align:top;">:</td><td><div></div></td></tr><tr><td style="font-weight:bold;vertical-align:top;">httponly</td><td style="vertical-align:top;">:</td><td><div></div></td></tr><tr><td style="font-weight:bold;vertical-align:top;">max-age</td><td style="vertical-align:top;">:</td><td><div></div></td></tr><tr><td style="font-weight:bold;vertical-align:top;">path</td><td style="vertical-align:top;">:</td><td><div></div></td></tr><tr><td style="font-weight:bold;vertical-align:top;">secure</td><td style="vertical-align:top;">:</td><td><div></div></td></tr><tr><td style="font-weight:bold;vertical-align:top;">version</td><td style="vertical-align:top;">:</td><td><div></div></td></tr></table></div></td></tr></table></div></td></tr><tr><td style="font-weight:bold;vertical-align:top;">env</td><td style="vertical-align:top;">:</td><td><div><table><tr><td style="font-weight:bold;vertical-align:top;">HTTP_ACCEPT</td><td style="vertical-align:top;">:</td><td><div>text/html,application/xhtml+xml,application/xml;q=0.9,image/webp,*/*;q=0.8</div></td></tr><tr><td style="font-weight:bold;vertical-align:top;">HTTP_ACCEPT_ENCODING</td><td style="vertical-align:top;">:</td><td><div>gzip, deflate, sdch, br</div></td></tr><tr><td style="font-weight:bold;vertical-align:top;">HTTP_ACCEPT_LANGUAGE</td><td style="vertical-align:top;">:</td><td><div>es-ES,es;q=0.8</div></td></tr><tr><td style="font-weight:bold;vertical-align:top;">HTTP_CACHE_CONTROL</td><td style="vertical-align:top;">:</td><td><div>max-age=0</div></td></tr><tr><td style="font-weight:bold;vertical-align:top;">HTTP_CONNECTION</td><td style="vertical-align:top;">:</td><td><div>keep-alive</div></td></tr><tr><td style="font-weight:bold;vertical-align:top;">HTTP_COOKIE</td><td style="vertical-align:top;">:</td><td><div>session_id_admin=127.0.0.1-6fb4d08b-f744-4cbd-b76d-a776133b9e7c; session_id_atencion=127.0.0.1-966854c0-e664-44cc-a3bc-a960a2c08e7d</div></td></tr><tr><td style="font-weight:bold;vertical-align:top;">HTTP_HOST</td><td style="vertical-align:top;">:</td><td><div>localhost:8000</div></td></tr><tr><td style="font-weight:bold;vertical-align:top;">HTTP_REFERER</td><td style="vertical-align:top;">:</td><td><div>http://localhost:8000/atencion/admin/banners/banner?_signature=3c655dd8b722e4e420a5ef2ff5462188589ebfb1</div></td></tr><tr><td style="font-weight:bold;vertical-align:top;">HTTP_UPGRADE_INSECURE_REQUESTS</td><td style="vertical-align:top;">:</td><td><div>1</div></td></tr><tr><td style="font-weight:bold;vertical-align:top;">HTTP_USER_AGENT</td><td style="vertical-align:top;">:</td><td><div>Mozilla/5.0 (X11; Linux x86_64) AppleWebKit/537.36 (KHTML, like Gecko) Ubuntu Chromium/55.0.2883.87 Chrome/55.0.2883.87 Safari/537.36</div></td></tr><tr><td style="font-weight:bold;vertical-align:top;">PATH_INFO</td><td style="vertical-align:top;">:</td><td><div>/atencion/default/index</div></td></tr><tr><td style="font-weight:bold;vertical-align:top;">QUERY_STRING</td><td style="vertical-align:top;">:</td><td><div></div></td></tr><tr><td style="font-weight:bold;vertical-align:top;">REMOTE_ADDR</td><td style="vertical-align:top;">:</td><td><div>127.0.0.1</div></td></tr><tr><td style="font-weight:bold;vertical-align:top;">REMOTE_PORT</td><td style="vertical-align:top;">:</td><td><div>55216</div></td></tr><tr><td style="font-weight:bold;vertical-align:top;">REQUEST_METHOD</td><td style="vertical-align:top;">:</td><td><div>GET</div></td></tr><tr><td style="font-weight:bold;vertical-align:top;">SCRIPT_NAME</td><td style="vertical-align:top;">:</td><td><div></div></td></tr><tr><td style="font-weight:bold;vertical-align:top;">SERVER_NAME</td><td style="vertical-align:top;">:</td><td><div>yasmany-tp500lab</div></td></tr><tr><td style="font-weight:bold;vertical-align:top;">SERVER_PORT</td><td style="vertical-align:top;">:</td><td><div>8000</div></td></tr><tr><td style="font-weight:bold;vertical-align:top;">SERVER_PROTOCOL</td><td style="vertical-align:top;">:</td><td><div>HTTP/1.1</div></td></tr><tr><td style="font-weight:bold;vertical-align:top;">SERVER_SOFTWARE</td><td style="vertical-align:top;">:</td><td><div>Rocket 1.2.6</div></td></tr><tr><td style="font-weight:bold;vertical-align:top;">app_folders</td><td style="vertical-align:top;">:</td><td><div>set([&#x27;/opt/python/web2py-files/web2py/applications/observatorio/&#x27;, &#x27;/opt/python/web2py-files/web2py/applications/admin/&#x27;, &#x27;/opt/python/web2py-files/web2py/applications/atencion/&#x27;, &#x27;/opt/python/web2py-files/web2py/applications/welcome/&#x27;])</div></td></tr><tr><td style="font-weight:bold;vertical-align:top;">applications_parent</td><td style="vertical-align:top;">:</td><td><div>/opt/python/web2py-files/web2py</div></td></tr><tr><td style="font-weight:bold;vertical-align:top;">cmd_args</td><td style="vertical-align:top;">:</td><td><div><table></table></div></td></tr><tr><td style="font-weight:bold;vertical-align:top;">cmd_options</td><td style="vertical-align:top;">:</td><td><div>&lt;Values at 0x7f91dd927ef0: {&#x27;verbose&#x27;: False, &#x27;ip&#x27;: &#x27;127.0.0.1&#x27;, &#x27;debuglevel&#x27;: 30, &#x27;with_scheduler&#x27;: False, &#x27;shutdown_timeout&#x27;: 5, &#x27;taskbar&#x27;: False, &#x27;with_coverage&#x27;: False, &#x27;pid_filename&#x27;: &#x27;httpserver.pid&#x27;, &#x27;maxthreads&#x27;: None, &#x27;softcron&#x27;: False, &#x27;server_name&#x27;: &#x27;yasmany-tp500lab&#x27;, &#x27;bpython&#x27;: False, &#x27;nogui&#x27;: False, &#x27;port&#x27;: 8000, &#x27;print_errors&#x27;: False, &#x27;extcron&#x27;: False, &#x27;runcron&#x27;: False, &#x27;run_system_tests&#x27;: False, &#x27;test&#x27;: None, &#x27;folder&#x27;: &#x27;/opt/python/web2py-files/web2py&#x27;, &#x27;config&#x27;: &#x27;&#x27;, &#x27;minthreads&#x27;: None, &#x27;shell&#x27;: None, &#x27;run&#x27;: &#x27;&#x27;, &#x27;log_filename&#x27;: &#x27;httpserver.log&#x27;, &#x27;profiler_dir&#x27;: None, &#x27;args&#x27;: [&#x27;&#x27;], &#x27;socket_timeout&#x27;: 5, &#x27;ssl_ca_certificate&#x27;: None, &#x27;scheduler&#x27;: None, &#x27;interfaces&#x27;: None, &#x27;ssl_private_key&#x27;: &#x27;&#x27;, &#x27;gae&#x27;: None, &#x27;password&#x27;: &#x27;******&#x27;, &#x27;request_queue_size&#x27;: 5, &#x27;ssl_certificate&#x27;: &#x27;&#x27;, &#x27;cronjob&#x27;: False, &#x27;numthreads&#x27;: None, &#x27;quiet&#x27;: False, &#x27;import_models&#x27;: False, &#x27;timeout&#x27;: 10, &#x27;plain&#x27;: False, &#x27;nobanner&#x27;: False}&gt;</div></td></tr><tr><td style="font-weight:bold;vertical-align:top;">db_sessions</td><td style="vertical-align:top;">:</td><td><div>set([&#x27;observatorio&#x27;])</div></td></tr><tr><td style="font-weight:bold;vertical-align:top;">debugging</td><td style="vertical-align:top;">:</td><td><div>False</div></td></tr><tr><td style="font-weight:bold;vertical-align:top;">gluon_parent</td><td style="vertical-align:top;">:</td><td><div>/opt/python/web2py-files/web2py</div></td></tr><tr><td style="font-weight:bold;vertical-align:top;">http_accept</td><td style="vertical-align:top;">:</td><td><div>text/html,application/xhtml+xml,application/xml;q=0.9,image/webp,*/*;q=0.8</div></td></tr><tr><td style="font-weight:bold;vertical-align:top;">http_accept_encoding</td><td style="vertical-align:top;">:</td><td><div>gzip, deflate, sdch, br</div></td></tr><tr><td style="font-weight:bold;vertical-align:top;">http_accept_language</td><td style="vertical-align:top;">:</td><td><div>es-ES,es;q=0.8</div></td></tr><tr><td style="font-weight:bold;vertical-align:top;">http_cache_control</td><td style="vertical-align:top;">:</td><td><div>max-age=0</div></td></tr><tr><td style="font-weight:bold;vertical-align:top;">http_connection</td><td style="vertical-align:top;">:</td><td><div>keep-alive</div></td></tr><tr><td style="font-weight:bold;vertical-align:top;">http_cookie</td><td style="vertical-align:top;">:</td><td><div>session_id_admin=127.0.0.1-6fb4d08b-f744-4cbd-b76d-a776133b9e7c; session_id_atencion=127.0.0.1-966854c0-e664-44cc-a3bc-a960a2c08e7d</div></td></tr><tr><td style="font-weight:bold;vertical-align:top;">http_host</td><td style="vertical-align:top;">:</td><td><div>localhost:8000</div></td></tr><tr><td style="font-weight:bold;vertical-align:top;">http_referer</td><td style="vertical-align:top;">:</td><td><div>http://localhost:8000/atencion/admin/banners/banner?_signature=3c655dd8b722e4e420a5ef2ff5462188589ebfb1</div></td></tr><tr><td style="font-weight:bold;vertical-align:top;">http_upgrade_insecure_requests</td><td style="vertical-align:top;">:</td><td><div>1</div></td></tr><tr><td style="font-weight:bold;vertical-align:top;">http_user_agent</td><td style="vertical-align:top;">:</td><td><div>Mozilla/5.0 (X11; Linux x86_64) AppleWebKit/537.36 (KHTML, like Gecko) Ubuntu Chromium/55.0.2883.87 Chrome/55.0.2883.87 Safari/537.36</div></td></tr><tr><td style="font-weight:bold;vertical-align:top;">http_web2py_component_element</td><td style="vertical-align:top;">:</td><td><div>c380397309181</div></td></tr><tr><td style="font-weight:bold;vertical-align:top;">http_web2py_component_location</td><td style="vertical-align:top;">:</td><td><div>/atencion/default/index</div></td></tr><tr><td style="font-weight:bold;vertical-align:top;">is_jython</td><td style="vertical-align:top;">:</td><td><div>False</div></td></tr><tr><td style="font-weight:bold;vertical-align:top;">is_pypy</td><td style="vertical-align:top;">:</td><td><div>False</div></td></tr><tr><td style="font-weight:bold;vertical-align:top;">is_source</td><td style="vertical-align:top;">:</td><td><div>True</div></td></tr><tr><td style="font-weight:bold;vertical-align:top;">local_hosts</td><td style="vertical-align:top;">:</td><td><div><table><tr><td><div>yasmany-tp500lab</div></td></tr><tr><td><div>127.0.1.1</div></td></tr><tr><td><div>::ffff:127.0.0.1</div></td></tr><tr><td><div>::1</div></td></tr><tr><td><div>yasmany-TP500LAB</div></td></tr><tr><td><div>127.0.0.1</div></td></tr></table></div></td></tr><tr><td style="font-weight:bold;vertical-align:top;">path_info</td><td style="vertical-align:top;">:</td><td><div>/atencion/component/show_carousel</div></td></tr><tr><td style="font-weight:bold;vertical-align:top;">query_string</td><td style="vertical-align:top;">:</td><td><div></div></td></tr><tr><td style="font-weight:bold;vertical-align:top;">remote_addr</td><td style="vertical-align:top;">:</td><td><div>127.0.0.1</div></td></tr><tr><td style="font-weight:bold;vertical-align:top;">remote_port</td><td style="vertical-align:top;">:</td><td><div>55216</div></td></tr><tr><td style="font-weight:bold;vertical-align:top;">request_method</td><td style="vertical-align:top;">:</td><td><div>GET</div></td></tr><tr><td style="font-weight:bold;vertical-align:top;">request_uri</td><td style="vertical-align:top;">:</td><td><div>/atencion/default/index</div></td></tr><tr><td style="font-weight:bold;vertical-align:top;">script_name</td><td style="vertical-align:top;">:</td><td><div></div></td></tr><tr><td style="font-weight:bold;vertical-align:top;">server_name</td><td style="vertical-align:top;">:</td><td><div>yasmany-tp500lab</div></td></tr><tr><td style="font-weight:bold;vertical-align:top;">server_port</td><td style="vertical-align:top;">:</td><td><div>8000</div></td></tr><tr><td style="font-weight:bold;vertical-align:top;">server_protocol</td><td style="vertical-align:top;">:</td><td><div>HTTP/1.1</div></td></tr><tr><td style="font-weight:bold;vertical-align:top;">server_software</td><td style="vertical-align:top;">:</td><td><div>Rocket 1.2.6</div></td></tr><tr><td style="font-weight:bold;vertical-align:top;">web2py_path</td><td style="vertical-align:top;">:</td><td><div>/opt/python/web2py-files/web2py</div></td></tr><tr><td style="font-weight:bold;vertical-align:top;">web2py_version</td><td style="vertical-align:top;">:</td><td><div>2.14.6-stable+timestamp.2016.05.10.00.21.47</div></td></tr><tr><td style="font-weight:bold;vertical-align:top;">wsgi.errors</td><td style="vertical-align:top;">:</td><td><div>&lt;open file &#x27;&lt;stderr&gt;&#x27;, mode &#x27;w&#x27; at 0x7f91e207b1e0&gt;</div></td></tr><tr><td style="font-weight:bold;vertical-align:top;">wsgi.file_wrapper</td><td style="vertical-align:top;">:</td><td><div>&lt;class wsgiref.util.FileWrapper at 0x7f91dd970390&gt;</div></td></tr><tr><td style="font-weight:bold;vertical-align:top;">wsgi.input</td><td style="vertical-align:top;">:</td><td><div>&lt;socket._fileobject object at 0x7f91a3330ad0&gt;</div></td></tr><tr><td style="font-weight:bold;vertical-align:top;">wsgi.multiprocess</td><td style="vertical-align:top;">:</td><td><div>False</div></td></tr><tr><td style="font-weight:bold;vertical-align:top;">wsgi.multithread</td><td style="vertical-align:top;">:</td><td><div>True</div></td></tr><tr><td style="font-weight:bold;vertical-align:top;">wsgi.run_once</td><td style="vertical-align:top;">:</td><td><div>False</div></td></tr><tr><td style="font-weight:bold;vertical-align:top;">wsgi.url_scheme</td><td style="vertical-align:top;">:</td><td><div>http</div></td></tr><tr><td style="font-weight:bold;vertical-align:top;">wsgi.version</td><td style="vertical-align:top;">:</td><td><div><table><tr><td><div>1</div></td></tr><tr><td><div>0</div></td></tr></table></div></td></tr><tr><td style="font-weight:bold;vertical-align:top;">wsgi_errors</td><td style="vertical-align:top;">:</td><td><div>&lt;open file &#x27;&lt;stderr&gt;&#x27;, mode &#x27;w&#x27; at 0x7f91e207b1e0&gt;</div></td></tr><tr><td style="font-weight:bold;vertical-align:top;">wsgi_file_wrapper</td><td style="vertical-align:top;">:</td><td><div>&lt;class wsgiref.util.FileWrapper at 0x7f91dd970390&gt;</div></td></tr><tr><td style="font-weight:bold;vertical-align:top;">wsgi_input</td><td style="vertical-align:top;">:</td><td><div>&lt;socket._fileobject object at 0x7f91a3330ad0&gt;</div></td></tr><tr><td style="font-weight:bold;vertical-align:top;">wsgi_multiprocess</td><td style="vertical-align:top;">:</td><td><div>False</div></td></tr><tr><td style="font-weight:bold;vertical-align:top;">wsgi_multithread</td><td style="vertical-align:top;">:</td><td><div>True</div></td></tr><tr><td style="font-weight:bold;vertical-align:top;">wsgi_run_once</td><td style="vertical-align:top;">:</td><td><div>False</div></td></tr><tr><td style="font-weight:bold;vertical-align:top;">wsgi_url_scheme</td><td style="vertical-align:top;">:</td><td><div>http</div></td></tr><tr><td style="font-weight:bold;vertical-align:top;">wsgi_version</td><td style="vertical-align:top;">:</td><td><div><table><tr><td><div>1</div></td></tr><tr><td><div>0</div></td></tr></table></div></td></tr></table></div></td></tr><tr><td style="font-weight:bold;vertical-align:top;">extension</td><td style="vertical-align:top;">:</td><td><div>load</div></td></tr><tr><td style="font-weight:bold;vertical-align:top;">folder</td><td style="vertical-align:top;">:</td><td><div>/opt/python/web2py-files/web2py/applications/atencion/</div></td></tr><tr><td style="font-weight:bold;vertical-align:top;">function</td><td style="vertical-align:top;">:</td><td><div>show_carousel</div></td></tr><tr><td style="font-weight:bold;vertical-align:top;">get_vars</td><td style="vertical-align:top;">:</td><td><div><table></table></div></td></tr><tr><td style="font-weight:bold;vertical-align:top;">global_settings</td><td style="vertical-align:top;">:</td><td><div><table><tr><td style="font-weight:bold;vertical-align:top;">app_folders</td><td style="vertical-align:top;">:</td><td><div>set([&#x27;/opt/python/web2py-files/web2py/applications/observatorio/&#x27;, &#x27;/opt/python/web2py-files/web2py/applications/admin/&#x27;, &#x27;/opt/python/web2py-files/web2py/applications/atencion/&#x27;, &#x27;/opt/python/web2py-files/web2py/applications/welcome/&#x27;])</div></td></tr><tr><td style="font-weight:bold;vertical-align:top;">applications_parent</td><td style="vertical-align:top;">:</td><td><div>/opt/python/web2py-files/web2py</div></td></tr><tr><td style="font-weight:bold;vertical-align:top;">cmd_args</td><td style="vertical-align:top;">:</td><td><div><table></table></div></td></tr><tr><td style="font-weight:bold;vertical-align:top;">cmd_options</td><td style="vertical-align:top;">:</td><td><div>&lt;Values at 0x7f91dd927ef0: {&#x27;verbose&#x27;: False, &#x27;ip&#x27;: &#x27;127.0.0.1&#x27;, &#x27;debuglevel&#x27;: 30, &#x27;with_scheduler&#x27;: False, &#x27;shutdown_timeout&#x27;: 5, &#x27;taskbar&#x27;: False, &#x27;with_coverage&#x27;: False, &#x27;pid_filename&#x27;: &#x27;httpserver.pid&#x27;, &#x27;maxthreads&#x27;: None, &#x27;softcron&#x27;: False, &#x27;server_name&#x27;: &#x27;yasmany-tp500lab&#x27;, &#x27;bpython&#x27;: False, &#x27;nogui&#x27;: False, &#x27;port&#x27;: 8000, &#x27;print_errors&#x27;: False, &#x27;extcron&#x27;: False, &#x27;runcron&#x27;: False, &#x27;run_system_tests&#x27;: False, &#x27;test&#x27;: None, &#x27;folder&#x27;: &#x27;/opt/python/web2py-files/web2py&#x27;, &#x27;config&#x27;: &#x27;&#x27;, &#x27;minthreads&#x27;: None, &#x27;shell&#x27;: None, &#x27;run&#x27;: &#x27;&#x27;, &#x27;log_filename&#x27;: &#x27;httpserver.log&#x27;, &#x27;profiler_dir&#x27;: None, &#x27;args&#x27;: [&#x27;&#x27;], &#x27;socket_timeout&#x27;: 5, &#x27;ssl_ca_certificate&#x27;: None, &#x27;scheduler&#x27;: None, &#x27;interfaces&#x27;: None, &#x27;ssl_private_key&#x27;: &#x27;&#x27;, &#x27;gae&#x27;: None, &#x27;password&#x27;: &#x27;******&#x27;, &#x27;request_queue_size&#x27;: 5, &#x27;ssl_certificate&#x27;: &#x27;&#x27;, &#x27;cronjob&#x27;: False, &#x27;numthreads&#x27;: None, &#x27;quiet&#x27;: False, &#x27;import_models&#x27;: False, &#x27;timeout&#x27;: 10, &#x27;plain&#x27;: False, &#x27;nobanner&#x27;: False}&gt;</div></td></tr><tr><td style="font-weight:bold;vertical-align:top;">db_sessions</td><td style="vertical-align:top;">:</td><td><div>set([&#x27;observatorio&#x27;])</div></td></tr><tr><td style="font-weight:bold;vertical-align:top;">debugging</td><td style="vertical-align:top;">:</td><td><div>False</div></td></tr><tr><td style="font-weight:bold;vertical-align:top;">gluon_parent</td><td style="vertical-align:top;">:</td><td><div>/opt/python/web2py-files/web2py</div></td></tr><tr><td style="font-weight:bold;vertical-align:top;">is_jython</td><td style="vertical-align:top;">:</td><td><div>False</div></td></tr><tr><td style="font-weight:bold;vertical-align:top;">is_pypy</td><td style="vertical-align:top;">:</td><td><div>False</div></td></tr><tr><td style="font-weight:bold;vertical-align:top;">is_source</td><td style="vertical-align:top;">:</td><td><div>True</div></td></tr><tr><td style="font-weight:bold;vertical-align:top;">local_hosts</td><td style="vertical-align:top;">:</td><td><div><table><tr><td><div>yasmany-tp500lab</div></td></tr><tr><td><div>127.0.1.1</div></td></tr><tr><td><div>::ffff:127.0.0.1</div></td></tr><tr><td><div>::1</div></td></tr><tr><td><div>yasmany-TP500LAB</div></td></tr><tr><td><div>127.0.0.1</div></td></tr></table></div></td></tr><tr><td style="font-weight:bold;vertical-align:top;">web2py_version</td><td style="vertical-align:top;">:</td><td><div>2.14.6-stable+timestamp.2016.05.10.00.21.47</div></td></tr></table></div></td></tr><tr><td style="font-weight:bold;vertical-align:top;">is_https</td><td style="vertical-align:top;">:</td><td><div>False</div></td></tr><tr><td style="font-weight:bold;vertical-align:top;">is_local</td><td style="vertical-align:top;">:</td><td><div>True</div></td></tr><tr><td style="font-weight:bold;vertical-align:top;">is_restful</td><td style="vertical-align:top;">:</td><td><div>False</div></td></tr><tr><td style="font-weight:bold;vertical-align:top;">is_scheduler</td><td style="vertical-align:top;">:</td><td><div>False</div></td></tr><tr><td style="font-weight:bold;vertical-align:top;">is_shell</td><td style="vertical-align:top;">:</td><td><div>False</div></td></tr><tr><td style="font-weight:bold;vertical-align:top;">now</td><td style="vertical-align:top;">:</td><td><div>datetime.datetime(2017, 1, 7, 13, 18, 27, 827372)</div></td></tr><tr><td style="font-weight:bold;vertical-align:top;">post_vars</td><td style="vertical-align:top;">:</td><td><div><table></table></div></td></tr><tr><td style="font-weight:bold;vertical-align:top;">raw_args</td><td style="vertical-align:top;">:</td><td><div></div></td></tr><tr><td style="font-weight:bold;vertical-align:top;">raw_extension</td><td style="vertical-align:top;">:</td><td><div>None</div></td></tr><tr><td style="font-weight:bold;vertical-align:top;">restful</td><td style="vertical-align:top;">:</td><td><div>&lt;bound method ?.restful of &lt;Storage {&#x27;_vars&#x27;: None, &#x27;function&#x27;: &#x27;show_carousel&#x27;, &#x27;cookies&#x27;: &lt;SimpleCookie: session_id_admin=&#x27;127.0.0.1-6fb4d08b-f744-4cbd-b76d-a776133b9e7c&#x27; session_id_atencion=&#x27;127.0.0.1-966854c0-e664-44cc-a3bc-a960a2c08e7d&#x27;&gt;, &#x27;args&#x27;: [], &#x27;env&#x27;: &lt;Storage {&#x27;HTTP_REFERER&#x27;: &#x27;http://localhost:8000/atencion/admin/banners/banner?_signature=3c655dd8b722e4e420a5ef2ff5462188589ebfb1&#x27;, &#x27;SERVER_SOFTWARE&#x27;: &#x27;Rocket 1.2.6&#x27;, &#x27;SCRIPT_NAME&#x27;: &#x27;&#x27;, &#x27;REQUEST_METHOD&#x27;: &#x27;GET&#x27;, &#x27;SERVER_PROTOCOL&#x27;: &#x27;HTTP/1.1&#x27;, &#x27;http_cache_control&#x27;: &#x27;max-age=0&#x27;, &#x27;web2py_path&#x27;: &#x27;/opt/python/web2py-files/web2py&#x27;, &#x27;wsgi_url_scheme&#x27;: &#x27;http&#x27;, &#x27;REMOTE_PORT&#x27;: &#x27;55216&#x27;, &#x27;server_name&#x27;: &#x27;yasmany-tp500lab&#x27;, &#x27;applications_parent&#x27;: &#x27;/opt/python/web2py-files/web2py&#x27;, &#x27;cmd_options&#x27;: &lt;Values at 0x7f91dd927ef0: {&#x27;verbose&#x27;: False, &#x27;ip&#x27;: &#x27;127.0.0.1&#x27;, &#x27;debuglevel&#x27;: 30, &#x27;with_scheduler&#x27;: False, &#x27;shutdown_timeout&#x27;: 5, &#x27;taskbar&#x27;: False, &#x27;with_coverage&#x27;: False, &#x27;pid_filename&#x27;: &#x27;httpserver.pid&#x27;, &#x27;maxthreads&#x27;: None, &#x27;softcron&#x27;: False, &#x27;server_name&#x27;: &#x27;yasmany-tp500lab&#x27;, &#x27;bpython&#x27;: False, &#x27;nogui&#x27;: False, &#x27;port&#x27;: 8000, &#x27;print_errors&#x27;: False, &#x27;extcron&#x27;: False, &#x27;runcron&#x27;: False, &#x27;run_system_tests&#x27;: False, &#x27;test&#x27;: None, &#x27;folder&#x27;: &#x27;/opt/python/web2py-files/web2py&#x27;, &#x27;config&#x27;: &#x27;&#x27;, &#x27;minthreads&#x27;: None, &#x27;shell&#x27;: None, &#x27;run&#x27;: &#x27;&#x27;, &#x27;log_filename&#x27;: &#x27;httpserver.log&#x27;, &#x27;profiler_dir&#x27;: None, &#x27;args&#x27;: [&#x27;&#x27;], &#x27;socket_timeout&#x27;: 5, &#x27;ssl_ca_certificate&#x27;: None, &#x27;scheduler&#x27;: None, &#x27;interfaces&#x27;: None, &#x27;ssl_private_key&#x27;: &#x27;&#x27;, &#x27;gae&#x27;: None, &#x27;password&#x27;: &#x27;******&#x27;, &#x27;request_queue_size&#x27;: 5, &#x27;ssl_certificate&#x27;: &#x27;&#x27;, &#x27;cronjob&#x27;: False, &#x27;numthreads&#x27;: None, &#x27;quiet&#x27;: False, &#x27;import_models&#x27;: False, &#x27;timeout&#x27;: 10, &#x27;plain&#x27;: False, &#x27;nobanner&#x27;: False}&gt;, &#x27;wsgi_errors&#x27;: &lt;open file &#x27;&lt;stderr&gt;&#x27;, mode &#x27;w&#x27; at 0x7f91e207b1e0&gt;, &#x27;request_method&#x27;: &#x27;GET&#x27;, &#x27;SERVER_PORT&#x27;: &#x27;8000&#x27;, &#x27;http_upgrade_insecure_requests&#x27;: &#x27;1&#x27;, &#x27;wsgi_multithread&#x27;: True, &#x27;web2py_version&#x27;: &#x27;2.14.6-stable+timestamp.2016.05.10.00.21.47&#x27;, &#x27;HTTP_HOST&#x27;: &#x27;localhost:8000&#x27;, &#x27;wsgi_multiprocess&#x27;: False, &#x27;HTTP_UPGRADE_INSECURE_REQUESTS&#x27;: &#x27;1&#x27;, &#x27;HTTP_CACHE_CONTROL&#x27;: &#x27;max-age=0&#x27;, &#x27;request_uri&#x27;: &#x27;/atencion/default/index&#x27;, &#x27;HTTP_ACCEPT&#x27;: &#x27;text/html,application/xhtml+xml,application/xml;q=0.9,image/webp,*/*;q=0.8&#x27;, &#x27;http_web2py_component_location&#x27;: &#x27;/atencion/default/index&#x27;, &#x27;wsgi.version&#x27;: (1, 0), &#x27;local_hosts&#x27;: [&#x27;yasmany-tp500lab&#x27;, &#x27;127.0.1.1&#x27;, &#x27;::ffff:127.0.0.1&#x27;, &#x27;::1&#x27;, &#x27;yasmany-TP500LAB&#x27;, &#x27;127.0.0.1&#x27;], &#x27;wsgi.run_once&#x27;: False, &#x27;script_name&#x27;: &#x27;&#x27;, &#x27;wsgi.multiprocess&#x27;: False, &#x27;HTTP_ACCEPT_LANGUAGE&#x27;: &#x27;es-ES,es;q=0.8&#x27;, &#x27;wsgi_input&#x27;: &lt;socket._fileobject object at 0x7f91a3330ad0&gt;, &#x27;app_folders&#x27;: set([&#x27;/opt/python/web2py-files/web2py/applications/observatorio/&#x27;, &#x27;/opt/python/web2py-files/web2py/applications/admin/&#x27;, &#x27;/opt/python/web2py-files/web2py/applications/atencion/&#x27;, &#x27;/opt/python/web2py-files/web2py/applications/welcome/&#x27;]), &#x27;http_connection&#x27;: &#x27;keep-alive&#x27;, &#x27;remote_port&#x27;: &#x27;55216&#x27;, &#x27;wsgi.errors&#x27;: &lt;open file &#x27;&lt;stderr&gt;&#x27;, mode &#x27;w&#x27; at 0x7f91e207b1e0&gt;, &#x27;debugging&#x27;: False, &#x27;http_user_agent&#x27;: &#x27;Mozilla/5.0 (X11; Linux x86_64) AppleWebKit/537.36 (KHTML, like Gecko) Ubuntu Chromium/55.0.2883.87 Chrome/55.0.2883.87 Safari/537.36&#x27;, &#x27;HTTP_COOKIE&#x27;: &#x27;session_id_admin=127.0.0.1-6fb4d08b-f744-4cbd-b76d-a776133b9e7c; session_id_atencion=127.0.0.1-966854c0-e664-44cc-a3bc-a960a2c08e7d&#x27;, &#x27;PATH_INFO&#x27;: &#x27;/atencion/default/index&#x27;, &#x27;server_protocol&#x27;: &#x27;HTTP/1.1&#x27;, &#x27;QUERY_STRING&#x27;: &#x27;&#x27;, &#x27;cmd_args&#x27;: [], &#x27;http_accept&#x27;: &#x27;text/html,application/xhtml+xml,application/xml;q=0.9,image/webp,*/*;q=0.8&#x27;, &#x27;HTTP_USER_AGENT&#x27;: &#x27;Mozilla/5.0 (X11; Linux x86_64) AppleWebKit/537.36 (KHTML, like Gecko) Ubuntu Chromium/55.0.2883.87 Chrome/55.0.2883.87 Safari/537.36&#x27;, &#x27;HTTP_CONNECTION&#x27;: &#x27;keep-alive&#x27;, &#x27;SERVER_NAME&#x27;: &#x27;yasmany-tp500lab&#x27;, &#x27;remote_addr&#x27;: &#x27;127.0.0.1&#x27;, &#x27;is_jython&#x27;: False, &#x27;http_accept_language&#x27;: &#x27;es-ES,es;q=0.8&#x27;, &#x27;wsgi_version&#x27;: (1, 0), &#x27;wsgi.url_scheme&#x27;: &#x27;http&#x27;, &#x27;is_source&#x27;: True, &#x27;server_port&#x27;: &#x27;8000&#x27;, &#x27;http_accept_encoding&#x27;: &#x27;gzip, deflate, sdch, br&#x27;, &#x27;http_cookie&#x27;: &#x27;session_id_admin=127.0.0.1-6fb4d08b-f744-4cbd-b76d-a776133b9e7c; session_id_atencion=127.0.0.1-966854c0-e664-44cc-a3bc-a960a2c08e7d&#x27;, &#x27;gluon_parent&#x27;: &#x27;/opt/python/web2py-files/web2py&#x27;, &#x27;server_software&#x27;: &#x27;Rocket 1.2.6&#x27;, &#x27;http_web2py_component_element&#x27;: &#x27;c380397309181&#x27;, &#x27;wsgi.input&#x27;: &lt;socket._fileobject object at 0x7f91a3330ad0&gt;, &#x27;http_host&#x27;: &#x27;localhost:8000&#x27;, &#x27;path_info&#x27;: &#x27;/atencion/component/show_carousel&#x27;, &#x27;wsgi.multithread&#x27;: True, &#x27;wsgi_file_wrapper&#x27;: &lt;class wsgiref.util.FileWrapper at 0x7f91dd970390&gt;, &#x27;is_pypy&#x27;: False, &#x27;REMOTE_ADDR&#x27;: &#x27;127.0.0.1&#x27;, &#x27;db_sessions&#x27;: set([&#x27;observatorio&#x27;]), &#x27;http_referer&#x27;: &#x27;http://localhost:8000/atencion/admin/banners/banner?_signature=3c655dd8b722e4e420a5ef2ff5462188589ebfb1&#x27;, &#x27;query_string&#x27;: &#x27;&#x27;, &#x27;wsgi_run_once&#x27;: False, &#x27;wsgi.file_wrapper&#x27;: &lt;class wsgiref.util.FileWrapper at 0x7f91dd970390&gt;, &#x27;HTTP_ACCEPT_ENCODING&#x27;: &#x27;gzip, deflate, sdch, br&#x27;}&gt;, &#x27;vars&#x27;: &lt;Storage {}&gt;, &#x27;global_settings&#x27;: &lt;Storage {&#x27;debugging&#x27;: False, &#x27;is_pypy&#x27;: False, &#x27;local_hosts&#x27;: [&#x27;yasmany-tp500lab&#x27;, &#x27;127.0.1.1&#x27;, &#x27;::ffff:127.0.0.1&#x27;, &#x27;::1&#x27;, &#x27;yasmany-TP500LAB&#x27;, &#x27;127.0.0.1&#x27;], &#x27;is_source&#x27;: True, &#x27;gluon_parent&#x27;: &#x27;/opt/python/web2py-files/web2py&#x27;, &#x27;is_jython&#x27;: False, &#x27;applications_parent&#x27;: &#x27;/opt/python/web2py-files/web2py&#x27;, &#x27;cmd_options&#x27;: &lt;Values at 0x7f91dd927ef0: {&#x27;verbose&#x27;: False, &#x27;ip&#x27;: &#x27;127.0.0.1&#x27;, &#x27;debuglevel&#x27;: 30, &#x27;with_scheduler&#x27;: False, &#x27;shutdown_timeout&#x27;: 5, &#x27;taskbar&#x27;: False, &#x27;with_coverage&#x27;: False, &#x27;pid_filename&#x27;: &#x27;httpserver.pid&#x27;, &#x27;maxthreads&#x27;: None, &#x27;softcron&#x27;: False, &#x27;server_name&#x27;: &#x27;yasmany-tp500lab&#x27;, &#x27;bpython&#x27;: False, &#x27;nogui&#x27;: False, &#x27;port&#x27;: 8000, &#x27;print_errors&#x27;: False, &#x27;extcron&#x27;: False, &#x27;runcron&#x27;: False, &#x27;run_system_tests&#x27;: False, &#x27;test&#x27;: None, &#x27;folder&#x27;: &#x27;/opt/python/web2py-files/web2py&#x27;, &#x27;config&#x27;: &#x27;&#x27;, &#x27;minthreads&#x27;: None, &#x27;shell&#x27;: None, &#x27;run&#x27;: &#x27;&#x27;, &#x27;log_filename&#x27;: &#x27;httpserver.log&#x27;, &#x27;profiler_dir&#x27;: None, &#x27;args&#x27;: [&#x27;&#x27;], &#x27;socket_timeout&#x27;: 5, &#x27;ssl_ca_certificate&#x27;: None, &#x27;scheduler&#x27;: None, &#x27;interfaces&#x27;: None, &#x27;ssl_private_key&#x27;: &#x27;&#x27;, &#x27;gae&#x27;: None, &#x27;password&#x27;: &#x27;******&#x27;, &#x27;request_queue_size&#x27;: 5, &#x27;ssl_certificate&#x27;: &#x27;&#x27;, &#x27;cronjob&#x27;: False, &#x27;numthreads&#x27;: None, &#x27;quiet&#x27;: False, &#x27;import_models&#x27;: False, &#x27;timeout&#x27;: 10, &#x27;plain&#x27;: False, &#x27;nobanner&#x27;: False}&gt;, &#x27;app_folders&#x27;: set([&#x27;/opt/python/web2py-files/web2py/applications/observatorio/&#x27;, &#x27;/opt/python/web2py-files/web2py/applications/admin/&#x27;, &#x27;/opt/python/web2py-files/web2py/applications/atencion/&#x27;, &#x27;/opt/python/web2py-files/web2py/applications/welcome/&#x27;]), &#x27;db_sessions&#x27;: set([&#x27;observatorio&#x27;]), &#x27;web2py_version&#x27;: &#x27;2.14.6-stable+timestamp.2016.05.10.00.21.47&#x27;, &#x27;cmd_args&#x27;: []}&gt;, &#x27;raw_extension&#x27;: None, &#x27;_body&#x27;: None, &#x27;_uuid&#x27;: None, &#x27;raw_args&#x27;: &#x27;&#x27;, &#x27;controller&#x27;: &#x27;component&#x27;, &#x27;application&#x27;: &#x27;atencion&#x27;, &#x27;utcnow&#x27;: datetime.datetime(2017, 1, 7, 18, 18, 27, 827389), &#x27;now&#x27;: datetime.datetime(2017, 1, 7, 13, 18, 27, 827372), &#x27;is_local&#x27;: True, &#x27;wsgi&#x27;: &lt;gluon.main.LazyWSGI object at 0x7f91a2efe810&gt;, &#x27;is_shell&#x27;: False, &#x27;extension&#x27;: &#x27;load&#x27;, &#x27;cid&#x27;: &#x27;c380397309181&#x27;, &#x27;url&#x27;: &#x27;/atencion/default/index&#x27;, &#x27;_get_vars&#x27;: &lt;Storage {}&gt;, &#x27;ajax&#x27;: False, &#x27;is_https&#x27;: False, &#x27;_post_vars&#x27;: None, &#x27;client&#x27;: &#x27;127.0.0.1&#x27;, &#x27;is_restful&#x27;: False, &#x27;is_scheduler&#x27;: False, &#x27;get_vars&#x27;: &lt;Storage {}&gt;, &#x27;folder&#x27;: &#x27;/opt/python/web2py-files/web2py/applications/atencion/&#x27;, &#x27;restful&#x27;: &lt;bound method ?.restful of &lt;Storage {...}&gt;&gt;, &#x27;post_vars&#x27;: &lt;Storage {}&gt;}&gt;&gt;</div></td></tr><tr><td style="font-weight:bold;vertical-align:top;">url</td><td style="vertical-align:top;">:</td><td><div>/atencion/default/index</div></td></tr><tr><td style="font-weight:bold;vertical-align:top;">utcnow</td><td style="vertical-align:top;">:</td><td><div>datetime.datetime(2017, 1, 7, 18, 18, 27, 827389)</div></td></tr><tr><td style="font-weight:bold;vertical-align:top;">vars</td><td style="vertical-align:top;">:</td><td><div><table></table></div></td></tr><tr><td style="font-weight:bold;vertical-align:top;">wsgi</td><td style="vertical-align:top;">:</td><td><div>&lt;gluon.main.LazyWSGI object at 0x7f91a2efe810&gt;</div></td></tr></table></div>'
tRp58
sS'frames'
p59
(lp60
(dp61
S'file'
p62
S'/opt/python/web2py-files/web2py/gluon/restricted.py'
p63
sS'dump'
p64
(dp65
S'environment'
p66
S"{'A': <class 'gluon.html.A'>, 'ANY_OF': <class 'gluon.validators.ANY_OF'>, 'ASSIGNJS': <function ASSIGNJS>, 'AppConfig': <function AppConfig>, 'Auth': <class 'gluon.tools.Auth'>, 'B': <class 'gluon.html.B'>, 'BEAUTIFY': <class 'gluon.html.BEAUTIFY'>, 'BODY': <class 'gluon.html.BODY'>, 'BR': <class 'gluon.html.BR'>, 'BUTTON': <class 'gluon.html.BUTTON'>, ...}"
p67
sS'ccode'
p68
S'<code object <module> at 0x7f91a3335a30, file "/...cion/views/component/show_carousel.load", line 1>'
p69
ssS'lnum'
p70
I227
sS'lines'
p71
(dp72
I224
S'            ccode = code'
p73
sI225
S'        else:'
p74
sI226
S'            ccode = compile2(code, layer)'
p75
sI227
S'        exec ccode in environment'
p76
sI228
S'    except HTTP:'
p77
sI229
S'        raise'
p78
sI230
S'    except RestrictedError:'
p79
sI231
S'        # do not encapsulate (obfuscate) the original RestrictedError'
p80
sI222
S'    try:'
p81
sI223
S'        if isinstance(code, types.CodeType):'
p82
ssS'call'
p83
S'(code="if banners:\\n    response.write(\'\\\\n    <div class...<h2>No hay banner</h2>\\\\n\', escape=False)\\n    pass", environment={\'A\': <class \'gluon.html.A\'>, \'ANY_OF\': <class \'gluon.validators.ANY_OF\'>, \'ASSIGNJS\': <function ASSIGNJS>, \'AppConfig\': <function AppConfig>, \'Auth\': <class \'gluon.tools.Auth\'>, \'B\': <class \'gluon.html.B\'>, \'BEAUTIFY\': <class \'gluon.html.BEAUTIFY\'>, \'BODY\': <class \'gluon.html.BODY\'>, \'BR\': <class \'gluon.html.BR\'>, \'BUTTON\': <class \'gluon.html.BUTTON\'>, ...}, layer=\'/opt/python/web2py-files/web2py/applications/atencion/views/component/show_carousel.load\')'
p84
sS'func'
p85
S'restricted'
p86
sa(dp87
g62
S'/opt/python/web2py-files/web2py/applications/atencion/views/component/show_carousel.load'
p88
sg64
(dp89
S'slides'
p90
S'undefined'
p91
sS'Wrapper'
p92
g91
ssg70
I7
sg71
(dp93
I2
S'    <div class="container">'
p94
sI3
S'        <div class="row">'
p95
sI4
S'            <div class="col-md-12">'
p96
sI5
S'                <div id="carousel-generic" class="carousel slide" data-ride="carousel">'
p97
sI6
S''
sI7
S'                    <!-- Wrapper for slides -->'
p98
sI8
S'                    <div class="carousel-inner" role="listbox">'
p99
sI9
S'                        {{var = "active"}}'
p100
sI10
S'                        {{for i in xrange(0, len(banners)):}}'
p101
sI11
S''
ssg83
S'()'
p102
sg85
S'<module>'
p103
sasS'pyver'
p104
S'Python 2.7.12: /usr/bin/python (prefix: /usr)'
p105
sS'session'
p106
g57
(S's\x8d\t\x00\x00<div><table><tr><td style="font-weight:bold;vertical-align:top;">auth</td><td style="vertical-align:top;">:</td><td><div><table><tr><td style="font-weight:bold;vertical-align:top;">expiration</td><td style="vertical-align:top;">:</td><td><div>3600</div></td></tr><tr><td style="font-weight:bold;vertical-align:top;">hmac_key</td><td style="vertical-align:top;">:</td><td><div>7eb0fb47-dd56-4dce-b11e-55e022e306ca</div></td></tr><tr><td style="font-weight:bold;vertical-align:top;">last_visit</td><td style="vertical-align:top;">:</td><td><div>datetime.datetime(2017, 1, 7, 13, 14, 50, 775303)</div></td></tr><tr><td style="font-weight:bold;vertical-align:top;">user</td><td style="vertical-align:top;">:</td><td><div><table><tr><td style="font-weight:bold;vertical-align:top;">centro</td><td style="vertical-align:top;">:</td><td><div>None</div></td></tr><tr><td style="font-weight:bold;vertical-align:top;">email</td><td style="vertical-align:top;">:</td><td><div>ysantalla@upr.edu.cu</div></td></tr><tr><td style="font-weight:bold;vertical-align:top;">first_name</td><td style="vertical-align:top;">:</td><td><div>Yasmany</div></td></tr><tr><td style="font-weight:bold;vertical-align:top;">id</td><td style="vertical-align:top;">:</td><td><div>5L</div></td></tr><tr><td style="font-weight:bold;vertical-align:top;">last_name</td><td style="vertical-align:top;">:</td><td><div>Santalla Pereda</div></td></tr><tr><td style="font-weight:bold;vertical-align:top;">registration_id</td><td style="vertical-align:top;">:</td><td><div></div></td></tr><tr><td style="font-weight:bold;vertical-align:top;">registration_key</td><td style="vertical-align:top;">:</td><td><div></div></td></tr><tr><td style="font-weight:bold;vertical-align:top;">reset_password_key</td><td style="vertical-align:top;">:</td><td><div></div></td></tr></table></div></td></tr><tr><td style="font-weight:bold;vertical-align:top;">user_groups</td><td style="vertical-align:top;">:</td><td><div><table></table></div></td></tr></table></div></td></tr><tr><td style="font-weight:bold;vertical-align:top;">flash</td><td style="vertical-align:top;">:</td><td><div>None</div></td></tr><tr><td style="font-weight:bold;vertical-align:top;">last_orderby</td><td style="vertical-align:top;">:</td><td><div>None</div></td></tr><tr><td style="font-weight:bold;vertical-align:top;">last_query</td><td style="vertical-align:top;">:</td><td><div>db.centro.id&gt;0</div></td></tr></table></div>'
tRp107
sS'etype'
p108
S"<type 'exceptions.NameError'>"
p109
sS'date'
p110
S'Sat Jan  7 13:18:27 2017'
p111
sS'response'
p112
g57
(S'sn\t\x00\x00<div><table><tr><td style="font-weight:bold;vertical-align:top;">body</td><td style="vertical-align:top;">:</td><td><div>&lt;cStringIO.StringO object at 0x7f91a2eeec00&gt;</div></td></tr><tr><td style="font-weight:bold;vertical-align:top;">cookies</td><td style="vertical-align:top;">:</td><td><div><table></table></div></td></tr><tr><td style="font-weight:bold;vertical-align:top;">delimiters</td><td style="vertical-align:top;">:</td><td><div><table><tr><td><div>{{</div></td></tr><tr><td><div>}}</div></td></tr></table></div></td></tr><tr><td style="font-weight:bold;vertical-align:top;">files</td><td style="vertical-align:top;">:</td><td><div><table></table></div></td></tr><tr><td style="font-weight:bold;vertical-align:top;">flash</td><td style="vertical-align:top;">:</td><td><div></div></td></tr><tr><td style="font-weight:bold;vertical-align:top;">form_label_separator</td><td style="vertical-align:top;">:</td><td><div>: </div></td></tr><tr><td style="font-weight:bold;vertical-align:top;">formstyle</td><td style="vertical-align:top;">:</td><td><div>table3cols</div></td></tr><tr><td style="font-weight:bold;vertical-align:top;">generic_patterns</td><td style="vertical-align:top;">:</td><td><div><table><tr><td><div>*</div></td></tr></table></div></td></tr><tr><td style="font-weight:bold;vertical-align:top;">headers</td><td style="vertical-align:top;">:</td><td><div><table><tr><td style="font-weight:bold;vertical-align:top;">X-Powered-By</td><td style="vertical-align:top;">:</td><td><div>web2py</div></td></tr></table></div></td></tr><tr><td style="font-weight:bold;vertical-align:top;">menu</td><td style="vertical-align:top;">:</td><td><div><table></table></div></td></tr><tr><td style="font-weight:bold;vertical-align:top;">meta</td><td style="vertical-align:top;">:</td><td><div><table></table></div></td></tr><tr><td style="font-weight:bold;vertical-align:top;">postprocessing</td><td style="vertical-align:top;">:</td><td><div><table></table></div></td></tr><tr><td style="font-weight:bold;vertical-align:top;">session_id</td><td style="vertical-align:top;">:</td><td><div>None</div></td></tr><tr><td style="font-weight:bold;vertical-align:top;">status</td><td style="vertical-align:top;">:</td><td><div>200</div></td></tr><tr><td style="font-weight:bold;vertical-align:top;">view</td><td style="vertical-align:top;">:</td><td><div>component/show_carousel.load</div></td></tr></table></div>'
tRp113
sS'locals'
p114
(dp115
S'Service'
p116
S"<class 'gluon.tools.Service'>"
p117
sS'OBJECT'
p118
S"<class 'gluon.html.OBJECT'>"
p119
sS'SQLDB'
p120
S"<class 'pydal.base.DAL'>"
p121
sg106
S"<Storage {'last_query': 'db.centro.id>0', '_form...b0891', '1c59a15a-a673-4860-ba47-15e9f52511ee']}>"
p122
sS'LINK'
p123
S"<class 'gluon.html.LINK'>"
p124
sS'BR'
p125
S"<class 'gluon.html.BR'>"
p126
sS'local_import'
p127
S'<function <lambda>>'
p128
sS'OPTGROUP'
p129
S"<class 'gluon.html.OPTGROUP'>"
p130
sS'__package__'
p131
S'None'
p132
sS'PRE'
p133
S"<class 'gluon.html.PRE'>"
p134
sS'IS_INT_IN_RANGE'
p135
S"<class 'gluon.validators.IS_INT_IN_RANGE'>"
p136
sS'IS_LOWER'
p137
S"<class 'gluon.validators.IS_LOWER'>"
p138
sS'IS_STRONG'
p139
S"<class 'gluon.validators.IS_STRONG'>"
p140
sS'cache'
p141
S'<gluon.cache.Cache object>'
p142
sS'IS_IN_DB'
p143
S"<class 'gluon.validators.IS_IN_DB'>"
p144
sS'TAG'
p145
S'<gluon.html.__TAG__ object>'
p146
sS'SQLField'
p147
S"<class 'pydal.objects.Field'>"
p148
sS'mail'
p149
S'<gluon.tools.Mail object>'
p150
sS'BODY'
p151
S"<class 'gluon.html.BODY'>"
p152
sS'IS_DATE_IN_RANGE'
p153
S"<class 'gluon.validators.IS_DATE_IN_RANGE'>"
p154
sS'IFRAME'
p155
S"<class 'gluon.html.IFRAME'>"
p156
sS'show_carousel'
p157
S'<function show_carousel>'
p158
sS'URL'
p159
S'<function URL>'
p160
sS'__file__'
p161
S"'/opt/python/web2py-files/web2py/applications/atencion/views/component/show_carousel.load'"
p162
sS'db'
p163
S'<DAL uri="sqlite://storage.sqlite">'
p164
sS'auth'
p165
S'<gluon.tools.Auth object>'
p166
sS'P'
S"<class 'gluon.html.P'>"
p167
sS'TFOOT'
p168
S"<class 'gluon.html.TFOOT'>"
p169
sS'XHTML'
p170
S"<class 'gluon.html.XHTML'>"
p171
sS'ON'
p172
S'True'
p173
sS'OL'
p174
S"<class 'gluon.html.OL'>"
p175
sS'TEXTAREA'
p176
S"<class 'gluon.html.TEXTAREA'>"
p177
sS'MENU'
p178
S"<class 'gluon.html.MENU'>"
p179
sS'EM'
p180
S"<class 'gluon.html.EM'>"
p181
sS'CODE'
p182
S"<class 'gluon.html.CODE'>"
p183
sS'HTTP'
p184
S"<class 'gluon.http.HTTP'>"
p185
sS'HR'
p186
S"<class 'gluon.html.HR'>"
p187
sS'IS_DATETIME'
p188
S"<class 'gluon.validators.IS_DATETIME'>"
p189
sS'STYLE'
p190
S"<class 'gluon.html.STYLE'>"
p191
sS'LABEL'
p192
S"<class 'gluon.html.LABEL'>"
p193
sS'CLEANUP'
p194
S"<class 'gluon.validators.CLEANUP'>"
p195
sS'plugins'
p196
S'<gluon.tools.PluginManager object>'
p197
sS'download'
p198
S'<function download>'
p199
sS'SELECT'
p200
S"<class 'gluon.html.SELECT'>"
p201
sS'index'
p202
S'<function index>'
p203
sS'CENTER'
p204
S"<class 'gluon.html.CENTER'>"
p205
sS'Auth'
p206
S"<class 'gluon.tools.Auth'>"
p207
sS'__builtins__'
p208
S"{'ArithmeticError': <type 'exceptions.ArithmeticError'>, 'AssertionError': <type 'exceptions.AssertionError'>, 'AttributeError': <type 'exceptions.AttributeError'>, 'BaseException': <type 'exceptions.BaseException'>, 'BufferError': <type 'exceptions.BufferError'>, 'BytesWarning': <type 'exceptions.BytesWarning'>, 'DeprecationWarning': <type 'exceptions.DeprecationWarning'>, 'EOFError': <type 'exceptions.EOFError'>, 'Ellipsis': Ellipsis, 'EnvironmentError': <type 'exceptions.EnvironmentError'>, ...}"
p209
sS'HTML'
p210
S"<class 'gluon.html.HTML'>"
p211
sS'SQLFORM'
p212
S"<class 'gluon.sqlhtml.SQLFORM'>"
p213
sS'LOAD'
p214
S'<function LOAD>'
p215
sS'redirect'
p216
S'<function redirect>'
p217
sS'FIELDSET'
p218
S"<class 'gluon.html.FIELDSET'>"
p219
sS'IS_EQUAL_TO'
p220
S"<class 'gluon.validators.IS_EQUAL_TO'>"
p221
sS'embed64'
p222
S'<function embed64>'
p223
sS'IS_LIST_OF'
p224
S"<class 'gluon.validators.IS_LIST_OF'>"
p225
sS'INPUT'
p226
S"<class 'gluon.html.INPUT'>"
p227
sS'EMBED'
p228
S"<class 'gluon.html.EMBED'>"
p229
sS'PRODUCTION_MENU'
p230
g173
sS'FORM'
p231
S"<class 'gluon.html.FORM'>"
p232
sS'myconf'
p233
S"{'forms': {'formstyle': 'bootstrap3_inline', 'se...': {'names': 'localhost:*, 127.0.0.1:*, *:*, *'}}"
p234
sS'H2'
p235
S"<class 'gluon.html.H2'>"
p236
sS'H3'
p237
S"<class 'gluon.html.H3'>"
p238
sS'AppConfig'
p239
S'<function AppConfig>'
p240
sS'H1'
p241
S"<class 'gluon.html.H1'>"
p242
sS'H6'
p243
S"<class 'gluon.html.H6'>"
p244
sS'H4'
p245
S"<class 'gluon.html.H4'>"
p246
sS'H5'
p247
S"<class 'gluon.html.H5'>"
p248
sS'UL'
p249
S"<class 'gluon.html.UL'>"
p250
sS'IS_UPPER'
p251
S"<class 'gluon.validators.IS_UPPER'>"
p252
sS'xmlescape'
p253
S'<function xmlescape>'
p254
sS'IS_TIME'
p255
S"<class 'gluon.validators.IS_TIME'>"
p256
sS'OPTION'
p257
S"<class 'gluon.html.OPTION'>"
p258
sS'TITLE'
p259
S"<class 'gluon.html.TITLE'>"
p260
sS'CRYPT'
p261
S"<class 'gluon.validators.CRYPT'>"
p262
sS'IS_EMPTY_OR'
p263
S"<class 'gluon.validators.IS_EMPTY_OR'>"
p264
sS'MARKMIN'
p265
S"<class 'gluon.html.MARKMIN'>"
p266
sS'NEWS_HEIGTH'
p267
S'600'
p268
sS'__name__'
p269
S"'__restricted__'"
p270
sS'STRONG'
p271
S"<class 'gluon.html.STRONG'>"
p272
sS'COL'
p273
S"<class 'gluon.html.COL'>"
p274
sS'service'
p275
S'<gluon.tools.Service object>'
p276
sS'SCRIPT'
p277
S"<class 'gluon.html.SCRIPT'>"
p278
sS'NEWS_WIDTH'
p279
S'2340'
p280
sg83
S'<function call>'
p281
sS'_'
S'<function _>'
p282
sS'var'
p283
S"'active'"
p284
sS'TABLE'
p285
S"<class 'gluon.html.TABLE'>"
p286
sS'IS_IPV4'
p287
S"<class 'gluon.validators.IS_IPV4'>"
p288
sS'IS_LENGTH'
p289
S"<class 'gluon.validators.IS_LENGTH'>"
p290
sS'IS_IPV6'
p291
S"<class 'gluon.validators.IS_IPV6'>"
p292
sS'XML'
p293
S"<class 'gluon.html.XML'>"
p294
sS'B'
S"<class 'gluon.html.B'>"
p295
sS'IMG'
p296
S"<class 'gluon.html.IMG'>"
p297
sS'SQLTABLE'
p298
S"<class 'gluon.sqlhtml.SQLTABLE'>"
p299
sS'IS_MATCH'
p300
S"<class 'gluon.validators.IS_MATCH'>"
p301
sS'IS_ALPHANUMERIC'
p302
S"<class 'gluon.validators.IS_ALPHANUMERIC'>"
p303
sS'SPAN'
p304
S"<class 'gluon.html.SPAN'>"
p305
sS'IS_JSON'
p306
S"<class 'gluon.validators.IS_JSON'>"
p307
sS'IS_IPADDRESS'
p308
S"<class 'gluon.validators.IS_IPADDRESS'>"
p309
sS'IS_SLUG'
p310
S"<class 'gluon.validators.IS_SLUG'>"
p311
sS'BEAUTIFY'
p312
S"<class 'gluon.html.BEAUTIFY'>"
p313
sS'META'
p314
S"<class 'gluon.html.META'>"
p315
sS'BUTTON'
p316
S"<class 'gluon.html.BUTTON'>"
p317
sS'IS_DATE'
p318
S"<class 'gluon.validators.IS_DATE'>"
p319
sS'IS_EMAIL'
p320
S"<class 'gluon.validators.IS_EMAIL'>"
p321
sS'IS_NOT_EMPTY'
p322
S"<class 'gluon.validators.IS_NOT_EMPTY'>"
p323
sS'IS_FLOAT_IN_RANGE'
p324
S"<class 'gluon.validators.IS_FLOAT_IN_RANGE'>"
p325
sS'TBODY'
p326
S"<class 'gluon.html.TBODY'>"
p327
sS'CAT'
p328
S"<class 'gluon.html.CAT'>"
p329
sS'Field'
p330
S"<class 'pydal.objects.Field'>"
p331
sS'IS_LIST_OF_EMAILS'
p332
S"<class 'gluon.validators.IS_LIST_OF_EMAILS'>"
p333
sS'DIV'
p334
S"<class 'gluon.html.DIV'>"
p335
sS'LEGEND'
p336
S"<class 'gluon.html.LEGEND'>"
p337
sS'COLGROUP'
p338
S"<class 'gluon.html.COLGROUP'>"
p339
sS'DAL'
p340
S"<class 'pydal.base.DAL'>"
p341
sS'ASSIGNJS'
p342
S'<function ASSIGNJS>'
p343
sS'TR'
p344
S"<class 'gluon.html.TR'>"
p345
sS'LI'
p346
S"<class 'gluon.html.LI'>"
p347
sS'TH'
p348
S"<class 'gluon.html.TH'>"
p349
sS'TD'
p350
S"<class 'gluon.html.TD'>"
p351
sS'PluginManager'
p352
S"<class 'gluon.tools.PluginManager'>"
p353
sS'IS_URL'
p354
S"<class 'gluon.validators.IS_URL'>"
p355
sS'A'
S"<class 'gluon.html.A'>"
p356
sS'HEAD'
p357
S"<class 'gluon.html.HEAD'>"
p358
sS'IS_DATETIME_IN_RANGE'
p359
S"<class 'gluon.validators.IS_DATETIME_IN_RANGE'>"
p360
sS'IS_IMAGE'
p361
S"<class 'gluon.validators.IS_IMAGE'>"
p362
sS'I'
S"<class 'gluon.html.I'>"
p363
sS'IS_NOT_IN_DB'
p364
S"<class 'gluon.validators.IS_NOT_IN_DB'>"
p365
sS'user'
p366
S'<function user>'
p367
sg112
S"<Storage {'status': 200, 'body': <cStringIO.Stri...t': None, 'files': [], '_custom_rollback': None}>"
p368
sS'THEAD'
p369
S"<class 'gluon.html.THEAD'>"
p370
sS'ANY_OF'
p371
S"<class 'gluon.validators.ANY_OF'>"
p372
sS'IS_NULL_OR'
p373
S"<class 'gluon.validators.IS_EMPTY_OR'>"
p374
sS'i'
S'0'
sg56
S"<Storage {'_vars': None, 'function': 'show_carou... of <Storage {...}>>, 'post_vars': <Storage {}>}>"
p375
sS'IS_EXPR'
p376
S"<class 'gluon.validators.IS_EXPR'>"
p377
sS'T'
S'<gluon.languages.translator object>'
p378
sS'IS_IN_SET'
p379
S"<class 'gluon.validators.IS_IN_SET'>"
p380
sS'IS_UPLOAD_FILENAME'
p381
S"<class 'gluon.validators.IS_UPLOAD_FILENAME'>"
p382
sS'banners'
p383
S'<Rows (1)>'
p384
sS'TT'
p385
S"<class 'gluon.html.TT'>"
p386
sS'IS_DECIMAL_IN_RANGE'
p387
S"<class 'gluon.validators.IS_DECIMAL_IN_RANGE'>"
p388
sssS'traceback'
p389
S'Traceback (most recent call last):\n  File "/opt/python/web2py-files/web2py/gluon/restricted.py", line 227, in restricted\n    exec ccode in environment\n  File "/opt/python/web2py-files/web2py/applications/atencion/views/component/show_carousel.load", line 7, in <module>\n    <!-- Wrapper for slides -->\nNameError: name \'news\' is not defined\n'
p390
s.