(dp1
S'output'
p2
S"<type 'exceptions.SyntaxError'> invalid syntax (visor_preguntas.load, line 34)"
p3
sS'layer'
p4
S'/opt/python/web2py/web2py/applications/proyect/views/estudiante/visor_preguntas.load'
p5
sS'code'
p6
S'response.write(\'<article>\\n\\n\', escape=False)\nif pregunta:\n    response.write(\'\\n    <!--Card-->\\n    <div class="card wow fadeInRightBig" data-wow-delay="0.2s" style="padding: 10px;">\\n        <!--Card title-->\\n        <div class="overlay hm-white-slight">\\n                \', escape=False)\n    response.write(H5(CAT(int(pregunta.tipo)+1, \'.)\', \' \',tipo_pregunta[pregunta.tipo])))\n    response.write(\'\\n                <!--Text-->\\n                <hr/>\\n            </div>\\n        <div class="overlay hm-white-slight">\\n            <!--Text-->\\n            <div class="col-md-12">\\n                <p class="card-text">\', escape=False)\n    response.write(P(pregunta.descripcion))\n    response.write(\'</p>\\n            </div>\\n        </div>\\n        <!--/.Card title-->\\n\\n        <!--Card content-->\\n        <div class="card-block text-xs-center">\\n            <div class="row">\\n                <div class="col-md-12">\\n                    <div class="alert alert-success alert-dismissible message" role="alert">\', escape=False)\n    response.write(T(\'Responda la respuesta\'))\n    response.write(\'</div>\\n                </div>\\n            </div>\\n\\n            <div class="row">\\n                <div class="col-md-6 col-md-offset-1">\\n                    <form id="pregunta-form" enctype="multipart/form-data">\\n                        <input type="hidden" name="id" value="\', escape=False)\n    response.write(respuesta_id)\n    response.write(\'">\\n                        <input type="hidden" name="intrusiones" value="0">\\n                        <input type="hidden" name="aciertos" value="0">\\n\\n                        \', escape=False)\n    if pregunta.tipo == \'0\':\n        response.write(\'\\n                            \', escape=False)\n        response.write(UL(LI(CAT(H3(pregunta.texto), INPUT(_type="hidden", _name="pregunta", _value=pregunta.id), INPUT(_type="text", _name="respuesta"))), _class="nav"))\n        response.write(\'\\n                        \', escape=False)\n    elif pregunta.tipo == \'1\':\n        response.write(\'\\n                            <ul class="nav">\\n                                <li><h3 class="wow fadeOut desaparecer" data-wow-delay="\', escape=False)\n        response.write(pregunta.tiempo)\n        response.write(\'s">\', escape=False)\n        response.write(pregunta.texto)\n        response.write(\'</h3> \', escape=False)\n        response.write(CAT(INPUT(_type="hidden", _name="pregunta", _value=pregunta.id), INPUT(_type="text", _name="respuesta", _placeholder=T("Responde aqu\xc3\xad"))))\n        response.write(\'</li>\\n                            </ul>\\n\\n                        \', escape=False)\n    elif pregunta.tipo == \'2\':\n        response.write(\'\\n                            <ul class="nav">\\n                                <li><h3 class="wow fadeOut desaparecer" data-wow-delay="\', escape=False)\n        response.write(pregunta.tiempo)\n        response.write(\'s">\', escape=False)\n        response.write(pregunta.texto)\n        response.write(\'</h3> \', escape=False)\n        response.write(CAT(INPUT(_type="hidden", _name="pregunta", _value=pregunta.id), INPUT(_type="text", _name="respuesta", _placeholder=T("Responde aqu\xc3\xad"))))\n        response.write(\'</li>\\n                            </ul>\\n                        \', escape=False)\n    elif pregunta.tipo == \'3\':\n        response.write(\'\\n                            \', escape=False)\n        for i in [1,2,3,4,5,6,7,8,9]\n        response.write(\'\\n                            \\n                        \\n                            \', escape=False)\n        pass\n    response.write(\'\\n                        \', escape=False)\nelif pregunta.tipo == \'4\':\n    response.write(\'\\n                            \', escape=False)\n    response.write(UL(LI(CAT(pregunta.texto, INPUT(_type="hidden", _name="pregunta", _value=pregunta.id), INPUT(_type="text", _name="respuesta"))), _class="nav"))\n    response.write(\'\\n                        \', escape=False)\nelif pregunta.tipo == \'5\':\n    response.write(\'\\n                            \', escape=False)\n    response.write(UL(LI(CAT(pregunta.texto, INPUT(_type="hidden", _name="pregunta", _value=pregunta.id), INPUT(_type="text", _name="respuesta"))), _class="nav"))\n    response.write(\'\\n                        \', escape=False)\nelif pregunta.tipo == \'6\':\n    response.write(\'\\n                            \', escape=False)\n    response.write(UL(LI(CAT(pregunta.texto, INPUT(_type="hidden", _name="pregunta", _value=pregunta.id), INPUT(_type="text", _name="respuesta"))), _class="nav"))\n    response.write(\'\\n                        \', escape=False)\nelse:\n    response.write(\'\\n                            <h1>Error </h1>\\n                        \', escape=False)\n    pass\nresponse.write(\'\\n                    </form>\\n                </div>\\n                <div class="col-md-2 col-md-offset-2">\\n                    \', escape=False)\nresponse.write(A(T("Guardar"), _id="guardar", _class="btn btn-default btn-lg"))\nresponse.write(\'\\n                </div>\\n            </div>\\n\\n            <div class="row">\\n                <div class="col-md-12">\\n                    <hr />\\n                </div>\\n                <div class="col-md-6 col-md-offset-1">\\n                    <nav>\\n                      <ul class="pagination pagination-lg">\\n                          <li class="\', escape=False)\nif pregunta.tipo == \'0\':\n    response.write(\'active\', escape=False)\n    pass\nresponse.write(\'"><span>1 <span class="sr-only"></span></span></li>\\n                          <li class="\', escape=False)\nif pregunta.tipo == \'1\':\n    response.write(\'active\', escape=False)\n    pass\nresponse.write(\'"><span>2 <span class="sr-only"></span></span></li>\\n                          <li class="\', escape=False)\nif pregunta.tipo == \'2\':\n    response.write(\'active\', escape=False)\n    pass\nresponse.write(\'"><span>3 <span class="sr-only"></span></span></li>\\n                          <li class="\', escape=False)\nif pregunta.tipo == \'3\':\n    response.write(\'active\', escape=False)\n    pass\nresponse.write(\'"><span>4 <span class="sr-only"></span></span></li>\\n                          <li class="\', escape=False)\nif pregunta.tipo == \'4\':\n    response.write(\'active\', escape=False)\n    pass\nresponse.write(\'"><span>5 <span class="sr-only"></span></span></li>\\n                          <li class="\', escape=False)\nif pregunta.tipo == \'5\':\n    response.write(\'active\', escape=False)\n    pass\nresponse.write(\'"><span>6 <span class="sr-only"></span></span></li>\\n                          <li class="\', escape=False)\nif pregunta.tipo == \'6\':\n    response.write(\'active\', escape=False)\n    pass\nresponse.write(\'"><span>7 <span class="sr-only"></span></span></li>\\n                      </ul>\\n                    </nav>\\n                </div>\\n\\n                <div class="col-md-2 col-md-offset-2">\\n                    \', escape=False)\nresponse.write(A("Siguiente", _id="siguiente", _class="btn btn-default btn-lg disabled", _href=URL(args=[pregunta.diagnostico]), cid=request.cid))\nresponse.write(\'\\n                </div>\\n            </div>\\n\\n        </div>\\n    </div>\\n    <!--/.Card content-->\\n\\n    <script text="javascript">\\n        $(function () {\\n            /*Funci\\xc3\\xb3n ajax para guardar la pregunta*/\\n            $(\\\'#guardar\\\').click(function(event){\\n\\n                var formData = $(\\\'#pregunta-form\\\').serializeArray();\\n\\n                $.ajax({\\n                    // la URL para la petici\\xc3\\xb3n\\n                    url : \\\'guardar_respuesta\\\',\\n                    // la informaci\\xc3\\xb3n a enviar\\n                    // (tambi\\xc3\\xa9n es posible utilizar una cadena de datos)\\n                    data : formData,\\n                    // especifica si ser\\xc3\\xa1 una petici\\xc3\\xb3n POST o GET\\n                    type : \\\'POST\\\',\\n                    // el tipo de informaci\\xc3\\xb3n que se espera de respuesta\\n                    dataType : \\\'json\\\',\\n                    // c\\xc3\\xb3digo a ejecutar si la petici\\xc3\\xb3n es satisfactoria;\\n                    // la respuesta es pasada como argumento a la funci\\xc3\\xb3n\\n                    success : function(json) {\\n                        $(\\\'.message\\\').text("\', escape=False)\nresponse.write(T(\'Guardada correctamente\'))\nresponse.write(\'");\\n                        $(\\\'#siguiente\\\').removeClass(\\\'disabled\\\');\\n                    },\\n                    // c\\xc3\\xb3digo a ejecutar si la petici\\xc3\\xb3n falla;\\n                    // son pasados como argumentos a la funci\\xc3\\xb3n\\n                    // el objeto de la petici\\xc3\\xb3n en crudo y c\\xc3\\xb3digo de estatus de la petici\\xc3\\xb3n\\n                    error : function(xhr, status) {\\n                        $(\\\'.alert\\\').text("\', escape=False)\nresponse.write(T(\'Disculpe, existi\xc3\xb3 un problema\'))\nresponse.write(\'");\\n                    },\\n                    // c\\xc3\\xb3digo a ejecutar sin importar si la petici\\xc3\\xb3n fall\\xc3\\xb3 o no\\n                    complete : function(xhr, status) {\\n                        console.log(\\\'Petici\\xc3\\xb3n realizada\\\');\\n                    }\\n                });\\n                event.defaultPrevented;\\n            });\\n        });\\n    </script>\\n\', escape=False)\nelse:\n    response.write(\'\\n    <script text="javascript">\\n        $(function () {\\n            $(\\\'#diagnostico-time\\\').val(\\\'false\\\');\\n        });\\n    </script>\\n    \', escape=False)\n    response.write(H1(T("Se acabaron las preguntas de este cuestionario")))\n    response.write(\'\\n\', escape=False)\n    pass\nresponse.write(\'\\n</article>\\n\\n<style>\\n    .desaparecer {\\n        opacity: 0;\\n    }\\n</style>\\n\', escape=False)'
p7
sS'snapshot'
p8
(dp9
S'exception'
p10
(dp11
S'__getslice__'
p12
S"<method-wrapper '__getslice__' of exceptions.SyntaxError object>"
p13
sS'text'
p14
S"'        for i in [1,2,3,4,5,6,7,8,9]\\n'"
p15
sS'__str__'
p16
S"<method-wrapper '__str__' of exceptions.SyntaxError object>"
p17
sS'__reduce__'
p18
S'<built-in method __reduce__ of exceptions.SyntaxError object>'
p19
sS'__dict__'
p20
S'{}'
p21
sS'__sizeof__'
p22
S'<built-in method __sizeof__ of exceptions.SyntaxError object>'
p23
sS'__init__'
p24
S"<method-wrapper '__init__' of exceptions.SyntaxError object>"
p25
sS'__setattr__'
p26
S"<method-wrapper '__setattr__' of exceptions.SyntaxError object>"
p27
sS'__reduce_ex__'
p28
S'<built-in method __reduce_ex__ of exceptions.SyntaxError object>'
p29
sS'__new__'
p30
S'<built-in method __new__ of type object>'
p31
sS'__format__'
p32
S'<built-in method __format__ of exceptions.SyntaxError object>'
p33
sS'__class__'
p34
S"<type 'exceptions.SyntaxError'>"
p35
sS'filename'
p36
S"'/opt/python/web2py/web2py/applications/proyect/views/estudiante/visor_preguntas.load'"
p37
sS'lineno'
p38
S'34'
p39
sS'msg'
p40
S"'invalid syntax'"
p41
sS'__doc__'
p42
S"'Invalid syntax.'"
p43
sS'__getitem__'
p44
S"<method-wrapper '__getitem__' of exceptions.SyntaxError object>"
p45
sS'__setstate__'
p46
S'<built-in method __setstate__ of exceptions.SyntaxError object>'
p47
sS'__getattribute__'
p48
S"<method-wrapper '__getattribute__' of exceptions.SyntaxError object>"
p49
sS'print_file_and_line'
p50
S'None'
p51
sS'args'
p52
S"('invalid syntax', ('/opt/python/web2py/web2py/applications/proyect/views/estudiante/visor_preguntas.load', 34, 37, '        for i in [1,2,3,4,5,6,7,8,9]\\n'))"
p53
sS'__subclasshook__'
p54
S'<built-in method __subclasshook__ of type object>'
p55
sS'offset'
p56
S'37'
p57
sS'__unicode__'
p58
S'<built-in method __unicode__ of exceptions.SyntaxError object>'
p59
sS'__delattr__'
p60
S"<method-wrapper '__delattr__' of exceptions.SyntaxError object>"
p61
sS'__repr__'
p62
S"<method-wrapper '__repr__' of exceptions.SyntaxError object>"
p63
sS'__hash__'
p64
S"<method-wrapper '__hash__' of exceptions.SyntaxError object>"
p65
ssS'evalue'
p66
S'invalid syntax (visor_preguntas.load, line 34)'
p67
sS'request'
p68
cgluon.html
XML_unpickle
p69
(S's\xb7j\x00\x00<div><table><tr><td style="font-weight:bold;vertical-align:top;">ajax</td><td style="vertical-align:top;">:</td><td><div>True</div></td></tr><tr><td style="font-weight:bold;vertical-align:top;">application</td><td style="vertical-align:top;">:</td><td><div>proyect</div></td></tr><tr><td style="font-weight:bold;vertical-align:top;">args</td><td style="vertical-align:top;">:</td><td><div><table><tr><td><div>27432087091748039009850110663</div></td></tr><tr><td><div>0</div></td></tr></table></div></td></tr><tr><td style="font-weight:bold;vertical-align:top;">cid</td><td style="vertical-align:top;">:</td><td><div>c958918210027</div></td></tr><tr><td style="font-weight:bold;vertical-align:top;">client</td><td style="vertical-align:top;">:</td><td><div>127.0.0.1</div></td></tr><tr><td style="font-weight:bold;vertical-align:top;">controller</td><td style="vertical-align:top;">:</td><td><div>estudiante</div></td></tr><tr><td style="font-weight:bold;vertical-align:top;">cookies</td><td style="vertical-align:top;">:</td><td><div><table><tr><td style="font-weight:bold;vertical-align:top;">session_id_admin</td><td style="vertical-align:top;">:</td><td><div>127.0.0.1-62d08a5f-5b8f-4e77-b25e-42ed0f79425a<table><tr><td style="font-weight:bold;vertical-align:top;">comment</td><td style="vertical-align:top;">:</td><td><div></div></td></tr><tr><td style="font-weight:bold;vertical-align:top;">domain</td><td style="vertical-align:top;">:</td><td><div></div></td></tr><tr><td style="font-weight:bold;vertical-align:top;">expires</td><td style="vertical-align:top;">:</td><td><div></div></td></tr><tr><td style="font-weight:bold;vertical-align:top;">httponly</td><td style="vertical-align:top;">:</td><td><div></div></td></tr><tr><td style="font-weight:bold;vertical-align:top;">max-age</td><td style="vertical-align:top;">:</td><td><div></div></td></tr><tr><td style="font-weight:bold;vertical-align:top;">path</td><td style="vertical-align:top;">:</td><td><div></div></td></tr><tr><td style="font-weight:bold;vertical-align:top;">secure</td><td style="vertical-align:top;">:</td><td><div></div></td></tr><tr><td style="font-weight:bold;vertical-align:top;">version</td><td style="vertical-align:top;">:</td><td><div></div></td></tr></table></div></td></tr><tr><td style="font-weight:bold;vertical-align:top;">session_id_cvrf</td><td style="vertical-align:top;">:</td><td><div>127.0.0.1-84ee6912-1fc3-4928-8bf2-cab072e0b3b2<table><tr><td style="font-weight:bold;vertical-align:top;">comment</td><td style="vertical-align:top;">:</td><td><div></div></td></tr><tr><td style="font-weight:bold;vertical-align:top;">domain</td><td style="vertical-align:top;">:</td><td><div></div></td></tr><tr><td style="font-weight:bold;vertical-align:top;">expires</td><td style="vertical-align:top;">:</td><td><div></div></td></tr><tr><td style="font-weight:bold;vertical-align:top;">httponly</td><td style="vertical-align:top;">:</td><td><div></div></td></tr><tr><td style="font-weight:bold;vertical-align:top;">max-age</td><td style="vertical-align:top;">:</td><td><div></div></td></tr><tr><td style="font-weight:bold;vertical-align:top;">path</td><td style="vertical-align:top;">:</td><td><div></div></td></tr><tr><td style="font-weight:bold;vertical-align:top;">secure</td><td style="vertical-align:top;">:</td><td><div></div></td></tr><tr><td style="font-weight:bold;vertical-align:top;">version</td><td style="vertical-align:top;">:</td><td><div></div></td></tr></table></div></td></tr><tr><td style="font-weight:bold;vertical-align:top;">session_id_cvrf_vieja</td><td style="vertical-align:top;">:</td><td><div>127.0.0.1-fda5962c-f831-4841-9242-eb008c06477e<table><tr><td style="font-weight:bold;vertical-align:top;">comment</td><td style="vertical-align:top;">:</td><td><div></div></td></tr><tr><td style="font-weight:bold;vertical-align:top;">domain</td><td style="vertical-align:top;">:</td><td><div></div></td></tr><tr><td style="font-weight:bold;vertical-align:top;">expires</td><td style="vertical-align:top;">:</td><td><div></div></td></tr><tr><td style="font-weight:bold;vertical-align:top;">httponly</td><td style="vertical-align:top;">:</td><td><div></div></td></tr><tr><td style="font-weight:bold;vertical-align:top;">max-age</td><td style="vertical-align:top;">:</td><td><div></div></td></tr><tr><td style="font-weight:bold;vertical-align:top;">path</td><td style="vertical-align:top;">:</td><td><div></div></td></tr><tr><td style="font-weight:bold;vertical-align:top;">secure</td><td style="vertical-align:top;">:</td><td><div></div></td></tr><tr><td style="font-weight:bold;vertical-align:top;">version</td><td style="vertical-align:top;">:</td><td><div></div></td></tr></table></div></td></tr><tr><td style="font-weight:bold;vertical-align:top;">session_id_proyect</td><td style="vertical-align:top;">:</td><td><div>127.0.0.1-4ab74d2d-e29f-45d8-9100-00b9b8fb1be6<table><tr><td style="font-weight:bold;vertical-align:top;">comment</td><td style="vertical-align:top;">:</td><td><div></div></td></tr><tr><td style="font-weight:bold;vertical-align:top;">domain</td><td style="vertical-align:top;">:</td><td><div></div></td></tr><tr><td style="font-weight:bold;vertical-align:top;">expires</td><td style="vertical-align:top;">:</td><td><div></div></td></tr><tr><td style="font-weight:bold;vertical-align:top;">httponly</td><td style="vertical-align:top;">:</td><td><div></div></td></tr><tr><td style="font-weight:bold;vertical-align:top;">max-age</td><td style="vertical-align:top;">:</td><td><div></div></td></tr><tr><td style="font-weight:bold;vertical-align:top;">path</td><td style="vertical-align:top;">:</td><td><div></div></td></tr><tr><td style="font-weight:bold;vertical-align:top;">secure</td><td style="vertical-align:top;">:</td><td><div></div></td></tr><tr><td style="font-weight:bold;vertical-align:top;">version</td><td style="vertical-align:top;">:</td><td><div></div></td></tr></table></div></td></tr><tr><td style="font-weight:bold;vertical-align:top;">session_id_welcome</td><td style="vertical-align:top;">:</td><td><div>127.0.0.1-2e950d79-ef41-4f45-b5ba-a189bc42dba2<table><tr><td style="font-weight:bold;vertical-align:top;">comment</td><td style="vertical-align:top;">:</td><td><div></div></td></tr><tr><td style="font-weight:bold;vertical-align:top;">domain</td><td style="vertical-align:top;">:</td><td><div></div></td></tr><tr><td style="font-weight:bold;vertical-align:top;">expires</td><td style="vertical-align:top;">:</td><td><div></div></td></tr><tr><td style="font-weight:bold;vertical-align:top;">httponly</td><td style="vertical-align:top;">:</td><td><div></div></td></tr><tr><td style="font-weight:bold;vertical-align:top;">max-age</td><td style="vertical-align:top;">:</td><td><div></div></td></tr><tr><td style="font-weight:bold;vertical-align:top;">path</td><td style="vertical-align:top;">:</td><td><div></div></td></tr><tr><td style="font-weight:bold;vertical-align:top;">secure</td><td style="vertical-align:top;">:</td><td><div></div></td></tr><tr><td style="font-weight:bold;vertical-align:top;">version</td><td style="vertical-align:top;">:</td><td><div></div></td></tr></table></div></td></tr></table></div></td></tr><tr><td style="font-weight:bold;vertical-align:top;">env</td><td style="vertical-align:top;">:</td><td><div><table><tr><td style="font-weight:bold;vertical-align:top;">HTTP_ACCEPT</td><td style="vertical-align:top;">:</td><td><div>*/*</div></td></tr><tr><td style="font-weight:bold;vertical-align:top;">HTTP_ACCEPT_ENCODING</td><td style="vertical-align:top;">:</td><td><div>gzip, deflate, sdch, br</div></td></tr><tr><td style="font-weight:bold;vertical-align:top;">HTTP_ACCEPT_LANGUAGE</td><td style="vertical-align:top;">:</td><td><div>es-ES,es;q=0.8</div></td></tr><tr><td style="font-weight:bold;vertical-align:top;">HTTP_CONNECTION</td><td style="vertical-align:top;">:</td><td><div>keep-alive</div></td></tr><tr><td style="font-weight:bold;vertical-align:top;">HTTP_COOKIE</td><td style="vertical-align:top;">:</td><td><div>session_id_welcome=127.0.0.1-2e950d79-ef41-4f45-b5ba-a189bc42dba2; session_id_cvrf_vieja=127.0.0.1-fda5962c-f831-4841-9242-eb008c06477e; session_id_cvrf=127.0.0.1-84ee6912-1fc3-4928-8bf2-cab072e0b3b2; session_id_admin=127.0.0.1-62d08a5f-5b8f-4e77-b25e-42ed0f79425a; session_id_proyect=127.0.0.1-4ab74d2d-e29f-45d8-9100-00b9b8fb1be6</div></td></tr><tr><td style="font-weight:bold;vertical-align:top;">HTTP_HOST</td><td style="vertical-align:top;">:</td><td><div>localhost:8000</div></td></tr><tr><td style="font-weight:bold;vertical-align:top;">HTTP_REFERER</td><td style="vertical-align:top;">:</td><td><div>http://localhost:8000/proyect/estudiante/cuestionario_diagnostico</div></td></tr><tr><td style="font-weight:bold;vertical-align:top;">HTTP_USER_AGENT</td><td style="vertical-align:top;">:</td><td><div>Mozilla/5.0 (X11; Linux x86_64) AppleWebKit/537.36 (KHTML, like Gecko) Ubuntu Chromium/55.0.2883.87 Chrome/55.0.2883.87 Safari/537.36</div></td></tr><tr><td style="font-weight:bold;vertical-align:top;">HTTP_WEB2PY_COMPONENT_ELEMENT</td><td style="vertical-align:top;">:</td><td><div>c958918210027</div></td></tr><tr><td style="font-weight:bold;vertical-align:top;">HTTP_WEB2PY_COMPONENT_LOCATION</td><td style="vertical-align:top;">:</td><td><div>http://localhost:8000/proyect/estudiante/cuestionario_diagnostico</div></td></tr><tr><td style="font-weight:bold;vertical-align:top;">HTTP_X_REQUESTED_WITH</td><td style="vertical-align:top;">:</td><td><div>XMLHttpRequest</div></td></tr><tr><td style="font-weight:bold;vertical-align:top;">PATH_INFO</td><td style="vertical-align:top;">:</td><td><div>/proyect/estudiante/visor_preguntas.load/27432087091748039009850110663/0</div></td></tr><tr><td style="font-weight:bold;vertical-align:top;">QUERY_STRING</td><td style="vertical-align:top;">:</td><td><div>_signature=f6c26927d11626076e67131508325a1193946e89</div></td></tr><tr><td style="font-weight:bold;vertical-align:top;">REMOTE_ADDR</td><td style="vertical-align:top;">:</td><td><div>127.0.0.1</div></td></tr><tr><td style="font-weight:bold;vertical-align:top;">REMOTE_PORT</td><td style="vertical-align:top;">:</td><td><div>47388</div></td></tr><tr><td style="font-weight:bold;vertical-align:top;">REQUEST_METHOD</td><td style="vertical-align:top;">:</td><td><div>GET</div></td></tr><tr><td style="font-weight:bold;vertical-align:top;">SCRIPT_NAME</td><td style="vertical-align:top;">:</td><td><div></div></td></tr><tr><td style="font-weight:bold;vertical-align:top;">SERVER_NAME</td><td style="vertical-align:top;">:</td><td><div>yasmany-tp500lab</div></td></tr><tr><td style="font-weight:bold;vertical-align:top;">SERVER_PORT</td><td style="vertical-align:top;">:</td><td><div>8000</div></td></tr><tr><td style="font-weight:bold;vertical-align:top;">SERVER_PROTOCOL</td><td style="vertical-align:top;">:</td><td><div>HTTP/1.1</div></td></tr><tr><td style="font-weight:bold;vertical-align:top;">SERVER_SOFTWARE</td><td style="vertical-align:top;">:</td><td><div>Rocket 1.2.6</div></td></tr><tr><td style="font-weight:bold;vertical-align:top;">app_folders</td><td style="vertical-align:top;">:</td><td><div>set([&#x27;/opt/python/web2py/web2py/applications/proyect/&#x27;, &#x27;/opt/python/web2py/web2py/applications/admin/&#x27;])</div></td></tr><tr><td style="font-weight:bold;vertical-align:top;">applications_parent</td><td style="vertical-align:top;">:</td><td><div>/opt/python/web2py/web2py</div></td></tr><tr><td style="font-weight:bold;vertical-align:top;">cmd_args</td><td style="vertical-align:top;">:</td><td><div><table></table></div></td></tr><tr><td style="font-weight:bold;vertical-align:top;">cmd_options</td><td style="vertical-align:top;">:</td><td><div>&lt;Values at 0x7fb02c767128: {&#x27;verbose&#x27;: False, &#x27;ip&#x27;: &#x27;127.0.0.1&#x27;, &#x27;debuglevel&#x27;: 30, &#x27;with_scheduler&#x27;: False, &#x27;shutdown_timeout&#x27;: 5, &#x27;taskbar&#x27;: False, &#x27;with_coverage&#x27;: False, &#x27;pid_filename&#x27;: &#x27;httpserver.pid&#x27;, &#x27;maxthreads&#x27;: None, &#x27;softcron&#x27;: False, &#x27;server_name&#x27;: &#x27;yasmany-tp500lab&#x27;, &#x27;bpython&#x27;: False, &#x27;nogui&#x27;: False, &#x27;port&#x27;: 8000, &#x27;print_errors&#x27;: False, &#x27;extcron&#x27;: False, &#x27;runcron&#x27;: False, &#x27;run_system_tests&#x27;: False, &#x27;test&#x27;: None, &#x27;folder&#x27;: &#x27;/opt/python/web2py/web2py&#x27;, &#x27;config&#x27;: &#x27;&#x27;, &#x27;minthreads&#x27;: None, &#x27;shell&#x27;: None, &#x27;run&#x27;: &#x27;&#x27;, &#x27;log_filename&#x27;: &#x27;httpserver.log&#x27;, &#x27;profiler_dir&#x27;: None, &#x27;args&#x27;: [&#x27;&#x27;], &#x27;socket_timeout&#x27;: 5, &#x27;ssl_ca_certificate&#x27;: None, &#x27;scheduler&#x27;: None, &#x27;interfaces&#x27;: None, &#x27;ssl_private_key&#x27;: &#x27;&#x27;, &#x27;gae&#x27;: None, &#x27;password&#x27;: &#x27;******&#x27;, &#x27;request_queue_size&#x27;: 5, &#x27;ssl_certificate&#x27;: &#x27;&#x27;, &#x27;cronjob&#x27;: False, &#x27;numthreads&#x27;: None, &#x27;quiet&#x27;: False, &#x27;import_models&#x27;: False, &#x27;timeout&#x27;: 10, &#x27;plain&#x27;: False, &#x27;nobanner&#x27;: False}&gt;</div></td></tr><tr><td style="font-weight:bold;vertical-align:top;">db_sessions</td><td style="vertical-align:top;">:</td><td><div>set([])</div></td></tr><tr><td style="font-weight:bold;vertical-align:top;">debugging</td><td style="vertical-align:top;">:</td><td><div>False</div></td></tr><tr><td style="font-weight:bold;vertical-align:top;">gluon_parent</td><td style="vertical-align:top;">:</td><td><div>/opt/python/web2py/web2py</div></td></tr><tr><td style="font-weight:bold;vertical-align:top;">http_accept</td><td style="vertical-align:top;">:</td><td><div>*/*</div></td></tr><tr><td style="font-weight:bold;vertical-align:top;">http_accept_encoding</td><td style="vertical-align:top;">:</td><td><div>gzip, deflate, sdch, br</div></td></tr><tr><td style="font-weight:bold;vertical-align:top;">http_accept_language</td><td style="vertical-align:top;">:</td><td><div>es-ES,es;q=0.8</div></td></tr><tr><td style="font-weight:bold;vertical-align:top;">http_connection</td><td style="vertical-align:top;">:</td><td><div>keep-alive</div></td></tr><tr><td style="font-weight:bold;vertical-align:top;">http_cookie</td><td style="vertical-align:top;">:</td><td><div>session_id_welcome=127.0.0.1-2e950d79-ef41-4f45-b5ba-a189bc42dba2; session_id_cvrf_vieja=127.0.0.1-fda5962c-f831-4841-9242-eb008c06477e; session_id_cvrf=127.0.0.1-84ee6912-1fc3-4928-8bf2-cab072e0b3b2; session_id_admin=127.0.0.1-62d08a5f-5b8f-4e77-b25e-42ed0f79425a; session_id_proyect=127.0.0.1-4ab74d2d-e29f-45d8-9100-00b9b8fb1be6</div></td></tr><tr><td style="font-weight:bold;vertical-align:top;">http_host</td><td style="vertical-align:top;">:</td><td><div>localhost:8000</div></td></tr><tr><td style="font-weight:bold;vertical-align:top;">http_referer</td><td style="vertical-align:top;">:</td><td><div>http://localhost:8000/proyect/estudiante/cuestionario_diagnostico</div></td></tr><tr><td style="font-weight:bold;vertical-align:top;">http_user_agent</td><td style="vertical-align:top;">:</td><td><div>Mozilla/5.0 (X11; Linux x86_64) AppleWebKit/537.36 (KHTML, like Gecko) Ubuntu Chromium/55.0.2883.87 Chrome/55.0.2883.87 Safari/537.36</div></td></tr><tr><td style="font-weight:bold;vertical-align:top;">http_web2py_component_element</td><td style="vertical-align:top;">:</td><td><div>c958918210027</div></td></tr><tr><td style="font-weight:bold;vertical-align:top;">http_web2py_component_location</td><td style="vertical-align:top;">:</td><td><div>http://localhost:8000/proyect/estudiante/cuestionario_diagnostico</div></td></tr><tr><td style="font-weight:bold;vertical-align:top;">http_x_requested_with</td><td style="vertical-align:top;">:</td><td><div>XMLHttpRequest</div></td></tr><tr><td style="font-weight:bold;vertical-align:top;">is_jython</td><td style="vertical-align:top;">:</td><td><div>False</div></td></tr><tr><td style="font-weight:bold;vertical-align:top;">is_pypy</td><td style="vertical-align:top;">:</td><td><div>False</div></td></tr><tr><td style="font-weight:bold;vertical-align:top;">is_source</td><td style="vertical-align:top;">:</td><td><div>True</div></td></tr><tr><td style="font-weight:bold;vertical-align:top;">local_hosts</td><td style="vertical-align:top;">:</td><td><div><table><tr><td><div>yasmany-tp500lab</div></td></tr><tr><td><div>127.0.1.1</div></td></tr><tr><td><div>::ffff:127.0.0.1</div></td></tr><tr><td><div>::1</div></td></tr><tr><td><div>yasmany-TP500LAB</div></td></tr><tr><td><div>127.0.0.1</div></td></tr></table></div></td></tr><tr><td style="font-weight:bold;vertical-align:top;">path_info</td><td style="vertical-align:top;">:</td><td><div>/proyect/estudiante/visor_preguntas.load/27432087091748039009850110663/0</div></td></tr><tr><td style="font-weight:bold;vertical-align:top;">query_string</td><td style="vertical-align:top;">:</td><td><div>_signature=f6c26927d11626076e67131508325a1193946e89</div></td></tr><tr><td style="font-weight:bold;vertical-align:top;">remote_addr</td><td style="vertical-align:top;">:</td><td><div>127.0.0.1</div></td></tr><tr><td style="font-weight:bold;vertical-align:top;">remote_port</td><td style="vertical-align:top;">:</td><td><div>47388</div></td></tr><tr><td style="font-weight:bold;vertical-align:top;">request_method</td><td style="vertical-align:top;">:</td><td><div>GET</div></td></tr><tr><td style="font-weight:bold;vertical-align:top;">request_uri</td><td style="vertical-align:top;">:</td><td><div>/proyect/estudiante/visor_preguntas.load/27432087091748039009850110663/0?_signature=f6c26927d11626076e67131508325a1193946e89</div></td></tr><tr><td style="font-weight:bold;vertical-align:top;">script_name</td><td style="vertical-align:top;">:</td><td><div></div></td></tr><tr><td style="font-weight:bold;vertical-align:top;">server_name</td><td style="vertical-align:top;">:</td><td><div>yasmany-tp500lab</div></td></tr><tr><td style="font-weight:bold;vertical-align:top;">server_port</td><td style="vertical-align:top;">:</td><td><div>8000</div></td></tr><tr><td style="font-weight:bold;vertical-align:top;">server_protocol</td><td style="vertical-align:top;">:</td><td><div>HTTP/1.1</div></td></tr><tr><td style="font-weight:bold;vertical-align:top;">server_software</td><td style="vertical-align:top;">:</td><td><div>Rocket 1.2.6</div></td></tr><tr><td style="font-weight:bold;vertical-align:top;">web2py_path</td><td style="vertical-align:top;">:</td><td><div>/opt/python/web2py/web2py</div></td></tr><tr><td style="font-weight:bold;vertical-align:top;">web2py_version</td><td style="vertical-align:top;">:</td><td><div>2.14.6-stable+timestamp.2016.05.10.00.21.47</div></td></tr><tr><td style="font-weight:bold;vertical-align:top;">wsgi.errors</td><td style="vertical-align:top;">:</td><td><div>&lt;open file &#x27;&lt;stderr&gt;&#x27;, mode &#x27;w&#x27; at 0x7fb03145d1e0&gt;</div></td></tr><tr><td style="font-weight:bold;vertical-align:top;">wsgi.file_wrapper</td><td style="vertical-align:top;">:</td><td><div>&lt;class wsgiref.util.FileWrapper at 0x7fb02c7b4390&gt;</div></td></tr><tr><td style="font-weight:bold;vertical-align:top;">wsgi.input</td><td style="vertical-align:top;">:</td><td><div>&lt;socket._fileobject object at 0x7fb0282219d0&gt;</div></td></tr><tr><td style="font-weight:bold;vertical-align:top;">wsgi.multiprocess</td><td style="vertical-align:top;">:</td><td><div>False</div></td></tr><tr><td style="font-weight:bold;vertical-align:top;">wsgi.multithread</td><td style="vertical-align:top;">:</td><td><div>True</div></td></tr><tr><td style="font-weight:bold;vertical-align:top;">wsgi.run_once</td><td style="vertical-align:top;">:</td><td><div>False</div></td></tr><tr><td style="font-weight:bold;vertical-align:top;">wsgi.url_scheme</td><td style="vertical-align:top;">:</td><td><div>http</div></td></tr><tr><td style="font-weight:bold;vertical-align:top;">wsgi.version</td><td style="vertical-align:top;">:</td><td><div><table><tr><td><div>1</div></td></tr><tr><td><div>0</div></td></tr></table></div></td></tr><tr><td style="font-weight:bold;vertical-align:top;">wsgi_errors</td><td style="vertical-align:top;">:</td><td><div>&lt;open file &#x27;&lt;stderr&gt;&#x27;, mode &#x27;w&#x27; at 0x7fb03145d1e0&gt;</div></td></tr><tr><td style="font-weight:bold;vertical-align:top;">wsgi_file_wrapper</td><td style="vertical-align:top;">:</td><td><div>&lt;class wsgiref.util.FileWrapper at 0x7fb02c7b4390&gt;</div></td></tr><tr><td style="font-weight:bold;vertical-align:top;">wsgi_input</td><td style="vertical-align:top;">:</td><td><div>&lt;socket._fileobject object at 0x7fb0282219d0&gt;</div></td></tr><tr><td style="font-weight:bold;vertical-align:top;">wsgi_multiprocess</td><td style="vertical-align:top;">:</td><td><div>False</div></td></tr><tr><td style="font-weight:bold;vertical-align:top;">wsgi_multithread</td><td style="vertical-align:top;">:</td><td><div>True</div></td></tr><tr><td style="font-weight:bold;vertical-align:top;">wsgi_run_once</td><td style="vertical-align:top;">:</td><td><div>False</div></td></tr><tr><td style="font-weight:bold;vertical-align:top;">wsgi_url_scheme</td><td style="vertical-align:top;">:</td><td><div>http</div></td></tr><tr><td style="font-weight:bold;vertical-align:top;">wsgi_version</td><td style="vertical-align:top;">:</td><td><div><table><tr><td><div>1</div></td></tr><tr><td><div>0</div></td></tr></table></div></td></tr></table></div></td></tr><tr><td style="font-weight:bold;vertical-align:top;">extension</td><td style="vertical-align:top;">:</td><td><div>load</div></td></tr><tr><td style="font-weight:bold;vertical-align:top;">folder</td><td style="vertical-align:top;">:</td><td><div>/opt/python/web2py/web2py/applications/proyect/</div></td></tr><tr><td style="font-weight:bold;vertical-align:top;">function</td><td style="vertical-align:top;">:</td><td><div>visor_preguntas</div></td></tr><tr><td style="font-weight:bold;vertical-align:top;">global_settings</td><td style="vertical-align:top;">:</td><td><div><table><tr><td style="font-weight:bold;vertical-align:top;">app_folders</td><td style="vertical-align:top;">:</td><td><div>set([&#x27;/opt/python/web2py/web2py/applications/proyect/&#x27;, &#x27;/opt/python/web2py/web2py/applications/admin/&#x27;])</div></td></tr><tr><td style="font-weight:bold;vertical-align:top;">applications_parent</td><td style="vertical-align:top;">:</td><td><div>/opt/python/web2py/web2py</div></td></tr><tr><td style="font-weight:bold;vertical-align:top;">cmd_args</td><td style="vertical-align:top;">:</td><td><div><table></table></div></td></tr><tr><td style="font-weight:bold;vertical-align:top;">cmd_options</td><td style="vertical-align:top;">:</td><td><div>&lt;Values at 0x7fb02c767128: {&#x27;verbose&#x27;: False, &#x27;ip&#x27;: &#x27;127.0.0.1&#x27;, &#x27;debuglevel&#x27;: 30, &#x27;with_scheduler&#x27;: False, &#x27;shutdown_timeout&#x27;: 5, &#x27;taskbar&#x27;: False, &#x27;with_coverage&#x27;: False, &#x27;pid_filename&#x27;: &#x27;httpserver.pid&#x27;, &#x27;maxthreads&#x27;: None, &#x27;softcron&#x27;: False, &#x27;server_name&#x27;: &#x27;yasmany-tp500lab&#x27;, &#x27;bpython&#x27;: False, &#x27;nogui&#x27;: False, &#x27;port&#x27;: 8000, &#x27;print_errors&#x27;: False, &#x27;extcron&#x27;: False, &#x27;runcron&#x27;: False, &#x27;run_system_tests&#x27;: False, &#x27;test&#x27;: None, &#x27;folder&#x27;: &#x27;/opt/python/web2py/web2py&#x27;, &#x27;config&#x27;: &#x27;&#x27;, &#x27;minthreads&#x27;: None, &#x27;shell&#x27;: None, &#x27;run&#x27;: &#x27;&#x27;, &#x27;log_filename&#x27;: &#x27;httpserver.log&#x27;, &#x27;profiler_dir&#x27;: None, &#x27;args&#x27;: [&#x27;&#x27;], &#x27;socket_timeout&#x27;: 5, &#x27;ssl_ca_certificate&#x27;: None, &#x27;scheduler&#x27;: None, &#x27;interfaces&#x27;: None, &#x27;ssl_private_key&#x27;: &#x27;&#x27;, &#x27;gae&#x27;: None, &#x27;password&#x27;: &#x27;******&#x27;, &#x27;request_queue_size&#x27;: 5, &#x27;ssl_certificate&#x27;: &#x27;&#x27;, &#x27;cronjob&#x27;: False, &#x27;numthreads&#x27;: None, &#x27;quiet&#x27;: False, &#x27;import_models&#x27;: False, &#x27;timeout&#x27;: 10, &#x27;plain&#x27;: False, &#x27;nobanner&#x27;: False}&gt;</div></td></tr><tr><td style="font-weight:bold;vertical-align:top;">db_sessions</td><td style="vertical-align:top;">:</td><td><div>set([])</div></td></tr><tr><td style="font-weight:bold;vertical-align:top;">debugging</td><td style="vertical-align:top;">:</td><td><div>False</div></td></tr><tr><td style="font-weight:bold;vertical-align:top;">gluon_parent</td><td style="vertical-align:top;">:</td><td><div>/opt/python/web2py/web2py</div></td></tr><tr><td style="font-weight:bold;vertical-align:top;">is_jython</td><td style="vertical-align:top;">:</td><td><div>False</div></td></tr><tr><td style="font-weight:bold;vertical-align:top;">is_pypy</td><td style="vertical-align:top;">:</td><td><div>False</div></td></tr><tr><td style="font-weight:bold;vertical-align:top;">is_source</td><td style="vertical-align:top;">:</td><td><div>True</div></td></tr><tr><td style="font-weight:bold;vertical-align:top;">local_hosts</td><td style="vertical-align:top;">:</td><td><div><table><tr><td><div>yasmany-tp500lab</div></td></tr><tr><td><div>127.0.1.1</div></td></tr><tr><td><div>::ffff:127.0.0.1</div></td></tr><tr><td><div>::1</div></td></tr><tr><td><div>yasmany-TP500LAB</div></td></tr><tr><td><div>127.0.0.1</div></td></tr></table></div></td></tr><tr><td style="font-weight:bold;vertical-align:top;">web2py_version</td><td style="vertical-align:top;">:</td><td><div>2.14.6-stable+timestamp.2016.05.10.00.21.47</div></td></tr></table></div></td></tr><tr><td style="font-weight:bold;vertical-align:top;">is_https</td><td style="vertical-align:top;">:</td><td><div>False</div></td></tr><tr><td style="font-weight:bold;vertical-align:top;">is_local</td><td style="vertical-align:top;">:</td><td><div>True</div></td></tr><tr><td style="font-weight:bold;vertical-align:top;">is_restful</td><td style="vertical-align:top;">:</td><td><div>False</div></td></tr><tr><td style="font-weight:bold;vertical-align:top;">is_scheduler</td><td style="vertical-align:top;">:</td><td><div>False</div></td></tr><tr><td style="font-weight:bold;vertical-align:top;">is_shell</td><td style="vertical-align:top;">:</td><td><div>False</div></td></tr><tr><td style="font-weight:bold;vertical-align:top;">now</td><td style="vertical-align:top;">:</td><td><div>datetime.datetime(2017, 2, 22, 15, 52, 33, 27740)</div></td></tr><tr><td style="font-weight:bold;vertical-align:top;">raw_args</td><td style="vertical-align:top;">:</td><td><div>27432087091748039009850110663/0</div></td></tr><tr><td style="font-weight:bold;vertical-align:top;">raw_extension</td><td style="vertical-align:top;">:</td><td><div>load</div></td></tr><tr><td style="font-weight:bold;vertical-align:top;">url</td><td style="vertical-align:top;">:</td><td><div>/proyect/estudiante/visor_preguntas.load/27432087091748039009850110663/0</div></td></tr><tr><td style="font-weight:bold;vertical-align:top;">utcnow</td><td style="vertical-align:top;">:</td><td><div>datetime.datetime(2017, 2, 22, 20, 52, 33, 27758)</div></td></tr><tr><td style="font-weight:bold;vertical-align:top;">wsgi</td><td style="vertical-align:top;">:</td><td><div>&lt;gluon.main.LazyWSGI object at 0x7fb02805bdd0&gt;</div></td></tr></table></div>'
tRp70
sS'frames'
p71
(lp72
(dp73
S'file'
p74
S'/opt/python/web2py/web2py/gluon/restricted.py'
p75
sS'dump'
p76
(dp77
S'code'
p78
S'"response.write(\'<article>\\\\n\\\\n\', escape=False)\\nif...   opacity: 0;\\\\n    }\\\\n</style>\\\\n\', escape=False)"'
p79
sS'layer'
p80
S"'/opt/python/web2py/web2py/applications/proyect/views/estudiante/visor_preguntas.load'"
p81
sS'global compile2'
p82
S'<function compile2>'
p83
sS'ccode'
p84
S'undefined'
p85
ssS'lnum'
p86
I226
sS'lines'
p87
(dp88
I224
S'            ccode = code'
p89
sI225
S'        else:'
p90
sI226
S'            ccode = compile2(code, layer)'
p91
sI227
S'        exec ccode in environment'
p92
sI228
S'    except HTTP:'
p93
sI229
S'        raise'
p94
sI230
S'    except RestrictedError:'
p95
sI221
S"    environment['__name__'] = '__restricted__'"
p96
sI222
S'    try:'
p97
sI223
S'        if isinstance(code, types.CodeType):'
p98
ssS'call'
p99
S'(code="response.write(\'<article>\\\\n\\\\n\', escape=False)\\nif...   opacity: 0;\\\\n    }\\\\n</style>\\\\n\', escape=False)", environment={\'A\': <class \'gluon.html.A\'>, \'ANY_OF\': <class \'gluon.validators.ANY_OF\'>, \'ASSIGNJS\': <function ASSIGNJS>, \'AppConfig\': <function AppConfig>, \'Auth\': <class \'gluon.tools.Auth\'>, \'B\': <class \'gluon.html.B\'>, \'BEAUTIFY\': <class \'gluon.html.BEAUTIFY\'>, \'BODY\': <class \'gluon.html.BODY\'>, \'BR\': <class \'gluon.html.BR\'>, \'BUTTON\': <class \'gluon.html.BUTTON\'>, ...}, layer=\'/opt/python/web2py/web2py/applications/proyect/views/estudiante/visor_preguntas.load\')'
p100
sS'func'
p101
S'restricted'
p102
sa(dp103
g74
S'/opt/python/web2py/web2py/gluon/restricted.py'
p104
sg76
(dp105
S'builtincompile'
p106
S'<built-in function compile>'
p107
sS'code'
p108
S'"response.write(\'<article>\\\\n\\\\n\', escape=False)\\nif...   opacity: 0;\\\\n    }\\\\n</style>\\\\n\', escape=False)"'
p109
sS'code.rstrip'
p110
S'<built-in method rstrip of str object>'
p111
sS').replace'
p112
g85
sS'layer'
p113
S"'/opt/python/web2py/web2py/applications/proyect/views/estudiante/visor_preguntas.load'"
p114
ssg86
I209
sg87
(dp115
I204
S'def compile2(code, layer):'
p116
sI205
S'    """'
p117
sI206
S"    The ``+'\\\\n'`` is necessary else compile fails when code ends in a comment."
p118
sI207
S'    """'
p119
sI208
S''
sI209
S"    return compile(code.rstrip().replace('\\r\\n', '\\n') + '\\n', layer, 'exec')"
p120
sI210
S''
sI211
S''
sI212
S"def restricted(code, environment=None, layer='Unknown'):"
p121
sI213
S'    """'
p122
ssg99
S'(code="response.write(\'<article>\\\\n\\\\n\', escape=False)\\nif...   opacity: 0;\\\\n    }\\\\n</style>\\\\n\', escape=False)", layer=\'/opt/python/web2py/web2py/applications/proyect/views/estudiante/visor_preguntas.load\')'
p123
sg101
S'compile2'
p124
sasS'pyver'
p125
S'Python 2.7.12: /usr/bin/python (prefix: /usr)'
p126
sS'session'
p127
g69
(S's\xd6\t\x00\x00<div><table><tr><td style="font-weight:bold;vertical-align:top;">auth</td><td style="vertical-align:top;">:</td><td><div><table><tr><td style="font-weight:bold;vertical-align:top;">expiration</td><td style="vertical-align:top;">:</td><td><div>3600</div></td></tr><tr><td style="font-weight:bold;vertical-align:top;">hmac_key</td><td style="vertical-align:top;">:</td><td><div>057e53d0-b838-4bd2-8bc8-65f7e2518c4f</div></td></tr><tr><td style="font-weight:bold;vertical-align:top;">last_visit</td><td style="vertical-align:top;">:</td><td><div>datetime.datetime(2017, 2, 22, 15, 52, 29, 12351)</div></td></tr><tr><td style="font-weight:bold;vertical-align:top;">remember_me</td><td style="vertical-align:top;">:</td><td><div>False</div></td></tr><tr><td style="font-weight:bold;vertical-align:top;">user</td><td style="vertical-align:top;">:</td><td><div><table><tr><td style="font-weight:bold;vertical-align:top;">email</td><td style="vertical-align:top;">:</td><td><div>estudiante@upr.edu.cu</div></td></tr><tr><td style="font-weight:bold;vertical-align:top;">fecha_nacimiento</td><td style="vertical-align:top;">:</td><td><div>datetime.date(1988, 9, 19)</div></td></tr><tr><td style="font-weight:bold;vertical-align:top;">first_name</td><td style="vertical-align:top;">:</td><td><div>Yasmany</div></td></tr><tr><td style="font-weight:bold;vertical-align:top;">id</td><td style="vertical-align:top;">:</td><td><div>27427756755470223859474236108L</div></td></tr><tr><td style="font-weight:bold;vertical-align:top;">last_name</td><td style="vertical-align:top;">:</td><td><div>Santalla Pereda</div></td></tr><tr><td style="font-weight:bold;vertical-align:top;">registration_id</td><td style="vertical-align:top;">:</td><td><div></div></td></tr><tr><td style="font-weight:bold;vertical-align:top;">registration_key</td><td style="vertical-align:top;">:</td><td><div></div></td></tr><tr><td style="font-weight:bold;vertical-align:top;">reset_password_key</td><td style="vertical-align:top;">:</td><td><div></div></td></tr></table></div></td></tr><tr><td style="font-weight:bold;vertical-align:top;">user_groups</td><td style="vertical-align:top;">:</td><td><div><table><tr><td style="font-weight:bold;vertical-align:top;">27427755759346043879158448841</td><td style="vertical-align:top;">:</td><td><div>Estudiante</div></td></tr></table></div></td></tr></table></div></td></tr><tr><td style="font-weight:bold;vertical-align:top;">flash</td><td style="vertical-align:top;">:</td><td><div>None</div></td></tr></table></div>'
tRp128
sS'etype'
p129
S"<type 'exceptions.SyntaxError'>"
p130
sS'date'
p131
S'Wed Feb 22 15:52:33 2017'
p132
sS'response'
p133
g69
(S's\xdb.\x00\x00<div><table><tr><td style="font-weight:bold;vertical-align:top;">body</td><td style="vertical-align:top;">:</td><td><div>&lt;cStringIO.StringO object at 0x7fb008580180&gt;</div></td></tr><tr><td style="font-weight:bold;vertical-align:top;">cookies</td><td style="vertical-align:top;">:</td><td><div><table><tr><td style="font-weight:bold;vertical-align:top;">session_id_proyect</td><td style="vertical-align:top;">:</td><td><div>127.0.0.1-4ab74d2d-e29f-45d8-9100-00b9b8fb1be6<table><tr><td style="font-weight:bold;vertical-align:top;">comment</td><td style="vertical-align:top;">:</td><td><div></div></td></tr><tr><td style="font-weight:bold;vertical-align:top;">domain</td><td style="vertical-align:top;">:</td><td><div></div></td></tr><tr><td style="font-weight:bold;vertical-align:top;">expires</td><td style="vertical-align:top;">:</td><td><div></div></td></tr><tr><td style="font-weight:bold;vertical-align:top;">httponly</td><td style="vertical-align:top;">:</td><td><div></div></td></tr><tr><td style="font-weight:bold;vertical-align:top;">max-age</td><td style="vertical-align:top;">:</td><td><div></div></td></tr><tr><td style="font-weight:bold;vertical-align:top;">path</td><td style="vertical-align:top;">:</td><td><div>/</div></td></tr><tr><td style="font-weight:bold;vertical-align:top;">secure</td><td style="vertical-align:top;">:</td><td><div></div></td></tr><tr><td style="font-weight:bold;vertical-align:top;">version</td><td style="vertical-align:top;">:</td><td><div></div></td></tr></table></div></td></tr></table></div></td></tr><tr><td style="font-weight:bold;vertical-align:top;">delimiters</td><td style="vertical-align:top;">:</td><td><div><table><tr><td><div>{{</div></td></tr><tr><td><div>}}</div></td></tr></table></div></td></tr><tr><td style="font-weight:bold;vertical-align:top;">files</td><td style="vertical-align:top;">:</td><td><div><table></table></div></td></tr><tr><td style="font-weight:bold;vertical-align:top;">flash</td><td style="vertical-align:top;">:</td><td><div></div></td></tr><tr><td style="font-weight:bold;vertical-align:top;">form_label_separator</td><td style="vertical-align:top;">:</td><td><div></div></td></tr><tr><td style="font-weight:bold;vertical-align:top;">formstyle</td><td style="vertical-align:top;">:</td><td><div>bootstrap3_inline</div></td></tr><tr><td style="font-weight:bold;vertical-align:top;">generic_patterns</td><td style="vertical-align:top;">:</td><td><div><table><tr><td><div>*</div></td></tr></table></div></td></tr><tr><td style="font-weight:bold;vertical-align:top;">google_analytics_id</td><td style="vertical-align:top;">:</td><td><div>None</div></td></tr><tr><td style="font-weight:bold;vertical-align:top;">headers</td><td style="vertical-align:top;">:</td><td><div><table><tr><td style="font-weight:bold;vertical-align:top;">X-Powered-By</td><td style="vertical-align:top;">:</td><td><div>web2py</div></td></tr></table></div></td></tr><tr><td style="font-weight:bold;vertical-align:top;">logo</td><td style="vertical-align:top;">:</td><td><div><h5><a class="navbar-brand-name" data-target="#index" href="/proyect/default/index.load" id="index">Logo&trade;&nbsp;</a></h5></div></td></tr><tr><td style="font-weight:bold;vertical-align:top;">menu</td><td style="vertical-align:top;">:</td><td><div><table><tr><td><div><table><tr><td><div><ico class="glyphicon glyphicon-edit"></ico> Diagn\xc3\xb3sticos Realizados</div></td></tr><tr><td><div>False</div></td></tr><tr><td><div>/proyect/estudiante/visor_preguntas.load</div></td></tr><tr><td><div><table><tr><td><div><table><tr><td><div>cuestionario_diagnostico</div></td></tr><tr><td><div>False</div></td></tr><tr><td><div><a data-target="#cuestionario_diagnostico" href="/proyect/estudiante/cuestionario_diagnostico.load"><ico class="glyphicon glyphicon-edit"></ico> Diagn\xc3\xb3stico Inicial</a></div></td></tr></table></div></td></tr><tr><td><div><table><tr><td><div>diag_enfocada</div></td></tr><tr><td><div>False</div></td></tr><tr><td><div><a data-target="#diag_enfocada" href="/proyect/estudiante/diag_enfocada.load"><ico class="glyphicon glyphicon-edit"></ico> Atenci\xc3\xb3n Enfocada</a></div></td></tr></table></div></td></tr><tr><td><div><table><tr><td><div>diag_sostenida</div></td></tr><tr><td><div>False</div></td></tr><tr><td><div><a data-target="#diag_sostenida" href="/proyect/estudiante/diag_sostenida.load"><ico class="glyphicon glyphicon-edit"></ico> Atenci\xc3\xb3n Sostenida</a></div></td></tr></table></div></td></tr><tr><td><div><table><tr><td><div>diag_selectiva</div></td></tr><tr><td><div>False</div></td></tr><tr><td><div><a data-target="#diag_selectiva" href="/proyect/estudiante/diag_selectiva.load"><ico class="glyphicon glyphicon-edit"></ico> Atenci\xc3\xb3n Selectiva</a></div></td></tr></table></div></td></tr><tr><td><div><table><tr><td><div>diag_alternada</div></td></tr><tr><td><div>False</div></td></tr><tr><td><div><a data-target="#diag_alternada" href="/proyect/estudiante/diag_alternada.load"><ico class="glyphicon glyphicon-edit"></ico> Atenci\xc3\xb3n Alternada</a></div></td></tr></table></div></td></tr><tr><td><div><table><tr><td><div>diag_dividida</div></td></tr><tr><td><div>False</div></td></tr><tr><td><div><a data-target="#diag_dividida" href="/proyect/estudiante/diag_dividida.load"><ico class="glyphicon glyphicon-edit"></ico> Atenci\xc3\xb3n Dividida</a></div></td></tr></table></div></td></tr></table></div></td></tr></table></div></td></tr><tr><td><div><table><tr><td><div><ico class="glyphicon glyphicon-edit"></ico> Resultados</div></td></tr><tr><td><div>False</div></td></tr><tr><td><div>/proyect/estudiante/visor_preguntas.load</div></td></tr><tr><td><div><table><tr><td><div><table><tr><td><div>resultado_general</div></td></tr><tr><td><div>False</div></td></tr><tr><td><div><a data-target="#resultado_general" href="/proyect/estudiante/resultado_general.load"><ico class="glyphicon glyphicon-edit"></ico> Resultado General</a></div></td></tr></table></div></td></tr><tr><td><div><table><tr><td><div>resultado_enfocada</div></td></tr><tr><td><div>False</div></td></tr><tr><td><div><a data-target="#resultado_enfocada" href="/proyect/estudiante/resultado_enfocada.load"><ico class="glyphicon glyphicon-edit"></ico> Atenci\xc3\xb3n Enfocada</a></div></td></tr></table></div></td></tr><tr><td><div><table><tr><td><div>resultado_sostenida</div></td></tr><tr><td><div>False</div></td></tr><tr><td><div><a data-target="#resultado_sostenida" href="/proyect/estudiante/resultado_sostenida.load"><ico class="glyphicon glyphicon-edit"></ico> Atenci\xc3\xb3n Sostenida</a></div></td></tr></table></div></td></tr><tr><td><div><table><tr><td><div>resultado_selectiva</div></td></tr><tr><td><div>False</div></td></tr><tr><td><div><a data-target="#resultado_selectiva" href="/proyect/estudiante/resultado_selectiva.load"><ico class="glyphicon glyphicon-edit"></ico> Atenci\xc3\xb3n Selectiva</a></div></td></tr></table></div></td></tr><tr><td><div><table><tr><td><div>resultado_alternada</div></td></tr><tr><td><div>False</div></td></tr><tr><td><div><a data-target="#resultado_alternada" href="/proyect/estudiante/resultado_alternada.load"><ico class="glyphicon glyphicon-edit"></ico> Atenci\xc3\xb3n Alternada</a></div></td></tr></table></div></td></tr><tr><td><div><table><tr><td><div>resultado_dividida</div></td></tr><tr><td><div>False</div></td></tr><tr><td><div><a data-target="#resultado_dividida" href="/proyect/estudiante/resultado_dividida.load"><ico class="glyphicon glyphicon-edit"></ico> Atenci\xc3\xb3n Dividida</a></div></td></tr></table></div></td></tr></table></div></td></tr></table></div></td></tr></table></div></td></tr><tr><td style="font-weight:bold;vertical-align:top;">meta</td><td style="vertical-align:top;">:</td><td><div><table><tr><td style="font-weight:bold;vertical-align:top;">author</td><td style="vertical-align:top;">:</td><td><div>Enrique Alfonso Carmona &lt;eacarmona860920@gmail.com&gt;</div></td></tr><tr><td style="font-weight:bold;vertical-align:top;">description</td><td style="vertical-align:top;">:</td><td><div>Sistema automatizado para mejorar la atenci\xc3\xb3n</div></td></tr><tr><td style="font-weight:bold;vertical-align:top;">generator</td><td style="vertical-align:top;">:</td><td><div>Web2py Web Framework</div></td></tr><tr><td style="font-weight:bold;vertical-align:top;">keywords</td><td style="vertical-align:top;">:</td><td><div><table><tr><td><div>web2py</div></td></tr><tr><td><div>python</div></td></tr><tr><td><div>framework</div></td></tr></table></div></td></tr></table></div></td></tr><tr><td style="font-weight:bold;vertical-align:top;">models_to_run</td><td style="vertical-align:top;">:</td><td><div><table><tr><td><div>^\\w+\\.py$</div></td></tr><tr><td><div>^estudiante/\\w+\\.py$</div></td></tr><tr><td><div>^estudiante/visor_preguntas/\\w+\\.py$</div></td></tr></table></div></td></tr><tr><td style="font-weight:bold;vertical-align:top;">optimize_css</td><td style="vertical-align:top;">:</td><td><div>concat,minify,inline</div></td></tr><tr><td style="font-weight:bold;vertical-align:top;">optimize_js</td><td style="vertical-align:top;">:</td><td><div>concat,minify,inline</div></td></tr><tr><td style="font-weight:bold;vertical-align:top;">postprocessing</td><td style="vertical-align:top;">:</td><td><div><table></table></div></td></tr><tr><td style="font-weight:bold;vertical-align:top;">session_client</td><td style="vertical-align:top;">:</td><td><div>127.0.0.1</div></td></tr><tr><td style="font-weight:bold;vertical-align:top;">session_cookie_compression_level</td><td style="vertical-align:top;">:</td><td><div>None</div></td></tr><tr><td style="font-weight:bold;vertical-align:top;">session_cookie_expires</td><td style="vertical-align:top;">:</td><td><div>None</div></td></tr><tr><td style="font-weight:bold;vertical-align:top;">session_data_name</td><td style="vertical-align:top;">:</td><td><div>session_data_proyect</div></td></tr><tr><td style="font-weight:bold;vertical-align:top;">session_file</td><td style="vertical-align:top;">:</td><td><div>&lt;open file &#x27;/opt/python/web2py/web2py/applications/proyect/sessions/068/016/127.0.0.1-4ab74d2d-e29f-45d8-9100-00b9b8fb1be6&#x27;, mode &#x27;rb+&#x27; at 0x7fb0082aeb70&gt;</div></td></tr><tr><td style="font-weight:bold;vertical-align:top;">session_filename</td><td style="vertical-align:top;">:</td><td><div>/opt/python/web2py/web2py/applications/proyect/sessions/127.0.0.1-4ab74d2d-e29f-45d8-9100-00b9b8fb1be6</div></td></tr><tr><td style="font-weight:bold;vertical-align:top;">session_hash</td><td style="vertical-align:top;">:</td><td><div>c8a868ca27c88c0b6bf05d9d6c62c9e8</div></td></tr><tr><td style="font-weight:bold;vertical-align:top;">session_id</td><td style="vertical-align:top;">:</td><td><div>127.0.0.1-4ab74d2d-e29f-45d8-9100-00b9b8fb1be6</div></td></tr><tr><td style="font-weight:bold;vertical-align:top;">session_id_name</td><td style="vertical-align:top;">:</td><td><div>session_id_proyect</div></td></tr><tr><td style="font-weight:bold;vertical-align:top;">session_locked</td><td style="vertical-align:top;">:</td><td><div>True</div></td></tr><tr><td style="font-weight:bold;vertical-align:top;">session_masterapp</td><td style="vertical-align:top;">:</td><td><div>proyect</div></td></tr><tr><td style="font-weight:bold;vertical-align:top;">session_new</td><td style="vertical-align:top;">:</td><td><div>False</div></td></tr><tr><td style="font-weight:bold;vertical-align:top;">session_storage_type</td><td style="vertical-align:top;">:</td><td><div>file</div></td></tr><tr><td style="font-weight:bold;vertical-align:top;">status</td><td style="vertical-align:top;">:</td><td><div>200</div></td></tr><tr><td style="font-weight:bold;vertical-align:top;">subtitle</td><td style="vertical-align:top;">:</td><td><div></div></td></tr><tr><td style="font-weight:bold;vertical-align:top;">title</td><td style="vertical-align:top;">:</td><td><div> | Proyect</div></td></tr><tr><td style="font-weight:bold;vertical-align:top;">view</td><td style="vertical-align:top;">:</td><td><div>estudiante/visor_preguntas.load</div></td></tr></table></div>'
tRp134
sS'locals'
p135
(dp136
g4
S"'/opt/python/web2py/web2py/applications/proyect/views/estudiante/visor_preguntas.load'"
p137
sg6
S'"response.write(\'<article>\\\\n\\\\n\', escape=False)\\nif...   opacity: 0;\\\\n    }\\\\n</style>\\\\n\', escape=False)"'
p138
sssS'traceback'
p139
S'Traceback (most recent call last):\n  File "/opt/python/web2py/web2py/gluon/restricted.py", line 226, in restricted\n    ccode = compile2(code, layer)\n  File "/opt/python/web2py/web2py/gluon/restricted.py", line 209, in compile2\n    return compile(code.rstrip().replace(\'\\r\\n\', \'\\n\') + \'\\n\', layer, \'exec\')\n  File "/opt/python/web2py/web2py/applications/proyect/views/estudiante/visor_preguntas.load", line 34\n    for i in [1,2,3,4,5,6,7,8,9]\n                               ^\nSyntaxError: invalid syntax\n'
p140
s.