(dp1
S'output'
p2
S"<type 'exceptions.NameError'> name 'diagnostico' is not defined"
p3
sS'layer'
p4
S'/opt/python/web2py-files/web2py/applications/proyect/views/estudiante/visor_preguntas.load'
p5
sS'code'
p6
S'response.write(\'<article>\\n\', escape=False)\nif pregunta:\n    response.write(\'\\n    <!--Card-->\\n    <div class="card wow fadeInRight" style="padding: 10px;">\\n        <!--Card title-->\\n        <div class="overlay hm-white-slight">\\n            \', escape=False)\n    response.write(H5(tipo_pregunta[pregunta.tipo]))\n    response.write(\'\\n            <!--Text-->\\n            <p class="card-text">\', escape=False)\n    response.write(P(pregunta.descripcion))\n    response.write(\'</p>\\n            <hr>\\n        </div>\\n        <!--/.Card titlw-->\\n\\n        <!--Card content-->\\n        <div class="card-block text-xs-center">\\n            <form id="pregunta-form" enctype="multipart/form-data">\\n                <input type="hidden" name="id" value="\', escape=False)\n    response.write(respuesta_id)\n    response.write(\'">\\n\\n                \', escape=False)\n    if pregunta.tipo == \'0\':\n        response.write(\'\\n                    \', escape=False)\n        for juego in pregunta.juego_datos.split(\'|\'):\n            response.write(\'\\n                        \', escape=False)\n            response.write(UL(LI(CAT(juego, INPUT(_type="hidden", _name="pregunta", _value=juego), INPUT(_type="text", _name="respuesta"))), _class="nav"))\n            response.write(\'\\n                    \', escape=False)\n            pass\n        response.write(\'\\n                \', escape=False)\n    elif pregunta.tipo == \'1\':\n        response.write(\'\\n                    \', escape=False)\n        response.write(pregunta)\n        response.write(\'\\n                \', escape=False)\n    elif pregunta.tipo == \'2\':\n        response.write(\'\\n                    \', escape=False)\n        response.write(pregunta)\n        response.write(\'\\n                \', escape=False)\n    elif pregunta.tipo == \'3\':\n        response.write(\'\\n                    \', escape=False)\n        response.write(pregunta)\n        response.write(\'\\n                \', escape=False)\n    elif pregunta.tipo == \'4\':\n        response.write(\'\\n                    \', escape=False)\n        response.write(pregunta)\n        response.write(\'\\n                \', escape=False)\n    elif pregunta.tipo == \'5\':\n        response.write(\'\\n                    \', escape=False)\n        response.write(pregunta)\n        response.write(\'\\n                \', escape=False)\n    elif pregunta.tipo == \'6\':\n        response.write(\'\\n                    \', escape=False)\n        response.write(pregunta)\n        response.write(\'\\n                \', escape=False)\n    elif pregunta.tipo == \'7\':\n        response.write(\'\\n                    \', escape=False)\n        response.write(pregunta)\n        response.write(\'\\n                \', escape=False)\n    else:\n        response.write(\'\\n                    <h1>Error </h1>\\n                \', escape=False)\n        pass\n    response.write(\'\\n            </form>\\n\\n            <div class="row">\\n                <div class="col-md-12">\\n                    <hr>\\n                </div>\\n                <div class="col-md-2 col-md-offset-10">\\n                    \', escape=False)\n    response.write(A("Guardar y siguiente", _id="guardar", _class="btn btn-default", _href=URL(args=[pregunta.diagnostico]), cid=request.cid))\n    response.write(\'\\n                </div>\\n            </div>\\n        </div>\\n    </div>\\n    <!--/.Card content-->\\n\\n\\n    <script text="javascript">\\n        $(function () {\\n            /*Funci\\xc3\\xb3n ajax para guardar la pregunta*/\\n            $(\\\'#guardar\\\').click(function(event){\\n                var formData = $(\\\'#pregunta-form\\\').serializeArray();\\n\\n                $.ajax({\\n                    // la URL para la petici\\xc3\\xb3n\\n                    url : \\\'guardar_respuesta\\\',\\n                    // la informaci\\xc3\\xb3n a enviar\\n                    // (tambi\\xc3\\xa9n es posible utilizar una cadena de datos)\\n                    data : formData,\\n                    // especifica si ser\\xc3\\xa1 una petici\\xc3\\xb3n POST o GET\\n                    type : \\\'POST\\\',\\n                    // el tipo de informaci\\xc3\\xb3n que se espera de respuesta\\n                    dataType : \\\'json\\\',\\n                    // c\\xc3\\xb3digo a ejecutar si la petici\\xc3\\xb3n es satisfactoria;\\n                    // la respuesta es pasada como argumento a la funci\\xc3\\xb3n\\n                    success : function(json) {\\n\\n                        console.log(json);\\n                    },\\n                    // c\\xc3\\xb3digo a ejecutar si la petici\\xc3\\xb3n falla;\\n                    // son pasados como argumentos a la funci\\xc3\\xb3n\\n                    // el objeto de la petici\\xc3\\xb3n en crudo y c\\xc3\\xb3digo de estatus de la petici\\xc3\\xb3n\\n                    error : function(xhr, status) {\\n                        alert(\\\'Disculpe, existi\\xc3\\xb3 un problema\\\');\\n                    },\\n                    // c\\xc3\\xb3digo a ejecutar sin importar si la petici\\xc3\\xb3n fall\\xc3\\xb3 o no\\n                    complete : function(xhr, status) {\\n                        console.log(\\\'Petici\\xc3\\xb3n realizada\\\');\\n                    }\\n                });\\n            });\\n        });\\n    </script>\\n\', escape=False)\nelse:\n    response.write(\'\\n    \', escape=False)\n    response.write(H1(T("Se acabaron las preguntas de este cuestionario")))\n    response.write(\'\\n\', escape=False)\n    pass\nresponse.write("\\n</article>\\n\\n<script>\\n    $(function() {\\n        // obtiene informaci\\xc3\\xb3n en formato JSON desde el servidor\\n          $.getJSON(\'get_tiempo\', { diagnostico : \'", escape=False)\nresponse.write(diagnostico.id)\nresponse.write(\'\\\' }, function(json) {\\n              if (json.time){\\n                var timeout = 1000;\\n\\n                var tiempo = new Date();\\n                tiempo.setHours(0);\\n                tiempo.setMinutes(0);\\n                tiempo.setSeconds(0);\\n                var time = tiempo.getTime()-json.time*-1;\\n                tiempo.setTime(time);\\n\\n                var timer = $.timer(timeout, function() {\\n                                time = timeout + time;\\n                                tiempo.setTime(time);\\n                                $("#time").text(tiempo.toLocaleTimeString());\\n                            });\\n              } else {\\n                  $("#time").text("Error");\\n              }\\n\\n          });\\n    });\\n</script>\\n\', escape=False)'
p7
sS'snapshot'
p8
(dp9
S'exception'
p10
(dp11
S'__hash__'
p12
S"<method-wrapper '__hash__' of exceptions.NameError object>"
p13
sS'__setattr__'
p14
S"<method-wrapper '__setattr__' of exceptions.NameError object>"
p15
sS'__reduce_ex__'
p16
S'<built-in method __reduce_ex__ of exceptions.NameError object>'
p17
sS'__getslice__'
p18
S"<method-wrapper '__getslice__' of exceptions.NameError object>"
p19
sS'__getitem__'
p20
S"<method-wrapper '__getitem__' of exceptions.NameError object>"
p21
sS'__setstate__'
p22
S'<built-in method __setstate__ of exceptions.NameError object>'
p23
sS'args'
p24
S'("name \'diagnostico\' is not defined",)'
p25
sS'__reduce__'
p26
S'<built-in method __reduce__ of exceptions.NameError object>'
p27
sS'__str__'
p28
S"<method-wrapper '__str__' of exceptions.NameError object>"
p29
sS'__format__'
p30
S'<built-in method __format__ of exceptions.NameError object>'
p31
sS'__getattribute__'
p32
S"<method-wrapper '__getattribute__' of exceptions.NameError object>"
p33
sS'__class__'
p34
S"<type 'exceptions.NameError'>"
p35
sS'__unicode__'
p36
S'<built-in method __unicode__ of exceptions.NameError object>'
p37
sS'__delattr__'
p38
S"<method-wrapper '__delattr__' of exceptions.NameError object>"
p39
sS'__subclasshook__'
p40
S'<built-in method __subclasshook__ of type object>'
p41
sS'__repr__'
p42
S"<method-wrapper '__repr__' of exceptions.NameError object>"
p43
sS'__dict__'
p44
S'{}'
p45
sS'__sizeof__'
p46
S'<built-in method __sizeof__ of exceptions.NameError object>'
p47
sS'__doc__'
p48
S"'Name not found globally.'"
p49
sS'__init__'
p50
S"<method-wrapper '__init__' of exceptions.NameError object>"
p51
sS'__new__'
p52
S'<built-in method __new__ of type object>'
p53
ssS'evalue'
p54
S"name 'diagnostico' is not defined"
p55
sS'request'
p56
cgluon.html
XML_unpickle
p57
(S's\x9ca\x00\x00<div><table><tr><td style="font-weight:bold;vertical-align:top;">ajax</td><td style="vertical-align:top;">:</td><td><div>True</div></td></tr><tr><td style="font-weight:bold;vertical-align:top;">application</td><td style="vertical-align:top;">:</td><td><div>proyect</div></td></tr><tr><td style="font-weight:bold;vertical-align:top;">args</td><td style="vertical-align:top;">:</td><td><div><table><tr><td><div>27432087091748039009850110663</div></td></tr></table></div></td></tr><tr><td style="font-weight:bold;vertical-align:top;">cid</td><td style="vertical-align:top;">:</td><td><div>c579099635173</div></td></tr><tr><td style="font-weight:bold;vertical-align:top;">client</td><td style="vertical-align:top;">:</td><td><div>127.0.0.1</div></td></tr><tr><td style="font-weight:bold;vertical-align:top;">controller</td><td style="vertical-align:top;">:</td><td><div>estudiante</div></td></tr><tr><td style="font-weight:bold;vertical-align:top;">cookies</td><td style="vertical-align:top;">:</td><td><div><table><tr><td style="font-weight:bold;vertical-align:top;">session_id_admin</td><td style="vertical-align:top;">:</td><td><div>127.0.0.1-1c89beff-62ed-491d-ab67-c88b5b59c97e<table><tr><td style="font-weight:bold;vertical-align:top;">comment</td><td style="vertical-align:top;">:</td><td><div></div></td></tr><tr><td style="font-weight:bold;vertical-align:top;">domain</td><td style="vertical-align:top;">:</td><td><div></div></td></tr><tr><td style="font-weight:bold;vertical-align:top;">expires</td><td style="vertical-align:top;">:</td><td><div></div></td></tr><tr><td style="font-weight:bold;vertical-align:top;">httponly</td><td style="vertical-align:top;">:</td><td><div></div></td></tr><tr><td style="font-weight:bold;vertical-align:top;">max-age</td><td style="vertical-align:top;">:</td><td><div></div></td></tr><tr><td style="font-weight:bold;vertical-align:top;">path</td><td style="vertical-align:top;">:</td><td><div></div></td></tr><tr><td style="font-weight:bold;vertical-align:top;">secure</td><td style="vertical-align:top;">:</td><td><div></div></td></tr><tr><td style="font-weight:bold;vertical-align:top;">version</td><td style="vertical-align:top;">:</td><td><div></div></td></tr></table></div></td></tr><tr><td style="font-weight:bold;vertical-align:top;">session_id_observatorio</td><td style="vertical-align:top;">:</td><td><div>31:ee672fb5-1b28-48b1-8148-b3e12a421578<table><tr><td style="font-weight:bold;vertical-align:top;">comment</td><td style="vertical-align:top;">:</td><td><div></div></td></tr><tr><td style="font-weight:bold;vertical-align:top;">domain</td><td style="vertical-align:top;">:</td><td><div></div></td></tr><tr><td style="font-weight:bold;vertical-align:top;">expires</td><td style="vertical-align:top;">:</td><td><div></div></td></tr><tr><td style="font-weight:bold;vertical-align:top;">httponly</td><td style="vertical-align:top;">:</td><td><div></div></td></tr><tr><td style="font-weight:bold;vertical-align:top;">max-age</td><td style="vertical-align:top;">:</td><td><div></div></td></tr><tr><td style="font-weight:bold;vertical-align:top;">path</td><td style="vertical-align:top;">:</td><td><div></div></td></tr><tr><td style="font-weight:bold;vertical-align:top;">secure</td><td style="vertical-align:top;">:</td><td><div></div></td></tr><tr><td style="font-weight:bold;vertical-align:top;">version</td><td style="vertical-align:top;">:</td><td><div></div></td></tr></table></div></td></tr><tr><td style="font-weight:bold;vertical-align:top;">session_id_proyect</td><td style="vertical-align:top;">:</td><td><div>127.0.0.1-2aab51b9-f859-4d75-9a0d-c0d848c45944<table><tr><td style="font-weight:bold;vertical-align:top;">comment</td><td style="vertical-align:top;">:</td><td><div></div></td></tr><tr><td style="font-weight:bold;vertical-align:top;">domain</td><td style="vertical-align:top;">:</td><td><div></div></td></tr><tr><td style="font-weight:bold;vertical-align:top;">expires</td><td style="vertical-align:top;">:</td><td><div></div></td></tr><tr><td style="font-weight:bold;vertical-align:top;">httponly</td><td style="vertical-align:top;">:</td><td><div></div></td></tr><tr><td style="font-weight:bold;vertical-align:top;">max-age</td><td style="vertical-align:top;">:</td><td><div></div></td></tr><tr><td style="font-weight:bold;vertical-align:top;">path</td><td style="vertical-align:top;">:</td><td><div></div></td></tr><tr><td style="font-weight:bold;vertical-align:top;">secure</td><td style="vertical-align:top;">:</td><td><div></div></td></tr><tr><td style="font-weight:bold;vertical-align:top;">version</td><td style="vertical-align:top;">:</td><td><div></div></td></tr></table></div></td></tr></table></div></td></tr><tr><td style="font-weight:bold;vertical-align:top;">env</td><td style="vertical-align:top;">:</td><td><div><table><tr><td style="font-weight:bold;vertical-align:top;">HTTP_ACCEPT</td><td style="vertical-align:top;">:</td><td><div>*/*</div></td></tr><tr><td style="font-weight:bold;vertical-align:top;">HTTP_ACCEPT_ENCODING</td><td style="vertical-align:top;">:</td><td><div>gzip, deflate, sdch, br</div></td></tr><tr><td style="font-weight:bold;vertical-align:top;">HTTP_ACCEPT_LANGUAGE</td><td style="vertical-align:top;">:</td><td><div>es-ES,es;q=0.8</div></td></tr><tr><td style="font-weight:bold;vertical-align:top;">HTTP_CONNECTION</td><td style="vertical-align:top;">:</td><td><div>keep-alive</div></td></tr><tr><td style="font-weight:bold;vertical-align:top;">HTTP_COOKIE</td><td style="vertical-align:top;">:</td><td><div>session_id_observatorio=&quot;31:ee672fb5-1b28-48b1-8148-b3e12a421578&quot;; session_id_admin=127.0.0.1-1c89beff-62ed-491d-ab67-c88b5b59c97e; session_id_proyect=127.0.0.1-2aab51b9-f859-4d75-9a0d-c0d848c45944</div></td></tr><tr><td style="font-weight:bold;vertical-align:top;">HTTP_HOST</td><td style="vertical-align:top;">:</td><td><div>localhost:8000</div></td></tr><tr><td style="font-weight:bold;vertical-align:top;">HTTP_REFERER</td><td style="vertical-align:top;">:</td><td><div>http://localhost:8000/proyect/estudiante/cuestionario_diagnostico</div></td></tr><tr><td style="font-weight:bold;vertical-align:top;">HTTP_USER_AGENT</td><td style="vertical-align:top;">:</td><td><div>Mozilla/5.0 (X11; Linux x86_64) AppleWebKit/537.36 (KHTML, like Gecko) Ubuntu Chromium/55.0.2883.87 Chrome/55.0.2883.87 Safari/537.36</div></td></tr><tr><td style="font-weight:bold;vertical-align:top;">HTTP_WEB2PY_COMPONENT_ELEMENT</td><td style="vertical-align:top;">:</td><td><div>c579099635173</div></td></tr><tr><td style="font-weight:bold;vertical-align:top;">HTTP_WEB2PY_COMPONENT_LOCATION</td><td style="vertical-align:top;">:</td><td><div>http://localhost:8000/proyect/estudiante/cuestionario_diagnostico#</div></td></tr><tr><td style="font-weight:bold;vertical-align:top;">HTTP_X_REQUESTED_WITH</td><td style="vertical-align:top;">:</td><td><div>XMLHttpRequest</div></td></tr><tr><td style="font-weight:bold;vertical-align:top;">PATH_INFO</td><td style="vertical-align:top;">:</td><td><div>/proyect/estudiante/visor_preguntas.load/27432087091748039009850110663</div></td></tr><tr><td style="font-weight:bold;vertical-align:top;">QUERY_STRING</td><td style="vertical-align:top;">:</td><td><div>_signature=d3b17c4e63107fbeb1815febe615fce17b77b636</div></td></tr><tr><td style="font-weight:bold;vertical-align:top;">REMOTE_ADDR</td><td style="vertical-align:top;">:</td><td><div>127.0.0.1</div></td></tr><tr><td style="font-weight:bold;vertical-align:top;">REMOTE_PORT</td><td style="vertical-align:top;">:</td><td><div>56758</div></td></tr><tr><td style="font-weight:bold;vertical-align:top;">REQUEST_METHOD</td><td style="vertical-align:top;">:</td><td><div>GET</div></td></tr><tr><td style="font-weight:bold;vertical-align:top;">SCRIPT_NAME</td><td style="vertical-align:top;">:</td><td><div></div></td></tr><tr><td style="font-weight:bold;vertical-align:top;">SERVER_NAME</td><td style="vertical-align:top;">:</td><td><div>yasmany-tp500lab</div></td></tr><tr><td style="font-weight:bold;vertical-align:top;">SERVER_PORT</td><td style="vertical-align:top;">:</td><td><div>8000</div></td></tr><tr><td style="font-weight:bold;vertical-align:top;">SERVER_PROTOCOL</td><td style="vertical-align:top;">:</td><td><div>HTTP/1.1</div></td></tr><tr><td style="font-weight:bold;vertical-align:top;">SERVER_SOFTWARE</td><td style="vertical-align:top;">:</td><td><div>Rocket 1.2.6</div></td></tr><tr><td style="font-weight:bold;vertical-align:top;">app_folders</td><td style="vertical-align:top;">:</td><td><div>set([&#x27;/opt/python/web2py-files/web2py/applications/observatorio/&#x27;, &#x27;/opt/python/web2py-files/web2py/applications/admin/&#x27;, &#x27;/opt/python/web2py-files/web2py/applications/proyect/&#x27;, &#x27;/opt/python/web2py-files/web2py/applications/welcome/&#x27;])</div></td></tr><tr><td style="font-weight:bold;vertical-align:top;">applications_parent</td><td style="vertical-align:top;">:</td><td><div>/opt/python/web2py-files/web2py</div></td></tr><tr><td style="font-weight:bold;vertical-align:top;">cmd_args</td><td style="vertical-align:top;">:</td><td><div><table></table></div></td></tr><tr><td style="font-weight:bold;vertical-align:top;">cmd_options</td><td style="vertical-align:top;">:</td><td><div>&lt;Values at 0x7f3242eaf5f0: {&#x27;verbose&#x27;: False, &#x27;ip&#x27;: &#x27;127.0.0.1&#x27;, &#x27;debuglevel&#x27;: 30, &#x27;with_scheduler&#x27;: False, &#x27;shutdown_timeout&#x27;: 5, &#x27;taskbar&#x27;: False, &#x27;with_coverage&#x27;: False, &#x27;pid_filename&#x27;: &#x27;httpserver.pid&#x27;, &#x27;maxthreads&#x27;: None, &#x27;softcron&#x27;: False, &#x27;server_name&#x27;: &#x27;yasmany-tp500lab&#x27;, &#x27;bpython&#x27;: False, &#x27;nogui&#x27;: False, &#x27;port&#x27;: 8000, &#x27;print_errors&#x27;: False, &#x27;extcron&#x27;: False, &#x27;runcron&#x27;: False, &#x27;run_system_tests&#x27;: False, &#x27;test&#x27;: None, &#x27;folder&#x27;: &#x27;/opt/python/web2py-files/web2py&#x27;, &#x27;config&#x27;: &#x27;&#x27;, &#x27;minthreads&#x27;: None, &#x27;shell&#x27;: None, &#x27;run&#x27;: &#x27;&#x27;, &#x27;log_filename&#x27;: &#x27;httpserver.log&#x27;, &#x27;profiler_dir&#x27;: None, &#x27;args&#x27;: [&#x27;&#x27;], &#x27;socket_timeout&#x27;: 5, &#x27;ssl_ca_certificate&#x27;: None, &#x27;scheduler&#x27;: None, &#x27;interfaces&#x27;: None, &#x27;ssl_private_key&#x27;: &#x27;&#x27;, &#x27;gae&#x27;: None, &#x27;password&#x27;: &#x27;******&#x27;, &#x27;request_queue_size&#x27;: 5, &#x27;ssl_certificate&#x27;: &#x27;&#x27;, &#x27;cronjob&#x27;: False, &#x27;numthreads&#x27;: None, &#x27;quiet&#x27;: False, &#x27;import_models&#x27;: False, &#x27;timeout&#x27;: 10, &#x27;plain&#x27;: False, &#x27;nobanner&#x27;: False}&gt;</div></td></tr><tr><td style="font-weight:bold;vertical-align:top;">db_sessions</td><td style="vertical-align:top;">:</td><td><div>set([&#x27;observatorio&#x27;])</div></td></tr><tr><td style="font-weight:bold;vertical-align:top;">debugging</td><td style="vertical-align:top;">:</td><td><div>True</div></td></tr><tr><td style="font-weight:bold;vertical-align:top;">gluon_parent</td><td style="vertical-align:top;">:</td><td><div>/opt/python/web2py-files/web2py</div></td></tr><tr><td style="font-weight:bold;vertical-align:top;">http_accept</td><td style="vertical-align:top;">:</td><td><div>*/*</div></td></tr><tr><td style="font-weight:bold;vertical-align:top;">http_accept_encoding</td><td style="vertical-align:top;">:</td><td><div>gzip, deflate, sdch, br</div></td></tr><tr><td style="font-weight:bold;vertical-align:top;">http_accept_language</td><td style="vertical-align:top;">:</td><td><div>es-ES,es;q=0.8</div></td></tr><tr><td style="font-weight:bold;vertical-align:top;">http_connection</td><td style="vertical-align:top;">:</td><td><div>keep-alive</div></td></tr><tr><td style="font-weight:bold;vertical-align:top;">http_cookie</td><td style="vertical-align:top;">:</td><td><div>session_id_observatorio=&quot;31:ee672fb5-1b28-48b1-8148-b3e12a421578&quot;; session_id_admin=127.0.0.1-1c89beff-62ed-491d-ab67-c88b5b59c97e; session_id_proyect=127.0.0.1-2aab51b9-f859-4d75-9a0d-c0d848c45944</div></td></tr><tr><td style="font-weight:bold;vertical-align:top;">http_host</td><td style="vertical-align:top;">:</td><td><div>localhost:8000</div></td></tr><tr><td style="font-weight:bold;vertical-align:top;">http_referer</td><td style="vertical-align:top;">:</td><td><div>http://localhost:8000/proyect/estudiante/cuestionario_diagnostico</div></td></tr><tr><td style="font-weight:bold;vertical-align:top;">http_user_agent</td><td style="vertical-align:top;">:</td><td><div>Mozilla/5.0 (X11; Linux x86_64) AppleWebKit/537.36 (KHTML, like Gecko) Ubuntu Chromium/55.0.2883.87 Chrome/55.0.2883.87 Safari/537.36</div></td></tr><tr><td style="font-weight:bold;vertical-align:top;">http_web2py_component_element</td><td style="vertical-align:top;">:</td><td><div>c579099635173</div></td></tr><tr><td style="font-weight:bold;vertical-align:top;">http_web2py_component_location</td><td style="vertical-align:top;">:</td><td><div>http://localhost:8000/proyect/estudiante/cuestionario_diagnostico#</div></td></tr><tr><td style="font-weight:bold;vertical-align:top;">http_x_requested_with</td><td style="vertical-align:top;">:</td><td><div>XMLHttpRequest</div></td></tr><tr><td style="font-weight:bold;vertical-align:top;">is_jython</td><td style="vertical-align:top;">:</td><td><div>False</div></td></tr><tr><td style="font-weight:bold;vertical-align:top;">is_pypy</td><td style="vertical-align:top;">:</td><td><div>False</div></td></tr><tr><td style="font-weight:bold;vertical-align:top;">is_source</td><td style="vertical-align:top;">:</td><td><div>True</div></td></tr><tr><td style="font-weight:bold;vertical-align:top;">local_hosts</td><td style="vertical-align:top;">:</td><td><div><table><tr><td><div>yasmany-tp500lab</div></td></tr><tr><td><div>127.0.1.1</div></td></tr><tr><td><div>::ffff:127.0.0.1</div></td></tr><tr><td><div>::1</div></td></tr><tr><td><div>yasmany-TP500LAB</div></td></tr><tr><td><div>127.0.0.1</div></td></tr></table></div></td></tr><tr><td style="font-weight:bold;vertical-align:top;">path_info</td><td style="vertical-align:top;">:</td><td><div>/proyect/estudiante/visor_preguntas.load/27432087091748039009850110663</div></td></tr><tr><td style="font-weight:bold;vertical-align:top;">query_string</td><td style="vertical-align:top;">:</td><td><div>_signature=d3b17c4e63107fbeb1815febe615fce17b77b636</div></td></tr><tr><td style="font-weight:bold;vertical-align:top;">remote_addr</td><td style="vertical-align:top;">:</td><td><div>127.0.0.1</div></td></tr><tr><td style="font-weight:bold;vertical-align:top;">remote_port</td><td style="vertical-align:top;">:</td><td><div>56758</div></td></tr><tr><td style="font-weight:bold;vertical-align:top;">request_method</td><td style="vertical-align:top;">:</td><td><div>GET</div></td></tr><tr><td style="font-weight:bold;vertical-align:top;">request_uri</td><td style="vertical-align:top;">:</td><td><div>/proyect/estudiante/visor_preguntas.load/27432087091748039009850110663?_signature=d3b17c4e63107fbeb1815febe615fce17b77b636</div></td></tr><tr><td style="font-weight:bold;vertical-align:top;">script_name</td><td style="vertical-align:top;">:</td><td><div></div></td></tr><tr><td style="font-weight:bold;vertical-align:top;">server_name</td><td style="vertical-align:top;">:</td><td><div>yasmany-tp500lab</div></td></tr><tr><td style="font-weight:bold;vertical-align:top;">server_port</td><td style="vertical-align:top;">:</td><td><div>8000</div></td></tr><tr><td style="font-weight:bold;vertical-align:top;">server_protocol</td><td style="vertical-align:top;">:</td><td><div>HTTP/1.1</div></td></tr><tr><td style="font-weight:bold;vertical-align:top;">server_software</td><td style="vertical-align:top;">:</td><td><div>Rocket 1.2.6</div></td></tr><tr><td style="font-weight:bold;vertical-align:top;">web2py_path</td><td style="vertical-align:top;">:</td><td><div>/opt/python/web2py-files/web2py</div></td></tr><tr><td style="font-weight:bold;vertical-align:top;">web2py_version</td><td style="vertical-align:top;">:</td><td><div>2.14.6-stable+timestamp.2016.05.10.00.21.47</div></td></tr><tr><td style="font-weight:bold;vertical-align:top;">wsgi.errors</td><td style="vertical-align:top;">:</td><td><div>&lt;open file &#x27;&lt;stderr&gt;&#x27;, mode &#x27;w&#x27; at 0x7f3247b9d1e0&gt;</div></td></tr><tr><td style="font-weight:bold;vertical-align:top;">wsgi.file_wrapper</td><td style="vertical-align:top;">:</td><td><div>&lt;class wsgiref.util.FileWrapper at 0x7f3242ede188&gt;</div></td></tr><tr><td style="font-weight:bold;vertical-align:top;">wsgi.input</td><td style="vertical-align:top;">:</td><td><div>&lt;socket._fileobject object at 0x7f322806e0d0&gt;</div></td></tr><tr><td style="font-weight:bold;vertical-align:top;">wsgi.multiprocess</td><td style="vertical-align:top;">:</td><td><div>False</div></td></tr><tr><td style="font-weight:bold;vertical-align:top;">wsgi.multithread</td><td style="vertical-align:top;">:</td><td><div>True</div></td></tr><tr><td style="font-weight:bold;vertical-align:top;">wsgi.run_once</td><td style="vertical-align:top;">:</td><td><div>False</div></td></tr><tr><td style="font-weight:bold;vertical-align:top;">wsgi.url_scheme</td><td style="vertical-align:top;">:</td><td><div>http</div></td></tr><tr><td style="font-weight:bold;vertical-align:top;">wsgi.version</td><td style="vertical-align:top;">:</td><td><div><table><tr><td><div>1</div></td></tr><tr><td><div>0</div></td></tr></table></div></td></tr><tr><td style="font-weight:bold;vertical-align:top;">wsgi_errors</td><td style="vertical-align:top;">:</td><td><div>&lt;open file &#x27;&lt;stderr&gt;&#x27;, mode &#x27;w&#x27; at 0x7f3247b9d1e0&gt;</div></td></tr><tr><td style="font-weight:bold;vertical-align:top;">wsgi_file_wrapper</td><td style="vertical-align:top;">:</td><td><div>&lt;class wsgiref.util.FileWrapper at 0x7f3242ede188&gt;</div></td></tr><tr><td style="font-weight:bold;vertical-align:top;">wsgi_input</td><td style="vertical-align:top;">:</td><td><div>&lt;socket._fileobject object at 0x7f322806e0d0&gt;</div></td></tr><tr><td style="font-weight:bold;vertical-align:top;">wsgi_multiprocess</td><td style="vertical-align:top;">:</td><td><div>False</div></td></tr><tr><td style="font-weight:bold;vertical-align:top;">wsgi_multithread</td><td style="vertical-align:top;">:</td><td><div>True</div></td></tr><tr><td style="font-weight:bold;vertical-align:top;">wsgi_run_once</td><td style="vertical-align:top;">:</td><td><div>False</div></td></tr><tr><td style="font-weight:bold;vertical-align:top;">wsgi_url_scheme</td><td style="vertical-align:top;">:</td><td><div>http</div></td></tr><tr><td style="font-weight:bold;vertical-align:top;">wsgi_version</td><td style="vertical-align:top;">:</td><td><div><table><tr><td><div>1</div></td></tr><tr><td><div>0</div></td></tr></table></div></td></tr></table></div></td></tr><tr><td style="font-weight:bold;vertical-align:top;">extension</td><td style="vertical-align:top;">:</td><td><div>load</div></td></tr><tr><td style="font-weight:bold;vertical-align:top;">folder</td><td style="vertical-align:top;">:</td><td><div>/opt/python/web2py-files/web2py/applications/proyect/</div></td></tr><tr><td style="font-weight:bold;vertical-align:top;">function</td><td style="vertical-align:top;">:</td><td><div>visor_preguntas</div></td></tr><tr><td style="font-weight:bold;vertical-align:top;">global_settings</td><td style="vertical-align:top;">:</td><td><div><table><tr><td style="font-weight:bold;vertical-align:top;">app_folders</td><td style="vertical-align:top;">:</td><td><div>set([&#x27;/opt/python/web2py-files/web2py/applications/observatorio/&#x27;, &#x27;/opt/python/web2py-files/web2py/applications/admin/&#x27;, &#x27;/opt/python/web2py-files/web2py/applications/proyect/&#x27;, &#x27;/opt/python/web2py-files/web2py/applications/welcome/&#x27;])</div></td></tr><tr><td style="font-weight:bold;vertical-align:top;">applications_parent</td><td style="vertical-align:top;">:</td><td><div>/opt/python/web2py-files/web2py</div></td></tr><tr><td style="font-weight:bold;vertical-align:top;">cmd_args</td><td style="vertical-align:top;">:</td><td><div><table></table></div></td></tr><tr><td style="font-weight:bold;vertical-align:top;">cmd_options</td><td style="vertical-align:top;">:</td><td><div>&lt;Values at 0x7f3242eaf5f0: {&#x27;verbose&#x27;: False, &#x27;ip&#x27;: &#x27;127.0.0.1&#x27;, &#x27;debuglevel&#x27;: 30, &#x27;with_scheduler&#x27;: False, &#x27;shutdown_timeout&#x27;: 5, &#x27;taskbar&#x27;: False, &#x27;with_coverage&#x27;: False, &#x27;pid_filename&#x27;: &#x27;httpserver.pid&#x27;, &#x27;maxthreads&#x27;: None, &#x27;softcron&#x27;: False, &#x27;server_name&#x27;: &#x27;yasmany-tp500lab&#x27;, &#x27;bpython&#x27;: False, &#x27;nogui&#x27;: False, &#x27;port&#x27;: 8000, &#x27;print_errors&#x27;: False, &#x27;extcron&#x27;: False, &#x27;runcron&#x27;: False, &#x27;run_system_tests&#x27;: False, &#x27;test&#x27;: None, &#x27;folder&#x27;: &#x27;/opt/python/web2py-files/web2py&#x27;, &#x27;config&#x27;: &#x27;&#x27;, &#x27;minthreads&#x27;: None, &#x27;shell&#x27;: None, &#x27;run&#x27;: &#x27;&#x27;, &#x27;log_filename&#x27;: &#x27;httpserver.log&#x27;, &#x27;profiler_dir&#x27;: None, &#x27;args&#x27;: [&#x27;&#x27;], &#x27;socket_timeout&#x27;: 5, &#x27;ssl_ca_certificate&#x27;: None, &#x27;scheduler&#x27;: None, &#x27;interfaces&#x27;: None, &#x27;ssl_private_key&#x27;: &#x27;&#x27;, &#x27;gae&#x27;: None, &#x27;password&#x27;: &#x27;******&#x27;, &#x27;request_queue_size&#x27;: 5, &#x27;ssl_certificate&#x27;: &#x27;&#x27;, &#x27;cronjob&#x27;: False, &#x27;numthreads&#x27;: None, &#x27;quiet&#x27;: False, &#x27;import_models&#x27;: False, &#x27;timeout&#x27;: 10, &#x27;plain&#x27;: False, &#x27;nobanner&#x27;: False}&gt;</div></td></tr><tr><td style="font-weight:bold;vertical-align:top;">db_sessions</td><td style="vertical-align:top;">:</td><td><div>set([&#x27;observatorio&#x27;])</div></td></tr><tr><td style="font-weight:bold;vertical-align:top;">debugging</td><td style="vertical-align:top;">:</td><td><div>True</div></td></tr><tr><td style="font-weight:bold;vertical-align:top;">gluon_parent</td><td style="vertical-align:top;">:</td><td><div>/opt/python/web2py-files/web2py</div></td></tr><tr><td style="font-weight:bold;vertical-align:top;">is_jython</td><td style="vertical-align:top;">:</td><td><div>False</div></td></tr><tr><td style="font-weight:bold;vertical-align:top;">is_pypy</td><td style="vertical-align:top;">:</td><td><div>False</div></td></tr><tr><td style="font-weight:bold;vertical-align:top;">is_source</td><td style="vertical-align:top;">:</td><td><div>True</div></td></tr><tr><td style="font-weight:bold;vertical-align:top;">local_hosts</td><td style="vertical-align:top;">:</td><td><div><table><tr><td><div>yasmany-tp500lab</div></td></tr><tr><td><div>127.0.1.1</div></td></tr><tr><td><div>::ffff:127.0.0.1</div></td></tr><tr><td><div>::1</div></td></tr><tr><td><div>yasmany-TP500LAB</div></td></tr><tr><td><div>127.0.0.1</div></td></tr></table></div></td></tr><tr><td style="font-weight:bold;vertical-align:top;">web2py_version</td><td style="vertical-align:top;">:</td><td><div>2.14.6-stable+timestamp.2016.05.10.00.21.47</div></td></tr></table></div></td></tr><tr><td style="font-weight:bold;vertical-align:top;">is_https</td><td style="vertical-align:top;">:</td><td><div>False</div></td></tr><tr><td style="font-weight:bold;vertical-align:top;">is_local</td><td style="vertical-align:top;">:</td><td><div>True</div></td></tr><tr><td style="font-weight:bold;vertical-align:top;">is_restful</td><td style="vertical-align:top;">:</td><td><div>False</div></td></tr><tr><td style="font-weight:bold;vertical-align:top;">is_scheduler</td><td style="vertical-align:top;">:</td><td><div>False</div></td></tr><tr><td style="font-weight:bold;vertical-align:top;">is_shell</td><td style="vertical-align:top;">:</td><td><div>False</div></td></tr><tr><td style="font-weight:bold;vertical-align:top;">now</td><td style="vertical-align:top;">:</td><td><div>datetime.datetime(2017, 2, 14, 23, 45, 13, 760819)</div></td></tr><tr><td style="font-weight:bold;vertical-align:top;">raw_args</td><td style="vertical-align:top;">:</td><td><div>27432087091748039009850110663</div></td></tr><tr><td style="font-weight:bold;vertical-align:top;">raw_extension</td><td style="vertical-align:top;">:</td><td><div>load</div></td></tr><tr><td style="font-weight:bold;vertical-align:top;">url</td><td style="vertical-align:top;">:</td><td><div>/proyect/estudiante/visor_preguntas.load/27432087091748039009850110663</div></td></tr><tr><td style="font-weight:bold;vertical-align:top;">utcnow</td><td style="vertical-align:top;">:</td><td><div>datetime.datetime(2017, 2, 15, 4, 45, 13, 760845)</div></td></tr><tr><td style="font-weight:bold;vertical-align:top;">wsgi</td><td style="vertical-align:top;">:</td><td><div>&lt;gluon.main.LazyWSGI object at 0x7f3209a0b510&gt;</div></td></tr></table></div>'
tRp58
sS'frames'
p59
(lp60
(dp61
S'file'
p62
S'/opt/python/web2py-files/web2py/gluon/restricted.py'
p63
sS'dump'
p64
(dp65
S'environment'
p66
S"{'A': <class 'gluon.html.A'>, 'ANY_OF': <class 'gluon.validators.ANY_OF'>, 'ASSIGNJS': <function ASSIGNJS>, 'AppConfig': <function AppConfig>, 'Auth': <class 'gluon.tools.Auth'>, 'B': <class 'gluon.html.B'>, 'BEAUTIFY': <class 'gluon.html.BEAUTIFY'>, 'BODY': <class 'gluon.html.BODY'>, 'BR': <class 'gluon.html.BR'>, 'BUTTON': <class 'gluon.html.BUTTON'>, ...}"
p67
sS'ccode'
p68
S'<code object <module> at 0x7f322806d9b0, file "/...t/views/estudiante/visor_preguntas.load", line 1>'
p69
ssS'lnum'
p70
I227
sS'lines'
p71
(dp72
I224
S'            ccode = code'
p73
sI225
S'        else:'
p74
sI226
S'            ccode = compile2(code, layer)'
p75
sI227
S'        exec ccode in environment'
p76
sI228
S'    except HTTP:'
p77
sI229
S'        raise'
p78
sI230
S'    except RestrictedError:'
p79
sI231
S'        # do not encapsulate (obfuscate) the original RestrictedError'
p80
sI222
S'    try:'
p81
sI223
S'        if isinstance(code, types.CodeType):'
p82
ssS'call'
p83
S'(code="response.write(\'<article>\\\\n\', escape=False)\\nif p...        });\\\\n    });\\\\n</script>\\\\n\', escape=False)", environment={\'A\': <class \'gluon.html.A\'>, \'ANY_OF\': <class \'gluon.validators.ANY_OF\'>, \'ASSIGNJS\': <function ASSIGNJS>, \'AppConfig\': <function AppConfig>, \'Auth\': <class \'gluon.tools.Auth\'>, \'B\': <class \'gluon.html.B\'>, \'BEAUTIFY\': <class \'gluon.html.BEAUTIFY\'>, \'BODY\': <class \'gluon.html.BODY\'>, \'BR\': <class \'gluon.html.BR\'>, \'BUTTON\': <class \'gluon.html.BUTTON\'>, ...}, layer=\'/opt/python/web2py-files/web2py/applications/proyect/views/estudiante/visor_preguntas.load\')'
p84
sS'func'
p85
S'restricted'
p86
sa(dp87
g62
S'/opt/python/web2py-files/web2py/applications/proyect/views/estudiante/visor_preguntas.load'
p88
sg64
(dp89
S'el'
p90
S'undefined'
p91
sS'en'
p92
g91
sS'ser'
p93
g91
sS'son'
p94
g91
sS'url'
p95
g91
sS'argumentos'
p96
g91
sS'funci'
p97
g91
sS'event'
p98
g91
sS'es'
p99
g91
sS'cadena'
p100
g91
sS'error'
p101
g91
sS'console'
p102
g91
sS'objeto'
p103
g91
sS'tipo'
p104
g91
sS'la'
p105
g91
sS'espera'
p106
g91
sS'formData'
p107
g91
sS'informaci'
p108
g91
sS'importar'
p109
g91
sS'dataType'
p110
g91
sS'json'
p111
g91
sS'satisfactoria'
p112
g91
sS'var'
p113
g91
sS'sin'
p114
g91
sS'function'
p115
g91
sS'estatus'
p116
g91
sS'complete'
p117
g91
sS'para'
p118
g91
sS'respuesta'
p119
g91
sS'URL'
p120
S'<function URL>'
p121
sS'de'
p122
g91
sS'status'
p123
g91
sS'xhr'
p124
g91
sS'y'
g91
sS'pasada'
p125
g91
sS'digo'
p126
g91
sS'que'
p127
g91
sS'no'
p128
g91
sS'como'
p129
g91
sS'fall'
p130
g91
sS'POST'
p131
g91
sS'alert'
p132
g91
sS'data'
p133
g91
sS'falla'
p134
g91
sS'a'
g91
sS'c'
g91
sS'posible'
p135
g91
sS'builtintype'
p136
S"<type 'type'>"
p137
sS'tambi'
p138
g91
sS'GET'
p139
g91
sS'success'
p140
g91
sS'o'
g91
sS'n'
g91
sS'utilizar'
p141
g91
sS'una'
p142
g91
sS'si'
p143
g91
sS'datos'
p144
g91
sS'se'
p145
g91
sS'crudo'
p146
g91
sS'argumento'
p147
g91
sS'especifica'
p148
g91
sS'pasados'
p149
g91
sS'enviar'
p150
g91
sS'petici'
p151
g91
sS'ejecutar'
p152
g91
ssg70
I58
sg71
(dp153
I53
S''
sI54
S''
sI55
S'    <script text="javascript">'
p154
sI56
S'        $(function () {'
p155
sI57
S'            /*Funci\xc3\xb3n ajax para guardar la pregunta*/'
p156
sI58
S"            $('#guardar').click(function(event){"
p157
sI59
S"                var formData = $('#pregunta-form').serializeArray();"
p158
sI60
S''
sI61
S'                $.ajax({'
p159
sI62
S'                    // la URL para la petici\xc3\xb3n'
p160
ssg83
S'()'
p161
sg85
S'<module>'
p162
sasS'pyver'
p163
S'Python 2.7.12: /usr/bin/python (prefix: /usr)'
p164
sS'session'
p165
g57
(S's\xee\n\x00\x00<div><table><tr><td style="font-weight:bold;vertical-align:top;">auth</td><td style="vertical-align:top;">:</td><td><div><table><tr><td style="font-weight:bold;vertical-align:top;">expiration</td><td style="vertical-align:top;">:</td><td><div>3600</div></td></tr><tr><td style="font-weight:bold;vertical-align:top;">hmac_key</td><td style="vertical-align:top;">:</td><td><div>f0a6edd1-44d6-4329-909d-2035dcac03e0</div></td></tr><tr><td style="font-weight:bold;vertical-align:top;">last_visit</td><td style="vertical-align:top;">:</td><td><div>datetime.datetime(2017, 2, 14, 23, 43, 12, 944980)</div></td></tr><tr><td style="font-weight:bold;vertical-align:top;">remember_me</td><td style="vertical-align:top;">:</td><td><div>False</div></td></tr><tr><td style="font-weight:bold;vertical-align:top;">user</td><td style="vertical-align:top;">:</td><td><div><table><tr><td style="font-weight:bold;vertical-align:top;">email</td><td style="vertical-align:top;">:</td><td><div>estudiante@upr.edu.cu</div></td></tr><tr><td style="font-weight:bold;vertical-align:top;">fecha_nacimiento</td><td style="vertical-align:top;">:</td><td><div>datetime.date(1988, 9, 19)</div></td></tr><tr><td style="font-weight:bold;vertical-align:top;">first_name</td><td style="vertical-align:top;">:</td><td><div>Estudiante</div></td></tr><tr><td style="font-weight:bold;vertical-align:top;">id</td><td style="vertical-align:top;">:</td><td><div>27427756755470223859474236108L</div></td></tr><tr><td style="font-weight:bold;vertical-align:top;">last_name</td><td style="vertical-align:top;">:</td><td><div>asd</div></td></tr><tr><td style="font-weight:bold;vertical-align:top;">registration_id</td><td style="vertical-align:top;">:</td><td><div></div></td></tr><tr><td style="font-weight:bold;vertical-align:top;">registration_key</td><td style="vertical-align:top;">:</td><td><div></div></td></tr><tr><td style="font-weight:bold;vertical-align:top;">reset_password_key</td><td style="vertical-align:top;">:</td><td><div></div></td></tr></table></div></td></tr><tr><td style="font-weight:bold;vertical-align:top;">user_groups</td><td style="vertical-align:top;">:</td><td><div><table><tr><td style="font-weight:bold;vertical-align:top;">27427755759346043879158448841</td><td style="vertical-align:top;">:</td><td><div>Estudiante</div></td></tr></table></div></td></tr></table></div></td></tr><tr><td style="font-weight:bold;vertical-align:top;">flash</td><td style="vertical-align:top;">:</td><td><div>None</div></td></tr><tr><td style="font-weight:bold;vertical-align:top;">last_orderby</td><td style="vertical-align:top;">:</td><td><div>None</div></td></tr><tr><td style="font-weight:bold;vertical-align:top;">last_query</td><td style="vertical-align:top;">:</td><td><div>db.respuesta.id&gt;0</div></td></tr></table></div>'
tRp166
sS'etype'
p167
S"<type 'exceptions.NameError'>"
p168
sS'date'
p169
S'Tue Feb 14 23:45:13 2017'
p170
sS'response'
p171
g57
(S's\xe7.\x00\x00<div><table><tr><td style="font-weight:bold;vertical-align:top;">body</td><td style="vertical-align:top;">:</td><td><div>&lt;cStringIO.StringO object at 0x7f320a0f1458&gt;</div></td></tr><tr><td style="font-weight:bold;vertical-align:top;">cookies</td><td style="vertical-align:top;">:</td><td><div><table><tr><td style="font-weight:bold;vertical-align:top;">session_id_proyect</td><td style="vertical-align:top;">:</td><td><div>127.0.0.1-2aab51b9-f859-4d75-9a0d-c0d848c45944<table><tr><td style="font-weight:bold;vertical-align:top;">comment</td><td style="vertical-align:top;">:</td><td><div></div></td></tr><tr><td style="font-weight:bold;vertical-align:top;">domain</td><td style="vertical-align:top;">:</td><td><div></div></td></tr><tr><td style="font-weight:bold;vertical-align:top;">expires</td><td style="vertical-align:top;">:</td><td><div></div></td></tr><tr><td style="font-weight:bold;vertical-align:top;">httponly</td><td style="vertical-align:top;">:</td><td><div></div></td></tr><tr><td style="font-weight:bold;vertical-align:top;">max-age</td><td style="vertical-align:top;">:</td><td><div></div></td></tr><tr><td style="font-weight:bold;vertical-align:top;">path</td><td style="vertical-align:top;">:</td><td><div>/</div></td></tr><tr><td style="font-weight:bold;vertical-align:top;">secure</td><td style="vertical-align:top;">:</td><td><div></div></td></tr><tr><td style="font-weight:bold;vertical-align:top;">version</td><td style="vertical-align:top;">:</td><td><div></div></td></tr></table></div></td></tr></table></div></td></tr><tr><td style="font-weight:bold;vertical-align:top;">delimiters</td><td style="vertical-align:top;">:</td><td><div><table><tr><td><div>{{</div></td></tr><tr><td><div>}}</div></td></tr></table></div></td></tr><tr><td style="font-weight:bold;vertical-align:top;">files</td><td style="vertical-align:top;">:</td><td><div><table></table></div></td></tr><tr><td style="font-weight:bold;vertical-align:top;">flash</td><td style="vertical-align:top;">:</td><td><div></div></td></tr><tr><td style="font-weight:bold;vertical-align:top;">form_label_separator</td><td style="vertical-align:top;">:</td><td><div></div></td></tr><tr><td style="font-weight:bold;vertical-align:top;">formstyle</td><td style="vertical-align:top;">:</td><td><div>bootstrap3_inline</div></td></tr><tr><td style="font-weight:bold;vertical-align:top;">generic_patterns</td><td style="vertical-align:top;">:</td><td><div><table><tr><td><div>*</div></td></tr></table></div></td></tr><tr><td style="font-weight:bold;vertical-align:top;">google_analytics_id</td><td style="vertical-align:top;">:</td><td><div>None</div></td></tr><tr><td style="font-weight:bold;vertical-align:top;">headers</td><td style="vertical-align:top;">:</td><td><div><table><tr><td style="font-weight:bold;vertical-align:top;">X-Powered-By</td><td style="vertical-align:top;">:</td><td><div>web2py</div></td></tr></table></div></td></tr><tr><td style="font-weight:bold;vertical-align:top;">logo</td><td style="vertical-align:top;">:</td><td><div><h5><a class="navbar-brand-name" data-target="#index" href="/proyect/default/index.load" id="index">Logo&trade;&nbsp;</a></h5></div></td></tr><tr><td style="font-weight:bold;vertical-align:top;">menu</td><td style="vertical-align:top;">:</td><td><div><table><tr><td><div><table><tr><td><div><ico class="glyphicon glyphicon-edit"></ico> Diagn\xc3\xb3sticos Realizados</div></td></tr><tr><td><div>False</div></td></tr><tr><td><div>/proyect/estudiante/visor_preguntas.load</div></td></tr><tr><td><div><table><tr><td><div><table><tr><td><div>cuestionario_diagnostico</div></td></tr><tr><td><div>False</div></td></tr><tr><td><div><a data-target="#cuestionario_diagnostico" href="/proyect/estudiante/cuestionario_diagnostico.load"><ico class="glyphicon glyphicon-edit"></ico> Diagn\xc3\xb3stico Inicial</a></div></td></tr></table></div></td></tr><tr><td><div><table><tr><td><div>diag_enfocada</div></td></tr><tr><td><div>False</div></td></tr><tr><td><div><a data-target="#diag_enfocada" href="/proyect/estudiante/diag_enfocada.load"><ico class="glyphicon glyphicon-edit"></ico> Atenci\xc3\xb3n Enfocada</a></div></td></tr></table></div></td></tr><tr><td><div><table><tr><td><div>diag_sostenida</div></td></tr><tr><td><div>False</div></td></tr><tr><td><div><a data-target="#diag_sostenida" href="/proyect/estudiante/diag_sostenida.load"><ico class="glyphicon glyphicon-edit"></ico> Atenci\xc3\xb3n Sostenida</a></div></td></tr></table></div></td></tr><tr><td><div><table><tr><td><div>diag_selectiva</div></td></tr><tr><td><div>False</div></td></tr><tr><td><div><a data-target="#diag_selectiva" href="/proyect/estudiante/diag_selectiva.load"><ico class="glyphicon glyphicon-edit"></ico> Atenci\xc3\xb3n Selectiva</a></div></td></tr></table></div></td></tr><tr><td><div><table><tr><td><div>diag_alternada</div></td></tr><tr><td><div>False</div></td></tr><tr><td><div><a data-target="#diag_alternada" href="/proyect/estudiante/diag_alternada.load"><ico class="glyphicon glyphicon-edit"></ico> Atenci\xc3\xb3n Alternada</a></div></td></tr></table></div></td></tr><tr><td><div><table><tr><td><div>diag_dividida</div></td></tr><tr><td><div>False</div></td></tr><tr><td><div><a data-target="#diag_dividida" href="/proyect/estudiante/diag_dividida.load"><ico class="glyphicon glyphicon-edit"></ico> Atenci\xc3\xb3n Dividida</a></div></td></tr></table></div></td></tr></table></div></td></tr></table></div></td></tr><tr><td><div><table><tr><td><div><ico class="glyphicon glyphicon-edit"></ico> Resultados</div></td></tr><tr><td><div>False</div></td></tr><tr><td><div>/proyect/estudiante/visor_preguntas.load</div></td></tr><tr><td><div><table><tr><td><div><table><tr><td><div>resultado_general</div></td></tr><tr><td><div>False</div></td></tr><tr><td><div><a data-target="#resultado_general" href="/proyect/estudiante/resultado_general.load"><ico class="glyphicon glyphicon-edit"></ico> Resultado General</a></div></td></tr></table></div></td></tr><tr><td><div><table><tr><td><div>resultado_enfocada</div></td></tr><tr><td><div>False</div></td></tr><tr><td><div><a data-target="#resultado_enfocada" href="/proyect/estudiante/resultado_enfocada.load"><ico class="glyphicon glyphicon-edit"></ico> Atenci\xc3\xb3n Enfocada</a></div></td></tr></table></div></td></tr><tr><td><div><table><tr><td><div>resultado_sostenida</div></td></tr><tr><td><div>False</div></td></tr><tr><td><div><a data-target="#resultado_sostenida" href="/proyect/estudiante/resultado_sostenida.load"><ico class="glyphicon glyphicon-edit"></ico> Atenci\xc3\xb3n Sostenida</a></div></td></tr></table></div></td></tr><tr><td><div><table><tr><td><div>resultado_selectiva</div></td></tr><tr><td><div>False</div></td></tr><tr><td><div><a data-target="#resultado_selectiva" href="/proyect/estudiante/resultado_selectiva.load"><ico class="glyphicon glyphicon-edit"></ico> Atenci\xc3\xb3n Selectiva</a></div></td></tr></table></div></td></tr><tr><td><div><table><tr><td><div>resultado_alternada</div></td></tr><tr><td><div>False</div></td></tr><tr><td><div><a data-target="#resultado_alternada" href="/proyect/estudiante/resultado_alternada.load"><ico class="glyphicon glyphicon-edit"></ico> Atenci\xc3\xb3n Alternada</a></div></td></tr></table></div></td></tr><tr><td><div><table><tr><td><div>resultado_dividida</div></td></tr><tr><td><div>False</div></td></tr><tr><td><div><a data-target="#resultado_dividida" href="/proyect/estudiante/resultado_dividida.load"><ico class="glyphicon glyphicon-edit"></ico> Atenci\xc3\xb3n Dividida</a></div></td></tr></table></div></td></tr></table></div></td></tr></table></div></td></tr></table></div></td></tr><tr><td style="font-weight:bold;vertical-align:top;">meta</td><td style="vertical-align:top;">:</td><td><div><table><tr><td style="font-weight:bold;vertical-align:top;">author</td><td style="vertical-align:top;">:</td><td><div>Enrique Alfonso Carmona &lt;eacarmona860920@gmail.com&gt;</div></td></tr><tr><td style="font-weight:bold;vertical-align:top;">description</td><td style="vertical-align:top;">:</td><td><div>Sistema automatizado para mejorar la atenci\xc3\xb3n</div></td></tr><tr><td style="font-weight:bold;vertical-align:top;">generator</td><td style="vertical-align:top;">:</td><td><div>Web2py Web Framework</div></td></tr><tr><td style="font-weight:bold;vertical-align:top;">keywords</td><td style="vertical-align:top;">:</td><td><div><table><tr><td><div>web2py</div></td></tr><tr><td><div>python</div></td></tr><tr><td><div>framework</div></td></tr></table></div></td></tr></table></div></td></tr><tr><td style="font-weight:bold;vertical-align:top;">models_to_run</td><td style="vertical-align:top;">:</td><td><div><table><tr><td><div>^\\w+\\.py$</div></td></tr><tr><td><div>^estudiante/\\w+\\.py$</div></td></tr><tr><td><div>^estudiante/visor_preguntas/\\w+\\.py$</div></td></tr></table></div></td></tr><tr><td style="font-weight:bold;vertical-align:top;">optimize_css</td><td style="vertical-align:top;">:</td><td><div>concat,minify,inline</div></td></tr><tr><td style="font-weight:bold;vertical-align:top;">optimize_js</td><td style="vertical-align:top;">:</td><td><div>concat,minify,inline</div></td></tr><tr><td style="font-weight:bold;vertical-align:top;">postprocessing</td><td style="vertical-align:top;">:</td><td><div><table></table></div></td></tr><tr><td style="font-weight:bold;vertical-align:top;">session_client</td><td style="vertical-align:top;">:</td><td><div>127.0.0.1</div></td></tr><tr><td style="font-weight:bold;vertical-align:top;">session_cookie_compression_level</td><td style="vertical-align:top;">:</td><td><div>None</div></td></tr><tr><td style="font-weight:bold;vertical-align:top;">session_cookie_expires</td><td style="vertical-align:top;">:</td><td><div>None</div></td></tr><tr><td style="font-weight:bold;vertical-align:top;">session_data_name</td><td style="vertical-align:top;">:</td><td><div>session_data_proyect</div></td></tr><tr><td style="font-weight:bold;vertical-align:top;">session_file</td><td style="vertical-align:top;">:</td><td><div>&lt;open file &#x27;/opt/python/web2py-files/web2py/applications/proyect/sessions/165/04d/127.0.0.1-2aab51b9-f859-4d75-9a0d-c0d848c45944&#x27;, mode &#x27;rb+&#x27; at 0x7f3209aa9660&gt;</div></td></tr><tr><td style="font-weight:bold;vertical-align:top;">session_filename</td><td style="vertical-align:top;">:</td><td><div>/opt/python/web2py-files/web2py/applications/proyect/sessions/127.0.0.1-2aab51b9-f859-4d75-9a0d-c0d848c45944</div></td></tr><tr><td style="font-weight:bold;vertical-align:top;">session_hash</td><td style="vertical-align:top;">:</td><td><div>6bf8e7f507233a52e3d50134c2c6d6f1</div></td></tr><tr><td style="font-weight:bold;vertical-align:top;">session_id</td><td style="vertical-align:top;">:</td><td><div>127.0.0.1-2aab51b9-f859-4d75-9a0d-c0d848c45944</div></td></tr><tr><td style="font-weight:bold;vertical-align:top;">session_id_name</td><td style="vertical-align:top;">:</td><td><div>session_id_proyect</div></td></tr><tr><td style="font-weight:bold;vertical-align:top;">session_locked</td><td style="vertical-align:top;">:</td><td><div>True</div></td></tr><tr><td style="font-weight:bold;vertical-align:top;">session_masterapp</td><td style="vertical-align:top;">:</td><td><div>proyect</div></td></tr><tr><td style="font-weight:bold;vertical-align:top;">session_new</td><td style="vertical-align:top;">:</td><td><div>False</div></td></tr><tr><td style="font-weight:bold;vertical-align:top;">session_storage_type</td><td style="vertical-align:top;">:</td><td><div>file</div></td></tr><tr><td style="font-weight:bold;vertical-align:top;">status</td><td style="vertical-align:top;">:</td><td><div>200</div></td></tr><tr><td style="font-weight:bold;vertical-align:top;">subtitle</td><td style="vertical-align:top;">:</td><td><div></div></td></tr><tr><td style="font-weight:bold;vertical-align:top;">title</td><td style="vertical-align:top;">:</td><td><div> | Proyect</div></td></tr><tr><td style="font-weight:bold;vertical-align:top;">view</td><td style="vertical-align:top;">:</td><td><div>estudiante/visor_preguntas.load</div></td></tr></table></div>'
tRp172
sS'locals'
p173
(dp174
S'Service'
p175
S"<class 'gluon.tools.Service'>"
p176
sS'OBJECT'
p177
S"<class 'gluon.html.OBJECT'>"
p178
sS'SQLDB'
p179
S"<class 'pydal.base.DAL'>"
p180
sg165
S"<Storage {'last_query': 'db.respuesta.id>0', '_f...557]': ['8a710047-8091-46fb-931b-4fa64fa92e1d']}>"
p181
sS'LINK'
p182
S"<class 'gluon.html.LINK'>"
p183
sS'BR'
p184
S"<class 'gluon.html.BR'>"
p185
sS'local_import'
p186
S'<function <lambda>>'
p187
sS'OPTGROUP'
p188
S"<class 'gluon.html.OPTGROUP'>"
p189
sS'__package__'
p190
S'None'
p191
sS'PRE'
p192
S"<class 'gluon.html.PRE'>"
p193
sS'IS_INT_IN_RANGE'
p194
S"<class 'gluon.validators.IS_INT_IN_RANGE'>"
p195
sS'IS_LOWER'
p196
S"<class 'gluon.validators.IS_LOWER'>"
p197
sS'IS_STRONG'
p198
S"<class 'gluon.validators.IS_STRONG'>"
p199
sS'cache'
p200
S'<gluon.cache.Cache object>'
p201
sS'IS_IN_DB'
p202
S"<class 'gluon.validators.IS_IN_DB'>"
p203
sS'TAG'
p204
S'<gluon.html.__TAG__ object>'
p205
sS'SQLField'
p206
S"<class 'pydal.objects.Field'>"
p207
sS'mail'
p208
S'<gluon.tools.Mail object>'
p209
sS'BODY'
p210
S"<class 'gluon.html.BODY'>"
p211
sS'IS_DATE_IN_RANGE'
p212
S"<class 'gluon.validators.IS_DATE_IN_RANGE'>"
p213
sS'IFRAME'
p214
S"<class 'gluon.html.IFRAME'>"
p215
sS'URL'
p216
S'<function URL>'
p217
sS'__file__'
p218
S"'/opt/python/web2py-files/web2py/applications/proyect/views/estudiante/visor_preguntas.load'"
p219
sS'db'
p220
S'<DAL uri="mongodb://localhost/proyect">'
p221
sS'auth'
p222
S'<gluon.tools.Auth object>'
p223
sS'P'
S"<class 'gluon.html.P'>"
p224
sS'TFOOT'
p225
S"<class 'gluon.html.TFOOT'>"
p226
sS'XHTML'
p227
S"<class 'gluon.html.XHTML'>"
p228
sS'ON'
p229
S'True'
p230
sS'OL'
p231
S"<class 'gluon.html.OL'>"
p232
sS'TEXTAREA'
p233
S"<class 'gluon.html.TEXTAREA'>"
p234
sS'MENU'
p235
S"<class 'gluon.html.MENU'>"
p236
sS'IS_IMAGE'
p237
S"<class 'gluon.validators.IS_IMAGE'>"
p238
sS'EM'
p239
S"<class 'gluon.html.EM'>"
p240
sS'CODE'
p241
S"<class 'gluon.html.CODE'>"
p242
sS'HTTP'
p243
S"<class 'gluon.http.HTTP'>"
p244
sS'HR'
p245
S"<class 'gluon.html.HR'>"
p246
sS'IS_DATETIME'
p247
S"<class 'gluon.validators.IS_DATETIME'>"
p248
sS'STYLE'
p249
S"<class 'gluon.html.STYLE'>"
p250
sS'LABEL'
p251
S"<class 'gluon.html.LABEL'>"
p252
sS'CLEANUP'
p253
S"<class 'gluon.validators.CLEANUP'>"
p254
sS'plugins'
p255
S'<gluon.tools.PluginManager object>'
p256
sS'SELECT'
p257
S"<class 'gluon.html.SELECT'>"
p258
sS'__formato_ensayo'
p259
S'<function __formato_ensayo>'
p260
sS'CENTER'
p261
S"<class 'gluon.html.CENTER'>"
p262
sS'Auth'
p263
S"<class 'gluon.tools.Auth'>"
p264
sS'__builtins__'
p265
S"{'ArithmeticError': <type 'exceptions.ArithmeticError'>, 'AssertionError': <type 'exceptions.AssertionError'>, 'AttributeError': <type 'exceptions.AttributeError'>, 'BaseException': <type 'exceptions.BaseException'>, 'BufferError': <type 'exceptions.BufferError'>, 'BytesWarning': <type 'exceptions.BytesWarning'>, 'DeprecationWarning': <type 'exceptions.DeprecationWarning'>, 'EOFError': <type 'exceptions.EOFError'>, 'Ellipsis': Ellipsis, 'EnvironmentError': <type 'exceptions.EnvironmentError'>, ...}"
p266
sS'HTML'
p267
S"<class 'gluon.html.HTML'>"
p268
sS'SQLFORM'
p269
S"<class 'gluon.sqlhtml.SQLFORM'>"
p270
sS'LOAD'
p271
S'<function LOAD>'
p272
sS'redirect'
p273
S'<function redirect>'
p274
sS'FIELDSET'
p275
S"<class 'gluon.html.FIELDSET'>"
p276
sS'IS_EQUAL_TO'
p277
S"<class 'gluon.validators.IS_EQUAL_TO'>"
p278
sS'desactivarDiagnostico'
p279
S'<function desactivarDiagnostico>'
p280
sS'pregunta'
p281
S'None'
p282
sS'embed64'
p283
S'<function embed64>'
p284
sS'IS_LIST_OF'
p285
S"<class 'gluon.validators.IS_LIST_OF'>"
p286
sS'INPUT'
p287
S"<class 'gluon.html.INPUT'>"
p288
sS'EMBED'
p289
S"<class 'gluon.html.EMBED'>"
p290
sS'PRODUCTION_MENU'
p291
g230
sS'myconf'
p292
S"{'forms': {'formstyle': 'bootstrap3_inline', 'se...': {'names': 'localhost:*, 127.0.0.1:*, *:*, *'}}"
p293
sS'H2'
p294
S"<class 'gluon.html.H2'>"
p295
sS'H3'
p296
S"<class 'gluon.html.H3'>"
p297
sS'AppConfig'
p298
S'<function AppConfig>'
p299
sS'H1'
p300
S"<class 'gluon.html.H1'>"
p301
sS'H6'
p302
S"<class 'gluon.html.H6'>"
p303
sS'H4'
p304
S"<class 'gluon.html.H4'>"
p305
sS'H5'
p306
S"<class 'gluon.html.H5'>"
p307
sS'UL'
p308
S"<class 'gluon.html.UL'>"
p309
sS'IS_UPPER'
p310
S"<class 'gluon.validators.IS_UPPER'>"
p311
sS'xmlescape'
p312
S'<function xmlescape>'
p313
sS'IS_TIME'
p314
S"<class 'gluon.validators.IS_TIME'>"
p315
sS'OPTION'
p316
S"<class 'gluon.html.OPTION'>"
p317
sS'TITLE'
p318
S"<class 'gluon.html.TITLE'>"
p319
sS'CRYPT'
p320
S"<class 'gluon.validators.CRYPT'>"
p321
sS'IS_EMPTY_OR'
p322
S"<class 'gluon.validators.IS_EMPTY_OR'>"
p323
sS'MARKMIN'
p324
S"<class 'gluon.html.MARKMIN'>"
p325
sS'__name__'
p326
S"'__restricted__'"
p327
sS'STRONG'
p328
S"<class 'gluon.html.STRONG'>"
p329
sS'COL'
p330
S"<class 'gluon.html.COL'>"
p331
sS'service'
p332
S'<gluon.tools.Service object>'
p333
sS'SCRIPT'
p334
S"<class 'gluon.html.SCRIPT'>"
p335
sS'_'
S'<function _>'
p336
sS'TABLE'
p337
S"<class 'gluon.html.TABLE'>"
p338
sS'IS_IPV4'
p339
S"<class 'gluon.validators.IS_IPV4'>"
p340
sS'IS_LENGTH'
p341
S"<class 'gluon.validators.IS_LENGTH'>"
p342
sS'IS_IPV6'
p343
S"<class 'gluon.validators.IS_IPV6'>"
p344
sS'XML'
p345
S"<class 'gluon.html.XML'>"
p346
sS'tipo_pregunta'
p347
S"{'0': <lazyT 'Orientaci\xc3\xb3n'>, '1': <lazyT 'D\xc3\xadgitos en progresi\xc3\xb3n'>, '2': <lazyT 'D\xc3\xadgitos en regresi\xc3\xb3n'>, '3': <lazyT 'Cubos en progresi\xc3\xb3n'>, '4': <lazyT 'Detecci\xc3\xb3n visual'>, '5': <lazyT 'Detecci\xc3\xb3n de d\xc3\xadgitos'>, '6': <lazyT 'Series sucesivas'>}"
p348
sS'B'
S"<class 'gluon.html.B'>"
p349
sS'IMG'
p350
S"<class 'gluon.html.IMG'>"
p351
sS'SQLTABLE'
p352
S"<class 'gluon.sqlhtml.SQLTABLE'>"
p353
sS'IS_MATCH'
p354
S"<class 'gluon.validators.IS_MATCH'>"
p355
sS'__evaluar_pregunta'
p356
S'<function __evaluar_pregunta>'
p357
sS'IS_ALPHANUMERIC'
p358
S"<class 'gluon.validators.IS_ALPHANUMERIC'>"
p359
sS'SPAN'
p360
S"<class 'gluon.html.SPAN'>"
p361
sS'IS_JSON'
p362
S"<class 'gluon.validators.IS_JSON'>"
p363
sS'IS_IPADDRESS'
p364
S"<class 'gluon.validators.IS_IPADDRESS'>"
p365
sS'IS_SLUG'
p366
S"<class 'gluon.validators.IS_SLUG'>"
p367
sS'BEAUTIFY'
p368
S"<class 'gluon.html.BEAUTIFY'>"
p369
sS'META'
p370
S"<class 'gluon.html.META'>"
p371
sS'tipo_diagnostico'
p372
S"{'0': <lazyT 'Inicial'>, '1': <lazyT 'Atenci\xc3\xb3n Enfocada'>, '2': <lazyT 'Atenci\xc3\xb3n Sostenida'>, '3': <lazyT 'Atenci\xc3\xb3n Selectiva'>, '4': <lazyT 'Atenci\xc3\xb3n Alternada'>, '5': <lazyT 'Atenci\xc3\xb3n Dividida'>}"
p373
sS'BUTTON'
p374
S"<class 'gluon.html.BUTTON'>"
p375
sS'IS_DATE'
p376
S"<class 'gluon.validators.IS_DATE'>"
p377
sS'IS_EMAIL'
p378
S"<class 'gluon.validators.IS_EMAIL'>"
p379
sS'IS_NOT_EMPTY'
p380
S"<class 'gluon.validators.IS_NOT_EMPTY'>"
p381
sS'IS_FLOAT_IN_RANGE'
p382
S"<class 'gluon.validators.IS_FLOAT_IN_RANGE'>"
p383
sS'TBODY'
p384
S"<class 'gluon.html.TBODY'>"
p385
sS'CAT'
p386
S"<class 'gluon.html.CAT'>"
p387
sS'Field'
p388
S"<class 'pydal.objects.Field'>"
p389
sS'IS_LIST_OF_EMAILS'
p390
S"<class 'gluon.validators.IS_LIST_OF_EMAILS'>"
p391
sS'DIV'
p392
S"<class 'gluon.html.DIV'>"
p393
sS'LEGEND'
p394
S"<class 'gluon.html.LEGEND'>"
p395
sS'COLGROUP'
p396
S"<class 'gluon.html.COLGROUP'>"
p397
sS'DAL'
p398
S"<class 'pydal.base.DAL'>"
p399
sS'ASSIGNJS'
p400
S'<function ASSIGNJS>'
p401
sS'TR'
p402
S"<class 'gluon.html.TR'>"
p403
sS'LI'
p404
S"<class 'gluon.html.LI'>"
p405
sS'TH'
p406
S"<class 'gluon.html.TH'>"
p407
sS'TD'
p408
S"<class 'gluon.html.TD'>"
p409
sS'PluginManager'
p410
S"<class 'gluon.tools.PluginManager'>"
p411
sS'IS_URL'
p412
S"<class 'gluon.validators.IS_URL'>"
p413
sS'respuesta_id'
p414
S'None'
p415
sS'A'
S"<class 'gluon.html.A'>"
p416
sS'HEAD'
p417
S"<class 'gluon.html.HEAD'>"
p418
sS'IS_DATETIME_IN_RANGE'
p419
S"<class 'gluon.validators.IS_DATETIME_IN_RANGE'>"
p420
sS'FORM'
p421
S"<class 'gluon.html.FORM'>"
p422
sS'I'
S"<class 'gluon.html.I'>"
p423
sS'IS_NOT_IN_DB'
p424
S"<class 'gluon.validators.IS_NOT_IN_DB'>"
p425
sg171
S"<Storage {'body': <cStringIO.StringO object at 0...2a8>, 'view': 'estudiante/visor_preguntas.load'}>"
p426
sS'THEAD'
p427
S"<class 'gluon.html.THEAD'>"
p428
sS'ANY_OF'
p429
S"<class 'gluon.validators.ANY_OF'>"
p430
sS'IS_NULL_OR'
p431
S"<class 'gluon.validators.IS_EMPTY_OR'>"
p432
sg56
S"<Storage {'_vars': None, 'function': 'visor_preg...thon/web2py-files/web2py/applications/proyect/'}>"
p433
sS'IS_EXPR'
p434
S"<class 'gluon.validators.IS_EXPR'>"
p435
sS'T'
S'<gluon.languages.translator object>'
p436
sS'IS_IN_SET'
p437
S"<class 'gluon.validators.IS_IN_SET'>"
p438
sS'IS_UPLOAD_FILENAME'
p439
S"<class 'gluon.validators.IS_UPLOAD_FILENAME'>"
p440
sS'TT'
p441
S"<class 'gluon.html.TT'>"
p442
sS'IS_DECIMAL_IN_RANGE'
p443
S"<class 'gluon.validators.IS_DECIMAL_IN_RANGE'>"
p444
sssS'traceback'
p445
S'Traceback (most recent call last):\n  File "/opt/python/web2py-files/web2py/gluon/restricted.py", line 227, in restricted\n    exec ccode in environment\n  File "/opt/python/web2py-files/web2py/applications/proyect/views/estudiante/visor_preguntas.load", line 58, in <module>\n    $(\'#guardar\').click(function(event){\nNameError: name \'diagnostico\' is not defined\n'
p446
s.