(dp1
S'output'
p2
S"<type 'exceptions.AttributeError'> 'DAL' object has no attribute 'banner'"
p3
sS'layer'
p4
S'/opt/python/web2py-files/web2py/applications/proyect/controllers/component.py'
p5
sS'code'
p6
S'# -*- coding: utf-8 -*-\n# this file is released under public domain and you can use without limitations\n\ndef show_carousel():\n    """\n    Componente que permite mostrar los banners habilitados\n    """\n    if request.cid:\n        import datetime\n        banners = db((db.banner.publicar_en <= datetime.datetime.today()) & (db.banner.habilitado == True) & (db.banner.imagen != "")).select(orderby =~ db.banner.publicar_en, limitby=(0,10), cache=(cache.ram, 60))\n        return dict(banners=banners)        \n    else:\n        raise HTTP(403)\n\nresponse._vars=response._caller(show_carousel)\n'
p7
sS'snapshot'
p8
(dp9
sS'traceback'
p10
S'Traceback (most recent call last):\n  File "/opt/python/web2py-files/web2py/gluon/restricted.py", line 227, in restricted\n    exec ccode in environment\n  File "/opt/python/web2py-files/web2py/applications/proyect/controllers/component.py", line 15, in <module>\n  File "/opt/python/web2py-files/web2py/gluon/globals.py", line 417, in <lambda>\n    self._caller = lambda f: f()\n  File "/opt/python/web2py-files/web2py/applications/proyect/controllers/component.py", line 10, in show_carousel\n    banners = db((db.banner.publicar_en <= datetime.datetime.today()) & (db.banner.habilitado == True) & (db.banner.imagen != "")).select(orderby =~ db.banner.publicar_en, limitby=(0,10), cache=(cache.ram, 60))\n  File "/opt/python/web2py-files/web2py/gluon/packages/dal/pydal/base.py", line 921, in __getattr__\n    return BasicStorage.__getattribute__(self, key)\nAttributeError: \'DAL\' object has no attribute \'banner\'\n'
p11
s.