(dp1
S'output'
p2
S"<type 'exceptions.NotImplementedError'> How did you reach this line of code???"
p3
sS'layer'
p4
S'/opt/python/web2py-files/web2py/applications/proyect/controllers/estudiante.py'
p5
sS'code'
p6
S'# -*- coding: utf-8 -*-\n# this file is released under public domain and you can use without limitations\n\ndef cuestionario_diagnostico():\n    response.flash = T("Cuestionario de diagn\xc3\xb3stico")\n    response.title = T("Cuestionario de diagn\xc3\xb3stico") + response.title\n    \n    diagnostico = db((db.diagnostico.activo == True) & (db.diagnostico.tipo == 0)).select().first()\n    \n    preguntas = db((db.pregunta.tipo > 3) & (db.pregunta.diagnostico == diagnostico.id) & ()).select(orderby=db.pregunta.tipo)\n    return dict(diagnostico=diagnostico, preguntas=preguntas)\n\ndef diag_alternada():\n\n    response.title = T("Atenci\xc3\xb3n Alternada") + response.title\n    return dict()\n\ndef diag_dividida():\n\n    response.title = T("Atenci\xc3\xb3n Dividida") + response.title\n    return dict()\n\ndef diag_enfocada():\n\n    response.title = T("Atenci\xc3\xb3n Enfocada") + response.title\n    return dict()\n\ndef diag_selectiva():\n\n    response.title = T("Atenci\xc3\xb3n Selectiva") + response.title\n    return dict()\n\ndef diag_sostenida():\n\n    response.title = T("Atenci\xc3\xb3n Sostenida") + response.title\n    return dict()\n\ndef resultado_general():\n    response.flash = T("Resultado General")\n    response.title = T("Resultado General") + response.title\n    return dict()\n\ndef resultado_alternada():\n\n    response.title = T("Atenci\xc3\xb3n Alternada") + response.title\n    return dict()\n\ndef resultado_dividida():\n\n    response.title = T("Atenci\xc3\xb3n Dividida") + response.title\n    return dict()\n\ndef resultado_enfocada():\n\n    response.title = T("Atenci\xc3\xb3n Enfocada") + response.title\n    return dict()\n\ndef resultado_selectiva():\n\n    response.title = T("Atenci\xc3\xb3n Selectiva") + response.title\n    return dict()\n\ndef resultado_sostenida():\n\n    response.title = T("Atenci\xc3\xb3n Sostenida") + response.title\n    return dict()\n\nresponse._vars=response._caller(cuestionario_diagnostico)\n'
p7
sS'snapshot'
p8
(dp9
sS'traceback'
p10
S'Traceback (most recent call last):\n  File "/opt/python/web2py-files/web2py/gluon/restricted.py", line 227, in restricted\n    exec ccode in environment\n  File "/opt/python/web2py-files/web2py/applications/proyect/controllers/estudiante.py", line 68, in <module>\n  File "/opt/python/web2py-files/web2py/gluon/globals.py", line 417, in <lambda>\n    self._caller = lambda f: f()\n  File "/opt/python/web2py-files/web2py/applications/proyect/controllers/estudiante.py", line 10, in cuestionario_diagnostico\n    preguntas = db((db.pregunta.tipo > 3) & (db.pregunta.diagnostico == diagnostico.id) & ()).select(orderby=db.pregunta.tipo)\n  File "/opt/python/web2py-files/web2py/gluon/packages/dal/pydal/objects.py", line 2020, in select\n    return adapter.select(self.query, fields, attributes)\n  File "/opt/python/web2py-files/web2py/gluon/packages/dal/pydal/adapters/mongo.py", line 829, in select\n    groupby=groupby, distinct=distinct, having=having)\n  File "/opt/python/web2py-files/web2py/gluon/packages/dal/pydal/adapters/mongo.py", line 356, in __init__\n    self.query_dict = adapter.expand(self.query)\n  File "/opt/python/web2py-files/web2py/gluon/packages/dal/pydal/adapters/mongo.py", line 704, in expand\n    result = op(first, second, **optional_args)\n  File "/opt/python/web2py-files/web2py/gluon/packages/dal/pydal/adapters/mongo.py", line 1116, in AND\n    return {\'$and\': [self.expand(first), self.expand(second)]}\n  File "/opt/python/web2py-files/web2py/gluon/packages/dal/pydal/adapters/mongo.py", line 717, in expand\n    #raise NotImplementedError("How did you reach this line of code???")\nNotImplementedError: How did you reach this line of code???\n'
p11
s.