(dp1
S'output'
p2
S"<type 'exceptions.KeyError'> 27432087091748039009850110663L"
p3
sS'layer'
p4
S'/opt/python/web2py-files/web2py/applications/proyect/views/especialista/get_pregunta.load'
p5
sS'code'
p6
S'response.write(\'<div class="row">\\n    <div class="col-md-12">\\n        <h6>\', escape=False)\nresponse.write(tipo_pregunta[request.args(0)])\nresponse.write(\'</h6>\\n    </div>\\n</div>\\n\\n\\n\\n    <div class="row">\\n        \', escape=False)\nfor pregunta in preguntas:\n    response.write(\'\\n        <div class="col-md-5 col-md-offset-1">\\n            <ul class="nav pregunta">\\n\\n               \', escape=False)\n    response.write(LI(H6(pregunta.pregunta)))\n    response.write(\'\\n\\n\\n            </ul>\\n        </div>\\n    \\n        <div class="col-md-5 col-md-offset-1">\\n            <ul class="nav pregunta">\\n               \', escape=False)\n    response.write(LI(H6(T(\'Juego de Respuestas\'))))\n    response.write(\'\\n\\n            </ul>\\n        </div>\\n    \', escape=False)\n    pass\nresponse.write(\'\\n    </div>\\n\', escape=False)'
p7
sS'snapshot'
p8
(dp9
S'exception'
p10
(dp11
S'__hash__'
p12
S"<method-wrapper '__hash__' of exceptions.KeyError object>"
p13
sS'__setattr__'
p14
S"<method-wrapper '__setattr__' of exceptions.KeyError object>"
p15
sS'__reduce_ex__'
p16
S'<built-in method __reduce_ex__ of exceptions.KeyError object>'
p17
sS'__getslice__'
p18
S"<method-wrapper '__getslice__' of exceptions.KeyError object>"
p19
sS'__getitem__'
p20
S"<method-wrapper '__getitem__' of exceptions.KeyError object>"
p21
sS'__setstate__'
p22
S'<built-in method __setstate__ of exceptions.KeyError object>'
p23
sS'args'
p24
S'(27432087091748039009850110663L,)'
p25
sS'__reduce__'
p26
S'<built-in method __reduce__ of exceptions.KeyError object>'
p27
sS'__str__'
p28
S"<method-wrapper '__str__' of exceptions.KeyError object>"
p29
sS'__format__'
p30
S'<built-in method __format__ of exceptions.KeyError object>'
p31
sS'__getattribute__'
p32
S"<method-wrapper '__getattribute__' of exceptions.KeyError object>"
p33
sS'__class__'
p34
S"<type 'exceptions.KeyError'>"
p35
sS'__unicode__'
p36
S'<built-in method __unicode__ of exceptions.KeyError object>'
p37
sS'__delattr__'
p38
S"<method-wrapper '__delattr__' of exceptions.KeyError object>"
p39
sS'__subclasshook__'
p40
S'<built-in method __subclasshook__ of type object>'
p41
sS'__repr__'
p42
S"<method-wrapper '__repr__' of exceptions.KeyError object>"
p43
sS'__dict__'
p44
S'{}'
p45
sS'__sizeof__'
p46
S'<built-in method __sizeof__ of exceptions.KeyError object>'
p47
sS'__doc__'
p48
S"'Mapping key not found.'"
p49
sS'__init__'
p50
S"<method-wrapper '__init__' of exceptions.KeyError object>"
p51
sS'__new__'
p52
S'<built-in method __new__ of type object>'
p53
ssS'evalue'
p54
S'27432087091748039009850110663L'
p55
sS'request'
p56
cgluon.html
XML_unpickle
p57
(S's\x9e\x91\x00\x00<div><table><tr><td style="font-weight:bold;vertical-align:top;">ajax</td><td style="vertical-align:top;">:</td><td><div>False</div></td></tr><tr><td style="font-weight:bold;vertical-align:top;">application</td><td style="vertical-align:top;">:</td><td><div>proyect</div></td></tr><tr><td style="font-weight:bold;vertical-align:top;">args</td><td style="vertical-align:top;">:</td><td><div><table><tr><td><div>27432087091748039009850110663L</div></td></tr><tr><td><div>0</div></td></tr></table></div></td></tr><tr><td style="font-weight:bold;vertical-align:top;">cid</td><td style="vertical-align:top;">:</td><td><div>c755916420229</div></td></tr><tr><td style="font-weight:bold;vertical-align:top;">client</td><td style="vertical-align:top;">:</td><td><div>127.0.0.1</div></td></tr><tr><td style="font-weight:bold;vertical-align:top;">controller</td><td style="vertical-align:top;">:</td><td><div>especialista</div></td></tr><tr><td style="font-weight:bold;vertical-align:top;">cookies</td><td style="vertical-align:top;">:</td><td><div><table><tr><td style="font-weight:bold;vertical-align:top;">session_id_admin</td><td style="vertical-align:top;">:</td><td><div>127.0.0.1-ffa8d217-e95d-4b9f-9257-4d79ff082056<table><tr><td style="font-weight:bold;vertical-align:top;">comment</td><td style="vertical-align:top;">:</td><td><div></div></td></tr><tr><td style="font-weight:bold;vertical-align:top;">domain</td><td style="vertical-align:top;">:</td><td><div></div></td></tr><tr><td style="font-weight:bold;vertical-align:top;">expires</td><td style="vertical-align:top;">:</td><td><div></div></td></tr><tr><td style="font-weight:bold;vertical-align:top;">httponly</td><td style="vertical-align:top;">:</td><td><div></div></td></tr><tr><td style="font-weight:bold;vertical-align:top;">max-age</td><td style="vertical-align:top;">:</td><td><div></div></td></tr><tr><td style="font-weight:bold;vertical-align:top;">path</td><td style="vertical-align:top;">:</td><td><div></div></td></tr><tr><td style="font-weight:bold;vertical-align:top;">secure</td><td style="vertical-align:top;">:</td><td><div></div></td></tr><tr><td style="font-weight:bold;vertical-align:top;">version</td><td style="vertical-align:top;">:</td><td><div></div></td></tr></table></div></td></tr><tr><td style="font-weight:bold;vertical-align:top;">session_id_proyect</td><td style="vertical-align:top;">:</td><td><div>127.0.0.1-d066fd22-e1dc-4d18-8107-c99b453c4d0d<table><tr><td style="font-weight:bold;vertical-align:top;">comment</td><td style="vertical-align:top;">:</td><td><div></div></td></tr><tr><td style="font-weight:bold;vertical-align:top;">domain</td><td style="vertical-align:top;">:</td><td><div></div></td></tr><tr><td style="font-weight:bold;vertical-align:top;">expires</td><td style="vertical-align:top;">:</td><td><div></div></td></tr><tr><td style="font-weight:bold;vertical-align:top;">httponly</td><td style="vertical-align:top;">:</td><td><div></div></td></tr><tr><td style="font-weight:bold;vertical-align:top;">max-age</td><td style="vertical-align:top;">:</td><td><div></div></td></tr><tr><td style="font-weight:bold;vertical-align:top;">path</td><td style="vertical-align:top;">:</td><td><div></div></td></tr><tr><td style="font-weight:bold;vertical-align:top;">secure</td><td style="vertical-align:top;">:</td><td><div></div></td></tr><tr><td style="font-weight:bold;vertical-align:top;">version</td><td style="vertical-align:top;">:</td><td><div></div></td></tr></table></div></td></tr><tr><td style="font-weight:bold;vertical-align:top;">session_id_welcome</td><td style="vertical-align:top;">:</td><td><div>127.0.0.1-74e84a99-1e17-4ba2-b647-52629abad5cb<table><tr><td style="font-weight:bold;vertical-align:top;">comment</td><td style="vertical-align:top;">:</td><td><div></div></td></tr><tr><td style="font-weight:bold;vertical-align:top;">domain</td><td style="vertical-align:top;">:</td><td><div></div></td></tr><tr><td style="font-weight:bold;vertical-align:top;">expires</td><td style="vertical-align:top;">:</td><td><div></div></td></tr><tr><td style="font-weight:bold;vertical-align:top;">httponly</td><td style="vertical-align:top;">:</td><td><div></div></td></tr><tr><td style="font-weight:bold;vertical-align:top;">max-age</td><td style="vertical-align:top;">:</td><td><div></div></td></tr><tr><td style="font-weight:bold;vertical-align:top;">path</td><td style="vertical-align:top;">:</td><td><div></div></td></tr><tr><td style="font-weight:bold;vertical-align:top;">secure</td><td style="vertical-align:top;">:</td><td><div></div></td></tr><tr><td style="font-weight:bold;vertical-align:top;">version</td><td style="vertical-align:top;">:</td><td><div></div></td></tr></table></div></td></tr></table></div></td></tr><tr><td style="font-weight:bold;vertical-align:top;">env</td><td style="vertical-align:top;">:</td><td><div><table><tr><td style="font-weight:bold;vertical-align:top;">HTTP_ACCEPT</td><td style="vertical-align:top;">:</td><td><div>text/html,application/xhtml+xml,application/xml;q=0.9,*/*;q=0.8</div></td></tr><tr><td style="font-weight:bold;vertical-align:top;">HTTP_ACCEPT_ENCODING</td><td style="vertical-align:top;">:</td><td><div>gzip, deflate</div></td></tr><tr><td style="font-weight:bold;vertical-align:top;">HTTP_ACCEPT_LANGUAGE</td><td style="vertical-align:top;">:</td><td><div>en-US,en;q=0.5</div></td></tr><tr><td style="font-weight:bold;vertical-align:top;">HTTP_CACHE_CONTROL</td><td style="vertical-align:top;">:</td><td><div>max-age=0</div></td></tr><tr><td style="font-weight:bold;vertical-align:top;">HTTP_CONNECTION</td><td style="vertical-align:top;">:</td><td><div>keep-alive</div></td></tr><tr><td style="font-weight:bold;vertical-align:top;">HTTP_COOKIE</td><td style="vertical-align:top;">:</td><td><div>_ga=GA1.1.648974235.1473547908; session_id_welcome=127.0.0.1-74e84a99-1e17-4ba2-b647-52629abad5cb; session_id_proyect=127.0.0.1-d066fd22-e1dc-4d18-8107-c99b453c4d0d; session_id_admin=127.0.0.1-ffa8d217-e95d-4b9f-9257-4d79ff082056</div></td></tr><tr><td style="font-weight:bold;vertical-align:top;">HTTP_HOST</td><td style="vertical-align:top;">:</td><td><div>localhost:8000</div></td></tr><tr><td style="font-weight:bold;vertical-align:top;">HTTP_REFERER</td><td style="vertical-align:top;">:</td><td><div>http://localhost:8000/proyect/especialista/gestionar_diagnostico/diagnostico/pregunta.diagnostico/27432087091748039009850110663/edit/pregunta/27432101387974696134752613074?_signature=015bef4bdedda29fe7d993a96945e172dd084c84</div></td></tr><tr><td style="font-weight:bold;vertical-align:top;">HTTP_UPGRADE_INSECURE_REQUESTS</td><td style="vertical-align:top;">:</td><td><div>1</div></td></tr><tr><td style="font-weight:bold;vertical-align:top;">HTTP_USER_AGENT</td><td style="vertical-align:top;">:</td><td><div>Mozilla/5.0 (X11; Ubuntu; Linux x86_64; rv:51.0) Gecko/20100101 Firefox/51.0</div></td></tr><tr><td style="font-weight:bold;vertical-align:top;">PATH_INFO</td><td style="vertical-align:top;">:</td><td><div>/proyect/especialista/gestionar_diagnostico/diagnostico/pregunta.diagnostico/27432087091748039009850110663</div></td></tr><tr><td style="font-weight:bold;vertical-align:top;">QUERY_STRING</td><td style="vertical-align:top;">:</td><td><div>_signature=4803ece7c84d07f93a7e58bad9c49061b7d01bde</div></td></tr><tr><td style="font-weight:bold;vertical-align:top;">REMOTE_ADDR</td><td style="vertical-align:top;">:</td><td><div>127.0.0.1</div></td></tr><tr><td style="font-weight:bold;vertical-align:top;">REMOTE_PORT</td><td style="vertical-align:top;">:</td><td><div>47232</div></td></tr><tr><td style="font-weight:bold;vertical-align:top;">REQUEST_METHOD</td><td style="vertical-align:top;">:</td><td><div>GET</div></td></tr><tr><td style="font-weight:bold;vertical-align:top;">SCRIPT_NAME</td><td style="vertical-align:top;">:</td><td><div></div></td></tr><tr><td style="font-weight:bold;vertical-align:top;">SERVER_NAME</td><td style="vertical-align:top;">:</td><td><div>yasmany-tp500lab</div></td></tr><tr><td style="font-weight:bold;vertical-align:top;">SERVER_PORT</td><td style="vertical-align:top;">:</td><td><div>8000</div></td></tr><tr><td style="font-weight:bold;vertical-align:top;">SERVER_PROTOCOL</td><td style="vertical-align:top;">:</td><td><div>HTTP/1.1</div></td></tr><tr><td style="font-weight:bold;vertical-align:top;">SERVER_SOFTWARE</td><td style="vertical-align:top;">:</td><td><div>Rocket 1.2.6</div></td></tr><tr><td style="font-weight:bold;vertical-align:top;">app_folders</td><td style="vertical-align:top;">:</td><td><div>set([&#x27;/opt/python/web2py-files/web2py/applications/admin/&#x27;, &#x27;/opt/python/web2py-files/web2py/applications/proyect/&#x27;, &#x27;/opt/python/web2py-files/web2py/applications/welcome/&#x27;])</div></td></tr><tr><td style="font-weight:bold;vertical-align:top;">applications_parent</td><td style="vertical-align:top;">:</td><td><div>/opt/python/web2py-files/web2py</div></td></tr><tr><td style="font-weight:bold;vertical-align:top;">cmd_args</td><td style="vertical-align:top;">:</td><td><div><table></table></div></td></tr><tr><td style="font-weight:bold;vertical-align:top;">cmd_options</td><td style="vertical-align:top;">:</td><td><div>&lt;Values at 0x7f216b136320: {&#x27;verbose&#x27;: False, &#x27;ip&#x27;: &#x27;127.0.0.1&#x27;, &#x27;debuglevel&#x27;: 30, &#x27;with_scheduler&#x27;: False, &#x27;shutdown_timeout&#x27;: 5, &#x27;taskbar&#x27;: False, &#x27;with_coverage&#x27;: False, &#x27;pid_filename&#x27;: &#x27;httpserver.pid&#x27;, &#x27;maxthreads&#x27;: None, &#x27;softcron&#x27;: False, &#x27;server_name&#x27;: &#x27;yasmany-tp500lab&#x27;, &#x27;bpython&#x27;: False, &#x27;nogui&#x27;: False, &#x27;port&#x27;: 8000, &#x27;print_errors&#x27;: False, &#x27;extcron&#x27;: False, &#x27;runcron&#x27;: False, &#x27;run_system_tests&#x27;: False, &#x27;test&#x27;: None, &#x27;folder&#x27;: &#x27;/opt/python/web2py-files/web2py&#x27;, &#x27;config&#x27;: &#x27;&#x27;, &#x27;minthreads&#x27;: None, &#x27;shell&#x27;: None, &#x27;run&#x27;: &#x27;&#x27;, &#x27;log_filename&#x27;: &#x27;httpserver.log&#x27;, &#x27;profiler_dir&#x27;: None, &#x27;args&#x27;: [&#x27;&#x27;], &#x27;socket_timeout&#x27;: 5, &#x27;ssl_ca_certificate&#x27;: None, &#x27;scheduler&#x27;: None, &#x27;interfaces&#x27;: None, &#x27;ssl_private_key&#x27;: &#x27;&#x27;, &#x27;gae&#x27;: None, &#x27;password&#x27;: &#x27;******&#x27;, &#x27;request_queue_size&#x27;: 5, &#x27;ssl_certificate&#x27;: &#x27;&#x27;, &#x27;cronjob&#x27;: False, &#x27;numthreads&#x27;: None, &#x27;quiet&#x27;: False, &#x27;import_models&#x27;: False, &#x27;timeout&#x27;: 10, &#x27;plain&#x27;: False, &#x27;nobanner&#x27;: False}&gt;</div></td></tr><tr><td style="font-weight:bold;vertical-align:top;">db_sessions</td><td style="vertical-align:top;">:</td><td><div>set([])</div></td></tr><tr><td style="font-weight:bold;vertical-align:top;">debugging</td><td style="vertical-align:top;">:</td><td><div>True</div></td></tr><tr><td style="font-weight:bold;vertical-align:top;">gluon_parent</td><td style="vertical-align:top;">:</td><td><div>/opt/python/web2py-files/web2py</div></td></tr><tr><td style="font-weight:bold;vertical-align:top;">http_accept</td><td style="vertical-align:top;">:</td><td><div>text/html,application/xhtml+xml,application/xml;q=0.9,*/*;q=0.8</div></td></tr><tr><td style="font-weight:bold;vertical-align:top;">http_accept_encoding</td><td style="vertical-align:top;">:</td><td><div>gzip, deflate</div></td></tr><tr><td style="font-weight:bold;vertical-align:top;">http_accept_language</td><td style="vertical-align:top;">:</td><td><div>en-US,en;q=0.5</div></td></tr><tr><td style="font-weight:bold;vertical-align:top;">http_cache_control</td><td style="vertical-align:top;">:</td><td><div>max-age=0</div></td></tr><tr><td style="font-weight:bold;vertical-align:top;">http_connection</td><td style="vertical-align:top;">:</td><td><div>keep-alive</div></td></tr><tr><td style="font-weight:bold;vertical-align:top;">http_cookie</td><td style="vertical-align:top;">:</td><td><div>_ga=GA1.1.648974235.1473547908; session_id_welcome=127.0.0.1-74e84a99-1e17-4ba2-b647-52629abad5cb; session_id_proyect=127.0.0.1-d066fd22-e1dc-4d18-8107-c99b453c4d0d; session_id_admin=127.0.0.1-ffa8d217-e95d-4b9f-9257-4d79ff082056</div></td></tr><tr><td style="font-weight:bold;vertical-align:top;">http_host</td><td style="vertical-align:top;">:</td><td><div>localhost:8000</div></td></tr><tr><td style="font-weight:bold;vertical-align:top;">http_referer</td><td style="vertical-align:top;">:</td><td><div>http://localhost:8000/proyect/especialista/gestionar_diagnostico/diagnostico/pregunta.diagnostico/27432087091748039009850110663/edit/pregunta/27432101387974696134752613074?_signature=015bef4bdedda29fe7d993a96945e172dd084c84</div></td></tr><tr><td style="font-weight:bold;vertical-align:top;">http_upgrade_insecure_requests</td><td style="vertical-align:top;">:</td><td><div>1</div></td></tr><tr><td style="font-weight:bold;vertical-align:top;">http_user_agent</td><td style="vertical-align:top;">:</td><td><div>Mozilla/5.0 (X11; Ubuntu; Linux x86_64; rv:51.0) Gecko/20100101 Firefox/51.0</div></td></tr><tr><td style="font-weight:bold;vertical-align:top;">http_web2py_component_element</td><td style="vertical-align:top;">:</td><td><div>c755916420229</div></td></tr><tr><td style="font-weight:bold;vertical-align:top;">http_web2py_component_location</td><td style="vertical-align:top;">:</td><td><div>/proyect/especialista/gestionar_diagnostico/diagnostico/pregunta.diagnostico/27432087091748039009850110663</div></td></tr><tr><td style="font-weight:bold;vertical-align:top;">is_jython</td><td style="vertical-align:top;">:</td><td><div>False</div></td></tr><tr><td style="font-weight:bold;vertical-align:top;">is_pypy</td><td style="vertical-align:top;">:</td><td><div>False</div></td></tr><tr><td style="font-weight:bold;vertical-align:top;">is_source</td><td style="vertical-align:top;">:</td><td><div>True</div></td></tr><tr><td style="font-weight:bold;vertical-align:top;">local_hosts</td><td style="vertical-align:top;">:</td><td><div><table><tr><td><div>yasmany-tp500lab</div></td></tr><tr><td><div>127.0.1.1</div></td></tr><tr><td><div>::ffff:127.0.0.1</div></td></tr><tr><td><div>::1</div></td></tr><tr><td><div>yasmany-TP500LAB</div></td></tr><tr><td><div>127.0.0.1</div></td></tr></table></div></td></tr><tr><td style="font-weight:bold;vertical-align:top;">path_info</td><td style="vertical-align:top;">:</td><td><div>/proyect/especialista/get_pregunta/27432087091748039009850110663/0</div></td></tr><tr><td style="font-weight:bold;vertical-align:top;">query_string</td><td style="vertical-align:top;">:</td><td><div></div></td></tr><tr><td style="font-weight:bold;vertical-align:top;">remote_addr</td><td style="vertical-align:top;">:</td><td><div>127.0.0.1</div></td></tr><tr><td style="font-weight:bold;vertical-align:top;">remote_port</td><td style="vertical-align:top;">:</td><td><div>47232</div></td></tr><tr><td style="font-weight:bold;vertical-align:top;">request_method</td><td style="vertical-align:top;">:</td><td><div>GET</div></td></tr><tr><td style="font-weight:bold;vertical-align:top;">request_uri</td><td style="vertical-align:top;">:</td><td><div>/proyect/especialista/gestionar_diagnostico/diagnostico/pregunta.diagnostico/27432087091748039009850110663?_signature=4803ece7c84d07f93a7e58bad9c49061b7d01bde</div></td></tr><tr><td style="font-weight:bold;vertical-align:top;">script_name</td><td style="vertical-align:top;">:</td><td><div></div></td></tr><tr><td style="font-weight:bold;vertical-align:top;">server_name</td><td style="vertical-align:top;">:</td><td><div>yasmany-tp500lab</div></td></tr><tr><td style="font-weight:bold;vertical-align:top;">server_port</td><td style="vertical-align:top;">:</td><td><div>8000</div></td></tr><tr><td style="font-weight:bold;vertical-align:top;">server_protocol</td><td style="vertical-align:top;">:</td><td><div>HTTP/1.1</div></td></tr><tr><td style="font-weight:bold;vertical-align:top;">server_software</td><td style="vertical-align:top;">:</td><td><div>Rocket 1.2.6</div></td></tr><tr><td style="font-weight:bold;vertical-align:top;">web2py_path</td><td style="vertical-align:top;">:</td><td><div>/opt/python/web2py-files/web2py</div></td></tr><tr><td style="font-weight:bold;vertical-align:top;">web2py_version</td><td style="vertical-align:top;">:</td><td><div>2.14.6-stable+timestamp.2016.05.10.00.21.47</div></td></tr><tr><td style="font-weight:bold;vertical-align:top;">wsgi.errors</td><td style="vertical-align:top;">:</td><td><div>&lt;open file &#x27;&lt;stderr&gt;&#x27;, mode &#x27;w&#x27; at 0x7f216fe251e0&gt;</div></td></tr><tr><td style="font-weight:bold;vertical-align:top;">wsgi.file_wrapper</td><td style="vertical-align:top;">:</td><td><div>&lt;class wsgiref.util.FileWrapper at 0x7f216b1cdef0&gt;</div></td></tr><tr><td style="font-weight:bold;vertical-align:top;">wsgi.input</td><td style="vertical-align:top;">:</td><td><div>&lt;socket._fileobject object at 0x7f2132c60a50&gt;</div></td></tr><tr><td style="font-weight:bold;vertical-align:top;">wsgi.multiprocess</td><td style="vertical-align:top;">:</td><td><div>False</div></td></tr><tr><td style="font-weight:bold;vertical-align:top;">wsgi.multithread</td><td style="vertical-align:top;">:</td><td><div>True</div></td></tr><tr><td style="font-weight:bold;vertical-align:top;">wsgi.run_once</td><td style="vertical-align:top;">:</td><td><div>False</div></td></tr><tr><td style="font-weight:bold;vertical-align:top;">wsgi.url_scheme</td><td style="vertical-align:top;">:</td><td><div>http</div></td></tr><tr><td style="font-weight:bold;vertical-align:top;">wsgi.version</td><td style="vertical-align:top;">:</td><td><div><table><tr><td><div>1</div></td></tr><tr><td><div>0</div></td></tr></table></div></td></tr><tr><td style="font-weight:bold;vertical-align:top;">wsgi_errors</td><td style="vertical-align:top;">:</td><td><div>&lt;open file &#x27;&lt;stderr&gt;&#x27;, mode &#x27;w&#x27; at 0x7f216fe251e0&gt;</div></td></tr><tr><td style="font-weight:bold;vertical-align:top;">wsgi_file_wrapper</td><td style="vertical-align:top;">:</td><td><div>&lt;class wsgiref.util.FileWrapper at 0x7f216b1cdef0&gt;</div></td></tr><tr><td style="font-weight:bold;vertical-align:top;">wsgi_input</td><td style="vertical-align:top;">:</td><td><div>&lt;socket._fileobject object at 0x7f2132c60a50&gt;</div></td></tr><tr><td style="font-weight:bold;vertical-align:top;">wsgi_multiprocess</td><td style="vertical-align:top;">:</td><td><div>False</div></td></tr><tr><td style="font-weight:bold;vertical-align:top;">wsgi_multithread</td><td style="vertical-align:top;">:</td><td><div>True</div></td></tr><tr><td style="font-weight:bold;vertical-align:top;">wsgi_run_once</td><td style="vertical-align:top;">:</td><td><div>False</div></td></tr><tr><td style="font-weight:bold;vertical-align:top;">wsgi_url_scheme</td><td style="vertical-align:top;">:</td><td><div>http</div></td></tr><tr><td style="font-weight:bold;vertical-align:top;">wsgi_version</td><td style="vertical-align:top;">:</td><td><div><table><tr><td><div>1</div></td></tr><tr><td><div>0</div></td></tr></table></div></td></tr></table></div></td></tr><tr><td style="font-weight:bold;vertical-align:top;">extension</td><td style="vertical-align:top;">:</td><td><div>load</div></td></tr><tr><td style="font-weight:bold;vertical-align:top;">folder</td><td style="vertical-align:top;">:</td><td><div>/opt/python/web2py-files/web2py/applications/proyect/</div></td></tr><tr><td style="font-weight:bold;vertical-align:top;">function</td><td style="vertical-align:top;">:</td><td><div>get_pregunta</div></td></tr><tr><td style="font-weight:bold;vertical-align:top;">get_vars</td><td style="vertical-align:top;">:</td><td><div><table></table></div></td></tr><tr><td style="font-weight:bold;vertical-align:top;">global_settings</td><td style="vertical-align:top;">:</td><td><div><table><tr><td style="font-weight:bold;vertical-align:top;">app_folders</td><td style="vertical-align:top;">:</td><td><div>set([&#x27;/opt/python/web2py-files/web2py/applications/admin/&#x27;, &#x27;/opt/python/web2py-files/web2py/applications/proyect/&#x27;, &#x27;/opt/python/web2py-files/web2py/applications/welcome/&#x27;])</div></td></tr><tr><td style="font-weight:bold;vertical-align:top;">applications_parent</td><td style="vertical-align:top;">:</td><td><div>/opt/python/web2py-files/web2py</div></td></tr><tr><td style="font-weight:bold;vertical-align:top;">cmd_args</td><td style="vertical-align:top;">:</td><td><div><table></table></div></td></tr><tr><td style="font-weight:bold;vertical-align:top;">cmd_options</td><td style="vertical-align:top;">:</td><td><div>&lt;Values at 0x7f216b136320: {&#x27;verbose&#x27;: False, &#x27;ip&#x27;: &#x27;127.0.0.1&#x27;, &#x27;debuglevel&#x27;: 30, &#x27;with_scheduler&#x27;: False, &#x27;shutdown_timeout&#x27;: 5, &#x27;taskbar&#x27;: False, &#x27;with_coverage&#x27;: False, &#x27;pid_filename&#x27;: &#x27;httpserver.pid&#x27;, &#x27;maxthreads&#x27;: None, &#x27;softcron&#x27;: False, &#x27;server_name&#x27;: &#x27;yasmany-tp500lab&#x27;, &#x27;bpython&#x27;: False, &#x27;nogui&#x27;: False, &#x27;port&#x27;: 8000, &#x27;print_errors&#x27;: False, &#x27;extcron&#x27;: False, &#x27;runcron&#x27;: False, &#x27;run_system_tests&#x27;: False, &#x27;test&#x27;: None, &#x27;folder&#x27;: &#x27;/opt/python/web2py-files/web2py&#x27;, &#x27;config&#x27;: &#x27;&#x27;, &#x27;minthreads&#x27;: None, &#x27;shell&#x27;: None, &#x27;run&#x27;: &#x27;&#x27;, &#x27;log_filename&#x27;: &#x27;httpserver.log&#x27;, &#x27;profiler_dir&#x27;: None, &#x27;args&#x27;: [&#x27;&#x27;], &#x27;socket_timeout&#x27;: 5, &#x27;ssl_ca_certificate&#x27;: None, &#x27;scheduler&#x27;: None, &#x27;interfaces&#x27;: None, &#x27;ssl_private_key&#x27;: &#x27;&#x27;, &#x27;gae&#x27;: None, &#x27;password&#x27;: &#x27;******&#x27;, &#x27;request_queue_size&#x27;: 5, &#x27;ssl_certificate&#x27;: &#x27;&#x27;, &#x27;cronjob&#x27;: False, &#x27;numthreads&#x27;: None, &#x27;quiet&#x27;: False, &#x27;import_models&#x27;: False, &#x27;timeout&#x27;: 10, &#x27;plain&#x27;: False, &#x27;nobanner&#x27;: False}&gt;</div></td></tr><tr><td style="font-weight:bold;vertical-align:top;">db_sessions</td><td style="vertical-align:top;">:</td><td><div>set([])</div></td></tr><tr><td style="font-weight:bold;vertical-align:top;">debugging</td><td style="vertical-align:top;">:</td><td><div>True</div></td></tr><tr><td style="font-weight:bold;vertical-align:top;">gluon_parent</td><td style="vertical-align:top;">:</td><td><div>/opt/python/web2py-files/web2py</div></td></tr><tr><td style="font-weight:bold;vertical-align:top;">is_jython</td><td style="vertical-align:top;">:</td><td><div>False</div></td></tr><tr><td style="font-weight:bold;vertical-align:top;">is_pypy</td><td style="vertical-align:top;">:</td><td><div>False</div></td></tr><tr><td style="font-weight:bold;vertical-align:top;">is_source</td><td style="vertical-align:top;">:</td><td><div>True</div></td></tr><tr><td style="font-weight:bold;vertical-align:top;">local_hosts</td><td style="vertical-align:top;">:</td><td><div><table><tr><td><div>yasmany-tp500lab</div></td></tr><tr><td><div>127.0.1.1</div></td></tr><tr><td><div>::ffff:127.0.0.1</div></td></tr><tr><td><div>::1</div></td></tr><tr><td><div>yasmany-TP500LAB</div></td></tr><tr><td><div>127.0.0.1</div></td></tr></table></div></td></tr><tr><td style="font-weight:bold;vertical-align:top;">web2py_version</td><td style="vertical-align:top;">:</td><td><div>2.14.6-stable+timestamp.2016.05.10.00.21.47</div></td></tr></table></div></td></tr><tr><td style="font-weight:bold;vertical-align:top;">is_https</td><td style="vertical-align:top;">:</td><td><div>False</div></td></tr><tr><td style="font-weight:bold;vertical-align:top;">is_local</td><td style="vertical-align:top;">:</td><td><div>True</div></td></tr><tr><td style="font-weight:bold;vertical-align:top;">is_restful</td><td style="vertical-align:top;">:</td><td><div>False</div></td></tr><tr><td style="font-weight:bold;vertical-align:top;">is_scheduler</td><td style="vertical-align:top;">:</td><td><div>False</div></td></tr><tr><td style="font-weight:bold;vertical-align:top;">is_shell</td><td style="vertical-align:top;">:</td><td><div>False</div></td></tr><tr><td style="font-weight:bold;vertical-align:top;">now</td><td style="vertical-align:top;">:</td><td><div>datetime.datetime(2017, 2, 15, 21, 27, 52, 708538)</div></td></tr><tr><td style="font-weight:bold;vertical-align:top;">post_vars</td><td style="vertical-align:top;">:</td><td><div><table></table></div></td></tr><tr><td style="font-weight:bold;vertical-align:top;">raw_args</td><td style="vertical-align:top;">:</td><td><div>diagnostico/pregunta.diagnostico/27432087091748039009850110663</div></td></tr><tr><td style="font-weight:bold;vertical-align:top;">raw_extension</td><td style="vertical-align:top;">:</td><td><div>None</div></td></tr><tr><td style="font-weight:bold;vertical-align:top;">restful</td><td style="vertical-align:top;">:</td><td><div>&lt;bound method ?.restful of &lt;Storage {&#x27;_vars&#x27;: &lt;Storage {&#x27;records&#x27;: [], &#x27;_signature&#x27;: &#x27;4803ece7c84d07f93a7e58bad9c49061b7d01bde&#x27;}&gt;, &#x27;function&#x27;: &#x27;get_pregunta&#x27;, &#x27;cookies&#x27;: &lt;SimpleCookie: _ga=&#x27;GA1.1.648974235.1473547908&#x27; session_id_admin=&#x27;127.0.0.1-ffa8d217-e95d-4b9f-9257-4d79ff082056&#x27; session_id_proyect=&#x27;127.0.0.1-d066fd22-e1dc-4d18-8107-c99b453c4d0d&#x27; session_id_welcome=&#x27;127.0.0.1-74e84a99-1e17-4ba2-b647-52629abad5cb&#x27;&gt;, &#x27;args&#x27;: [27432087091748039009850110663L, 0], &#x27;env&#x27;: &lt;Storage {&#x27;HTTP_REFERER&#x27;: &#x27;http://localhost:8000/proyect/especialista/gestionar_diagnostico/diagnostico/pregunta.diagnostico/27432087091748039009850110663/edit/pregunta/27432101387974696134752613074?_signature=015bef4bdedda29fe7d993a96945e172dd084c84&#x27;, &#x27;SERVER_SOFTWARE&#x27;: &#x27;Rocket 1.2.6&#x27;, &#x27;SCRIPT_NAME&#x27;: &#x27;&#x27;, &#x27;REQUEST_METHOD&#x27;: &#x27;GET&#x27;, &#x27;SERVER_PROTOCOL&#x27;: &#x27;HTTP/1.1&#x27;, &#x27;http_cache_control&#x27;: &#x27;max-age=0&#x27;, &#x27;web2py_path&#x27;: &#x27;/opt/python/web2py-files/web2py&#x27;, &#x27;wsgi_url_scheme&#x27;: &#x27;http&#x27;, &#x27;REMOTE_PORT&#x27;: &#x27;47232&#x27;, &#x27;server_name&#x27;: &#x27;yasmany-tp500lab&#x27;, &#x27;applications_parent&#x27;: &#x27;/opt/python/web2py-files/web2py&#x27;, &#x27;cmd_options&#x27;: &lt;Values at 0x7f216b136320: {&#x27;verbose&#x27;: False, &#x27;ip&#x27;: &#x27;127.0.0.1&#x27;, &#x27;debuglevel&#x27;: 30, &#x27;with_scheduler&#x27;: False, &#x27;shutdown_timeout&#x27;: 5, &#x27;taskbar&#x27;: False, &#x27;with_coverage&#x27;: False, &#x27;pid_filename&#x27;: &#x27;httpserver.pid&#x27;, &#x27;maxthreads&#x27;: None, &#x27;softcron&#x27;: False, &#x27;server_name&#x27;: &#x27;yasmany-tp500lab&#x27;, &#x27;bpython&#x27;: False, &#x27;nogui&#x27;: False, &#x27;port&#x27;: 8000, &#x27;print_errors&#x27;: False, &#x27;extcron&#x27;: False, &#x27;runcron&#x27;: False, &#x27;run_system_tests&#x27;: False, &#x27;test&#x27;: None, &#x27;folder&#x27;: &#x27;/opt/python/web2py-files/web2py&#x27;, &#x27;config&#x27;: &#x27;&#x27;, &#x27;minthreads&#x27;: None, &#x27;shell&#x27;: None, &#x27;run&#x27;: &#x27;&#x27;, &#x27;log_filename&#x27;: &#x27;httpserver.log&#x27;, &#x27;profiler_dir&#x27;: None, &#x27;args&#x27;: [&#x27;&#x27;], &#x27;socket_timeout&#x27;: 5, &#x27;ssl_ca_certificate&#x27;: None, &#x27;scheduler&#x27;: None, &#x27;interfaces&#x27;: None, &#x27;ssl_private_key&#x27;: &#x27;&#x27;, &#x27;gae&#x27;: None, &#x27;password&#x27;: &#x27;******&#x27;, &#x27;request_queue_size&#x27;: 5, &#x27;ssl_certificate&#x27;: &#x27;&#x27;, &#x27;cronjob&#x27;: False, &#x27;numthreads&#x27;: None, &#x27;quiet&#x27;: False, &#x27;import_models&#x27;: False, &#x27;timeout&#x27;: 10, &#x27;plain&#x27;: False, &#x27;nobanner&#x27;: False}&gt;, &#x27;wsgi_errors&#x27;: &lt;open file &#x27;&lt;stderr&gt;&#x27;, mode &#x27;w&#x27; at 0x7f216fe251e0&gt;, &#x27;request_method&#x27;: &#x27;GET&#x27;, &#x27;SERVER_PORT&#x27;: &#x27;8000&#x27;, &#x27;http_upgrade_insecure_requests&#x27;: &#x27;1&#x27;, &#x27;wsgi_multithread&#x27;: True, &#x27;web2py_version&#x27;: &#x27;2.14.6-stable+timestamp.2016.05.10.00.21.47&#x27;, &#x27;HTTP_HOST&#x27;: &#x27;localhost:8000&#x27;, &#x27;wsgi_multiprocess&#x27;: False, &#x27;HTTP_UPGRADE_INSECURE_REQUESTS&#x27;: &#x27;1&#x27;, &#x27;HTTP_CACHE_CONTROL&#x27;: &#x27;max-age=0&#x27;, &#x27;request_uri&#x27;: &#x27;/proyect/especialista/gestionar_diagnostico/diagnostico/pregunta.diagnostico/27432087091748039009850110663?_signature=4803ece7c84d07f93a7e58bad9c49061b7d01bde&#x27;, &#x27;HTTP_ACCEPT&#x27;: &#x27;text/html,application/xhtml+xml,application/xml;q=0.9,*/*;q=0.8&#x27;, &#x27;http_web2py_component_location&#x27;: &#x27;/proyect/especialista/gestionar_diagnostico/diagnostico/pregunta.diagnostico/27432087091748039009850110663&#x27;, &#x27;wsgi.version&#x27;: (1, 0), &#x27;local_hosts&#x27;: [&#x27;yasmany-tp500lab&#x27;, &#x27;127.0.1.1&#x27;, &#x27;::ffff:127.0.0.1&#x27;, &#x27;::1&#x27;, &#x27;yasmany-TP500LAB&#x27;, &#x27;127.0.0.1&#x27;], &#x27;wsgi.run_once&#x27;: False, &#x27;script_name&#x27;: &#x27;&#x27;, &#x27;wsgi.multiprocess&#x27;: False, &#x27;HTTP_ACCEPT_LANGUAGE&#x27;: &#x27;en-US,en;q=0.5&#x27;, &#x27;wsgi_input&#x27;: &lt;socket._fileobject object at 0x7f2132c60a50&gt;, &#x27;app_folders&#x27;: set([&#x27;/opt/python/web2py-files/web2py/applications/admin/&#x27;, &#x27;/opt/python/web2py-files/web2py/applications/proyect/&#x27;, &#x27;/opt/python/web2py-files/web2py/applications/welcome/&#x27;]), &#x27;http_connection&#x27;: &#x27;keep-alive&#x27;, &#x27;remote_port&#x27;: &#x27;47232&#x27;, &#x27;wsgi.errors&#x27;: &lt;open file &#x27;&lt;stderr&gt;&#x27;, mode &#x27;w&#x27; at 0x7f216fe251e0&gt;, &#x27;debugging&#x27;: True, &#x27;http_user_agent&#x27;: &#x27;Mozilla/5.0 (X11; Ubuntu; Linux x86_64; rv:51.0) Gecko/20100101 Firefox/51.0&#x27;, &#x27;HTTP_COOKIE&#x27;: &#x27;_ga=GA1.1.648974235.1473547908; session_id_welcome=127.0.0.1-74e84a99-1e17-4ba2-b647-52629abad5cb; session_id_proyect=127.0.0.1-d066fd22-e1dc-4d18-8107-c99b453c4d0d; session_id_admin=127.0.0.1-ffa8d217-e95d-4b9f-9257-4d79ff082056&#x27;, &#x27;PATH_INFO&#x27;: &#x27;/proyect/especialista/gestionar_diagnostico/diagnostico/pregunta.diagnostico/27432087091748039009850110663&#x27;, &#x27;server_protocol&#x27;: &#x27;HTTP/1.1&#x27;, &#x27;QUERY_STRING&#x27;: &#x27;_signature=4803ece7c84d07f93a7e58bad9c49061b7d01bde&#x27;, &#x27;cmd_args&#x27;: [], &#x27;http_accept&#x27;: &#x27;text/html,application/xhtml+xml,application/xml;q=0.9,*/*;q=0.8&#x27;, &#x27;HTTP_USER_AGENT&#x27;: &#x27;Mozilla/5.0 (X11; Ubuntu; Linux x86_64; rv:51.0) Gecko/20100101 Firefox/51.0&#x27;, &#x27;HTTP_CONNECTION&#x27;: &#x27;keep-alive&#x27;, &#x27;SERVER_NAME&#x27;: &#x27;yasmany-tp500lab&#x27;, &#x27;remote_addr&#x27;: &#x27;127.0.0.1&#x27;, &#x27;is_jython&#x27;: False, &#x27;http_accept_language&#x27;: &#x27;en-US,en;q=0.5&#x27;, &#x27;wsgi_version&#x27;: (1, 0), &#x27;wsgi.url_scheme&#x27;: &#x27;http&#x27;, &#x27;is_source&#x27;: True, &#x27;server_port&#x27;: &#x27;8000&#x27;, &#x27;http_accept_encoding&#x27;: &#x27;gzip, deflate&#x27;, &#x27;http_cookie&#x27;: &#x27;_ga=GA1.1.648974235.1473547908; session_id_welcome=127.0.0.1-74e84a99-1e17-4ba2-b647-52629abad5cb; session_id_proyect=127.0.0.1-d066fd22-e1dc-4d18-8107-c99b453c4d0d; session_id_admin=127.0.0.1-ffa8d217-e95d-4b9f-9257-4d79ff082056&#x27;, &#x27;gluon_parent&#x27;: &#x27;/opt/python/web2py-files/web2py&#x27;, &#x27;server_software&#x27;: &#x27;Rocket 1.2.6&#x27;, &#x27;http_web2py_component_element&#x27;: &#x27;c755916420229&#x27;, &#x27;wsgi.input&#x27;: &lt;socket._fileobject object at 0x7f2132c60a50&gt;, &#x27;http_host&#x27;: &#x27;localhost:8000&#x27;, &#x27;path_info&#x27;: &#x27;/proyect/especialista/get_pregunta/27432087091748039009850110663/0&#x27;, &#x27;wsgi.multithread&#x27;: True, &#x27;wsgi_file_wrapper&#x27;: &lt;class wsgiref.util.FileWrapper at 0x7f216b1cdef0&gt;, &#x27;is_pypy&#x27;: False, &#x27;REMOTE_ADDR&#x27;: &#x27;127.0.0.1&#x27;, &#x27;db_sessions&#x27;: set([]), &#x27;http_referer&#x27;: &#x27;http://localhost:8000/proyect/especialista/gestionar_diagnostico/diagnostico/pregunta.diagnostico/27432087091748039009850110663/edit/pregunta/27432101387974696134752613074?_signature=015bef4bdedda29fe7d993a96945e172dd084c84&#x27;, &#x27;query_string&#x27;: &#x27;&#x27;, &#x27;wsgi_run_once&#x27;: False, &#x27;wsgi.file_wrapper&#x27;: &lt;class wsgiref.util.FileWrapper at 0x7f216b1cdef0&gt;, &#x27;HTTP_ACCEPT_ENCODING&#x27;: &#x27;gzip, deflate&#x27;}&gt;, &#x27;vars&#x27;: &lt;Storage {}&gt;, &#x27;global_settings&#x27;: &lt;Storage {&#x27;debugging&#x27;: True, &#x27;is_pypy&#x27;: False, &#x27;local_hosts&#x27;: [&#x27;yasmany-tp500lab&#x27;, &#x27;127.0.1.1&#x27;, &#x27;::ffff:127.0.0.1&#x27;, &#x27;::1&#x27;, &#x27;yasmany-TP500LAB&#x27;, &#x27;127.0.0.1&#x27;], &#x27;is_source&#x27;: True, &#x27;gluon_parent&#x27;: &#x27;/opt/python/web2py-files/web2py&#x27;, &#x27;is_jython&#x27;: False, &#x27;applications_parent&#x27;: &#x27;/opt/python/web2py-files/web2py&#x27;, &#x27;cmd_options&#x27;: &lt;Values at 0x7f216b136320: {&#x27;verbose&#x27;: False, &#x27;ip&#x27;: &#x27;127.0.0.1&#x27;, &#x27;debuglevel&#x27;: 30, &#x27;with_scheduler&#x27;: False, &#x27;shutdown_timeout&#x27;: 5, &#x27;taskbar&#x27;: False, &#x27;with_coverage&#x27;: False, &#x27;pid_filename&#x27;: &#x27;httpserver.pid&#x27;, &#x27;maxthreads&#x27;: None, &#x27;softcron&#x27;: False, &#x27;server_name&#x27;: &#x27;yasmany-tp500lab&#x27;, &#x27;bpython&#x27;: False, &#x27;nogui&#x27;: False, &#x27;port&#x27;: 8000, &#x27;print_errors&#x27;: False, &#x27;extcron&#x27;: False, &#x27;runcron&#x27;: False, &#x27;run_system_tests&#x27;: False, &#x27;test&#x27;: None, &#x27;folder&#x27;: &#x27;/opt/python/web2py-files/web2py&#x27;, &#x27;config&#x27;: &#x27;&#x27;, &#x27;minthreads&#x27;: None, &#x27;shell&#x27;: None, &#x27;run&#x27;: &#x27;&#x27;, &#x27;log_filename&#x27;: &#x27;httpserver.log&#x27;, &#x27;profiler_dir&#x27;: None, &#x27;args&#x27;: [&#x27;&#x27;], &#x27;socket_timeout&#x27;: 5, &#x27;ssl_ca_certificate&#x27;: None, &#x27;scheduler&#x27;: None, &#x27;interfaces&#x27;: None, &#x27;ssl_private_key&#x27;: &#x27;&#x27;, &#x27;gae&#x27;: None, &#x27;password&#x27;: &#x27;******&#x27;, &#x27;request_queue_size&#x27;: 5, &#x27;ssl_certificate&#x27;: &#x27;&#x27;, &#x27;cronjob&#x27;: False, &#x27;numthreads&#x27;: None, &#x27;quiet&#x27;: False, &#x27;import_models&#x27;: False, &#x27;timeout&#x27;: 10, &#x27;plain&#x27;: False, &#x27;nobanner&#x27;: False}&gt;, &#x27;app_folders&#x27;: set([&#x27;/opt/python/web2py-files/web2py/applications/admin/&#x27;, &#x27;/opt/python/web2py-files/web2py/applications/proyect/&#x27;, &#x27;/opt/python/web2py-files/web2py/applications/welcome/&#x27;]), &#x27;db_sessions&#x27;: set([]), &#x27;web2py_version&#x27;: &#x27;2.14.6-stable+timestamp.2016.05.10.00.21.47&#x27;, &#x27;cmd_args&#x27;: []}&gt;, &#x27;raw_extension&#x27;: None, &#x27;_body&#x27;: &lt;cStringIO.StringO object at 0x7f2131bd3998&gt;, &#x27;_uuid&#x27;: None, &#x27;raw_args&#x27;: &#x27;diagnostico/pregunta.diagnostico/27432087091748039009850110663&#x27;, &#x27;controller&#x27;: &#x27;especialista&#x27;, &#x27;application&#x27;: &#x27;proyect&#x27;, &#x27;utcnow&#x27;: datetime.datetime(2017, 2, 16, 2, 27, 52, 708560), &#x27;now&#x27;: datetime.datetime(2017, 2, 15, 21, 27, 52, 708538), &#x27;is_local&#x27;: True, &#x27;wsgi&#x27;: &lt;gluon.main.LazyWSGI object at 0x7f213242c090&gt;, &#x27;is_shell&#x27;: False, &#x27;extension&#x27;: &#x27;load&#x27;, &#x27;cid&#x27;: &#x27;c755916420229&#x27;, &#x27;url&#x27;: &#x27;/proyect/especialista/gestionar_diagnostico/diagnostico/pregunta.diagnostico/27432087091748039009850110663&#x27;, &#x27;_get_vars&#x27;: &lt;Storage {&#x27;_signature&#x27;: &#x27;4803ece7c84d07f93a7e58bad9c49061b7d01bde&#x27;}&gt;, &#x27;ajax&#x27;: False, &#x27;is_https&#x27;: False, &#x27;_post_vars&#x27;: &lt;Storage {}&gt;, &#x27;client&#x27;: &#x27;127.0.0.1&#x27;, &#x27;is_restful&#x27;: False, &#x27;is_scheduler&#x27;: False, &#x27;get_vars&#x27;: &lt;Storage {}&gt;, &#x27;folder&#x27;: &#x27;/opt/python/web2py-files/web2py/applications/proyect/&#x27;, &#x27;restful&#x27;: &lt;bound method ?.restful of &lt;Storage {...}&gt;&gt;, &#x27;post_vars&#x27;: &lt;Storage {}&gt;}&gt;&gt;</div></td></tr><tr><td style="font-weight:bold;vertical-align:top;">url</td><td style="vertical-align:top;">:</td><td><div>/proyect/especialista/gestionar_diagnostico/diagnostico/pregunta.diagnostico/27432087091748039009850110663</div></td></tr><tr><td style="font-weight:bold;vertical-align:top;">utcnow</td><td style="vertical-align:top;">:</td><td><div>datetime.datetime(2017, 2, 16, 2, 27, 52, 708560)</div></td></tr><tr><td style="font-weight:bold;vertical-align:top;">vars</td><td style="vertical-align:top;">:</td><td><div><table></table></div></td></tr><tr><td style="font-weight:bold;vertical-align:top;">wsgi</td><td style="vertical-align:top;">:</td><td><div>&lt;gluon.main.LazyWSGI object at 0x7f213242c090&gt;</div></td></tr></table></div>'
tRp58
sS'frames'
p59
(lp60
(dp61
S'file'
p62
S'/opt/python/web2py-files/web2py/gluon/restricted.py'
p63
sS'dump'
p64
(dp65
S'environment'
p66
S"{'A': <class 'gluon.html.A'>, 'ANY_OF': <class 'gluon.validators.ANY_OF'>, 'ASSIGNJS': <function ASSIGNJS>, 'AppConfig': <function AppConfig>, 'Auth': <class 'gluon.tools.Auth'>, 'B': <class 'gluon.html.B'>, 'BEAUTIFY': <class 'gluon.html.BEAUTIFY'>, 'BODY': <class 'gluon.html.BODY'>, 'BR': <class 'gluon.html.BR'>, 'BUTTON': <class 'gluon.html.BUTTON'>, ...}"
p67
sS'ccode'
p68
S'<code object <module> at 0x7f21323046b0, file "/...ct/views/especialista/get_pregunta.load", line 1>'
p69
ssS'lnum'
p70
I227
sS'lines'
p71
(dp72
I224
S'            ccode = code'
p73
sI225
S'        else:'
p74
sI226
S'            ccode = compile2(code, layer)'
p75
sI227
S'        exec ccode in environment'
p76
sI228
S'    except HTTP:'
p77
sI229
S'        raise'
p78
sI230
S'    except RestrictedError:'
p79
sI231
S'        # do not encapsulate (obfuscate) the original RestrictedError'
p80
sI222
S'    try:'
p81
sI223
S'        if isinstance(code, types.CodeType):'
p82
ssS'call'
p83
S'(code=\'response.write(\\\'<div class="row">\\\\n    <div clas...ss\\nresponse.write(\\\'\\\\n    </div>\\\\n\\\', escape=False)\', environment={\'A\': <class \'gluon.html.A\'>, \'ANY_OF\': <class \'gluon.validators.ANY_OF\'>, \'ASSIGNJS\': <function ASSIGNJS>, \'AppConfig\': <function AppConfig>, \'Auth\': <class \'gluon.tools.Auth\'>, \'B\': <class \'gluon.html.B\'>, \'BEAUTIFY\': <class \'gluon.html.BEAUTIFY\'>, \'BODY\': <class \'gluon.html.BODY\'>, \'BR\': <class \'gluon.html.BR\'>, \'BUTTON\': <class \'gluon.html.BUTTON\'>, ...}, layer=\'/opt/python/web2py-files/web2py/applications/proyect/views/especialista/get_pregunta.load\')'
p84
sS'func'
p85
S'restricted'
p86
sa(dp87
g62
S'/opt/python/web2py-files/web2py/applications/proyect/views/especialista/get_pregunta.load'
p88
sg64
(dp89
S'div'
p90
S'undefined'
p91
ssg70
I2
sg71
(dp92
I2
S'    <div class="col-md-12">'
p93
sI3
S'        <h6>{{=tipo_pregunta[request.args(0)]}}</h6>'
p94
sI4
S'    </div>'
p95
sI5
S'</div>'
p96
sI6
S''
sI7
S''
sI8
S''
sI9
S'    <div class="row">'
p97
sI10
S'        {{for pregunta in preguntas:}}'
p98
sI11
S'        <div class="col-md-5 col-md-offset-1">'
p99
ssg83
S'()'
p100
sg85
S'<module>'
p101
sasS'pyver'
p102
S'Python 2.7.12: /usr/bin/python (prefix: /usr)'
p103
sS'session'
p104
g57
(S's\xbf\t\x00\x00<div><table><tr><td style="font-weight:bold;vertical-align:top;">auth</td><td style="vertical-align:top;">:</td><td><div><table><tr><td style="font-weight:bold;vertical-align:top;">expiration</td><td style="vertical-align:top;">:</td><td><div>3600</div></td></tr><tr><td style="font-weight:bold;vertical-align:top;">hmac_key</td><td style="vertical-align:top;">:</td><td><div>a474c887-e210-4abb-9708-aa8b095a79fd</div></td></tr><tr><td style="font-weight:bold;vertical-align:top;">last_visit</td><td style="vertical-align:top;">:</td><td><div>datetime.datetime(2017, 2, 15, 21, 27, 1, 202257)</div></td></tr><tr><td style="font-weight:bold;vertical-align:top;">remember_me</td><td style="vertical-align:top;">:</td><td><div>False</div></td></tr><tr><td style="font-weight:bold;vertical-align:top;">user</td><td style="vertical-align:top;">:</td><td><div><table><tr><td style="font-weight:bold;vertical-align:top;">email</td><td style="vertical-align:top;">:</td><td><div>especialista@upr.edu.cu</div></td></tr><tr><td style="font-weight:bold;vertical-align:top;">fecha_nacimiento</td><td style="vertical-align:top;">:</td><td><div>None</div></td></tr><tr><td style="font-weight:bold;vertical-align:top;">first_name</td><td style="vertical-align:top;">:</td><td><div>Especialista</div></td></tr><tr><td style="font-weight:bold;vertical-align:top;">id</td><td style="vertical-align:top;">:</td><td><div>27427756312748366090444997323L</div></td></tr><tr><td style="font-weight:bold;vertical-align:top;">last_name</td><td style="vertical-align:top;">:</td><td><div>asdfe</div></td></tr><tr><td style="font-weight:bold;vertical-align:top;">registration_id</td><td style="vertical-align:top;">:</td><td><div></div></td></tr><tr><td style="font-weight:bold;vertical-align:top;">registration_key</td><td style="vertical-align:top;">:</td><td><div></div></td></tr><tr><td style="font-weight:bold;vertical-align:top;">reset_password_key</td><td style="vertical-align:top;">:</td><td><div></div></td></tr></table></div></td></tr><tr><td style="font-weight:bold;vertical-align:top;">user_groups</td><td style="vertical-align:top;">:</td><td><div><table><tr><td style="font-weight:bold;vertical-align:top;">27427755648665579436901139144</td><td style="vertical-align:top;">:</td><td><div>Especialista</div></td></tr></table></div></td></tr></table></div></td></tr><tr><td style="font-weight:bold;vertical-align:top;">flash</td><td style="vertical-align:top;">:</td><td><div>None</div></td></tr></table></div>'
tRp105
sS'etype'
p106
S"<type 'exceptions.KeyError'>"
p107
sS'date'
p108
S'Wed Feb 15 21:27:52 2017'
p109
sS'response'
p110
g57
(S'sp\t\x00\x00<div><table><tr><td style="font-weight:bold;vertical-align:top;">body</td><td style="vertical-align:top;">:</td><td><div>&lt;cStringIO.StringO object at 0x7f21322e51b8&gt;</div></td></tr><tr><td style="font-weight:bold;vertical-align:top;">cookies</td><td style="vertical-align:top;">:</td><td><div><table></table></div></td></tr><tr><td style="font-weight:bold;vertical-align:top;">delimiters</td><td style="vertical-align:top;">:</td><td><div><table><tr><td><div>{{</div></td></tr><tr><td><div>}}</div></td></tr></table></div></td></tr><tr><td style="font-weight:bold;vertical-align:top;">files</td><td style="vertical-align:top;">:</td><td><div><table></table></div></td></tr><tr><td style="font-weight:bold;vertical-align:top;">flash</td><td style="vertical-align:top;">:</td><td><div></div></td></tr><tr><td style="font-weight:bold;vertical-align:top;">form_label_separator</td><td style="vertical-align:top;">:</td><td><div>: </div></td></tr><tr><td style="font-weight:bold;vertical-align:top;">formstyle</td><td style="vertical-align:top;">:</td><td><div>table3cols</div></td></tr><tr><td style="font-weight:bold;vertical-align:top;">generic_patterns</td><td style="vertical-align:top;">:</td><td><div><table><tr><td><div>*</div></td></tr></table></div></td></tr><tr><td style="font-weight:bold;vertical-align:top;">headers</td><td style="vertical-align:top;">:</td><td><div><table><tr><td style="font-weight:bold;vertical-align:top;">X-Powered-By</td><td style="vertical-align:top;">:</td><td><div>web2py</div></td></tr></table></div></td></tr><tr><td style="font-weight:bold;vertical-align:top;">menu</td><td style="vertical-align:top;">:</td><td><div><table></table></div></td></tr><tr><td style="font-weight:bold;vertical-align:top;">meta</td><td style="vertical-align:top;">:</td><td><div><table></table></div></td></tr><tr><td style="font-weight:bold;vertical-align:top;">postprocessing</td><td style="vertical-align:top;">:</td><td><div><table></table></div></td></tr><tr><td style="font-weight:bold;vertical-align:top;">session_id</td><td style="vertical-align:top;">:</td><td><div>None</div></td></tr><tr><td style="font-weight:bold;vertical-align:top;">status</td><td style="vertical-align:top;">:</td><td><div>200</div></td></tr><tr><td style="font-weight:bold;vertical-align:top;">view</td><td style="vertical-align:top;">:</td><td><div>especialista/get_pregunta.load</div></td></tr></table></div>'
tRp111
sS'locals'
p112
(dp113
S'Service'
p114
S"<class 'gluon.tools.Service'>"
p115
sS'OBJECT'
p116
S"<class 'gluon.html.OBJECT'>"
p117
sS'SQLDB'
p118
S"<class 'pydal.base.DAL'>"
p119
sg104
S"<Storage {'auth': <Storage {'remember_me': False...ature=4803ece7c84d07f93a7e58bad9c49061b7d01bde'}>"
p120
sS'LINK'
p121
S"<class 'gluon.html.LINK'>"
p122
sS'BR'
p123
S"<class 'gluon.html.BR'>"
p124
sS'local_import'
p125
S'<function <lambda>>'
p126
sS'OPTGROUP'
p127
S"<class 'gluon.html.OPTGROUP'>"
p128
sS'__package__'
p129
S'None'
p130
sS'nuevo_diagnostico_inicial'
p131
S'<function nuevo_diagnostico_inicial>'
p132
sS'PRE'
p133
S"<class 'gluon.html.PRE'>"
p134
sS'IS_INT_IN_RANGE'
p135
S"<class 'gluon.validators.IS_INT_IN_RANGE'>"
p136
sS'IS_LOWER'
p137
S"<class 'gluon.validators.IS_LOWER'>"
p138
sS'IS_STRONG'
p139
S"<class 'gluon.validators.IS_STRONG'>"
p140
sS'cache'
p141
S'<gluon.cache.Cache object>'
p142
sS'IS_IN_DB'
p143
S"<class 'gluon.validators.IS_IN_DB'>"
p144
sS'TAG'
p145
S'<gluon.html.__TAG__ object>'
p146
sS'SQLField'
p147
S"<class 'pydal.objects.Field'>"
p148
sS'mail'
p149
S'<gluon.tools.Mail object>'
p150
sS'BODY'
p151
S"<class 'gluon.html.BODY'>"
p152
sS'IS_DATE_IN_RANGE'
p153
S"<class 'gluon.validators.IS_DATE_IN_RANGE'>"
p154
sS'IFRAME'
p155
S"<class 'gluon.html.IFRAME'>"
p156
sS'URL'
p157
S'<function URL>'
p158
sS'__file__'
p159
S"'/opt/python/web2py-files/web2py/applications/proyect/views/especialista/get_pregunta.load'"
p160
sS'db'
p161
S'<DAL uri="mongodb://localhost/proyect">'
p162
sS'auth'
p163
S'<gluon.tools.Auth object>'
p164
sS'P'
S"<class 'gluon.html.P'>"
p165
sS'TFOOT'
p166
S"<class 'gluon.html.TFOOT'>"
p167
sS'XHTML'
p168
S"<class 'gluon.html.XHTML'>"
p169
sS'ON'
p170
S'True'
p171
sS'OL'
p172
S"<class 'gluon.html.OL'>"
p173
sS'TEXTAREA'
p174
S"<class 'gluon.html.TEXTAREA'>"
p175
sS'MENU'
p176
S"<class 'gluon.html.MENU'>"
p177
sS'IS_IMAGE'
p178
S"<class 'gluon.validators.IS_IMAGE'>"
p179
sS'EM'
p180
S"<class 'gluon.html.EM'>"
p181
sS'CODE'
p182
S"<class 'gluon.html.CODE'>"
p183
sS'HTTP'
p184
S"<class 'gluon.http.HTTP'>"
p185
sS'HR'
p186
S"<class 'gluon.html.HR'>"
p187
sS'IS_DATETIME'
p188
S"<class 'gluon.validators.IS_DATETIME'>"
p189
sS'STYLE'
p190
S"<class 'gluon.html.STYLE'>"
p191
sS'LABEL'
p192
S"<class 'gluon.html.LABEL'>"
p193
sS'CLEANUP'
p194
S"<class 'gluon.validators.CLEANUP'>"
p195
sS'__total_puntos'
p196
S'<function __total_puntos>'
p197
sS'plugins'
p198
S'<gluon.tools.PluginManager object>'
p199
sS'SELECT'
p200
S"<class 'gluon.html.SELECT'>"
p201
sS'CENTER'
p202
S"<class 'gluon.html.CENTER'>"
p203
sS'Auth'
p204
S"<class 'gluon.tools.Auth'>"
p205
sS'__builtins__'
p206
S"{'ArithmeticError': <type 'exceptions.ArithmeticError'>, 'AssertionError': <type 'exceptions.AssertionError'>, 'AttributeError': <type 'exceptions.AttributeError'>, 'BaseException': <type 'exceptions.BaseException'>, 'BufferError': <type 'exceptions.BufferError'>, 'BytesWarning': <type 'exceptions.BytesWarning'>, 'DeprecationWarning': <type 'exceptions.DeprecationWarning'>, 'EOFError': <type 'exceptions.EOFError'>, 'Ellipsis': Ellipsis, 'EnvironmentError': <type 'exceptions.EnvironmentError'>, ...}"
p207
sS'HTML'
p208
S"<class 'gluon.html.HTML'>"
p209
sS'desactivarDiagnostico'
p210
S'<function desactivarDiagnostico>'
p211
sS'SQLFORM'
p212
S"<class 'gluon.sqlhtml.SQLFORM'>"
p213
sS'LOAD'
p214
S'<function LOAD>'
p215
sS'redirect'
p216
S'<function redirect>'
p217
sS'FIELDSET'
p218
S"<class 'gluon.html.FIELDSET'>"
p219
sS'IS_EQUAL_TO'
p220
S"<class 'gluon.validators.IS_EQUAL_TO'>"
p221
sS'get_pregunta'
p222
S'<function get_pregunta>'
p223
sS'embed64'
p224
S'<function embed64>'
p225
sS'IS_LIST_OF'
p226
S"<class 'gluon.validators.IS_LIST_OF'>"
p227
sS'INPUT'
p228
S"<class 'gluon.html.INPUT'>"
p229
sS'EMBED'
p230
S"<class 'gluon.html.EMBED'>"
p231
sS'PRODUCTION_MENU'
p232
g171
sS'myconf'
p233
S"{'forms': {'formstyle': 'bootstrap3_inline', 'se...': {'names': 'localhost:*, 127.0.0.1:*, *:*, *'}}"
p234
sS'H2'
p235
S"<class 'gluon.html.H2'>"
p236
sS'H3'
p237
S"<class 'gluon.html.H3'>"
p238
sS'AppConfig'
p239
S'<function AppConfig>'
p240
sS'numero_ensayo'
p241
S"{'0': <lazyT 'Ensayo #1'>, '1': <lazyT 'Ensayo #2'>}"
p242
sS'H6'
p243
S"<class 'gluon.html.H6'>"
p244
sS'H4'
p245
S"<class 'gluon.html.H4'>"
p246
sS'H5'
p247
S"<class 'gluon.html.H5'>"
p248
sS'UL'
p249
S"<class 'gluon.html.UL'>"
p250
sS'IS_UPPER'
p251
S"<class 'gluon.validators.IS_UPPER'>"
p252
sS'xmlescape'
p253
S'<function xmlescape>'
p254
sS'IS_TIME'
p255
S"<class 'gluon.validators.IS_TIME'>"
p256
sS'OPTION'
p257
S"<class 'gluon.html.OPTION'>"
p258
sS'TITLE'
p259
S"<class 'gluon.html.TITLE'>"
p260
sS'CRYPT'
p261
S"<class 'gluon.validators.CRYPT'>"
p262
sS'IS_EMPTY_OR'
p263
S"<class 'gluon.validators.IS_EMPTY_OR'>"
p264
sS'MARKMIN'
p265
S"<class 'gluon.html.MARKMIN'>"
p266
sS'__name__'
p267
S"'__restricted__'"
p268
sS'STRONG'
p269
S"<class 'gluon.html.STRONG'>"
p270
sS'COL'
p271
S"<class 'gluon.html.COL'>"
p272
sS'service'
p273
S'<gluon.tools.Service object>'
p274
sS'SCRIPT'
p275
S"<class 'gluon.html.SCRIPT'>"
p276
sS'_'
S'<function _>'
p277
sS'TABLE'
p278
S"<class 'gluon.html.TABLE'>"
p279
sS'IS_IPV4'
p280
S"<class 'gluon.validators.IS_IPV4'>"
p281
sS'IS_LENGTH'
p282
S"<class 'gluon.validators.IS_LENGTH'>"
p283
sS'IS_IPV6'
p284
S"<class 'gluon.validators.IS_IPV6'>"
p285
sS'XML'
p286
S"<class 'gluon.html.XML'>"
p287
sS'tipo_pregunta'
p288
S"{'0': <lazyT 'Orientaci\xc3\xb3n'>, '1': <lazyT 'D\xc3\xadgitos en progresi\xc3\xb3n'>, '2': <lazyT 'D\xc3\xadgitos en regresi\xc3\xb3n'>, '3': <lazyT 'Cubos en progresi\xc3\xb3n'>, '4': <lazyT 'Detecci\xc3\xb3n visual'>, '5': <lazyT 'Detecci\xc3\xb3n de d\xc3\xadgitos'>, '6': <lazyT 'Series sucesivas'>}"
p289
sS'B'
S"<class 'gluon.html.B'>"
p290
sS'IMG'
p291
S"<class 'gluon.html.IMG'>"
p292
sS'SQLTABLE'
p293
S"<class 'gluon.sqlhtml.SQLTABLE'>"
p294
sS'IS_MATCH'
p295
S"<class 'gluon.validators.IS_MATCH'>"
p296
sS'IS_ALPHANUMERIC'
p297
S"<class 'gluon.validators.IS_ALPHANUMERIC'>"
p298
sS'gestionar_diagnostico'
p299
S'<function gestionar_diagnostico>'
p300
sS'SPAN'
p301
S"<class 'gluon.html.SPAN'>"
p302
sS'IS_JSON'
p303
S"<class 'gluon.validators.IS_JSON'>"
p304
sS'IS_IPADDRESS'
p305
S"<class 'gluon.validators.IS_IPADDRESS'>"
p306
sS'IS_SLUG'
p307
S"<class 'gluon.validators.IS_SLUG'>"
p308
sS'BEAUTIFY'
p309
S"<class 'gluon.html.BEAUTIFY'>"
p310
sS'META'
p311
S"<class 'gluon.html.META'>"
p312
sS'tipo_diagnostico'
p313
S"{'0': <lazyT 'Inicial'>, '1': <lazyT 'Atenci\xc3\xb3n Enfocada'>, '2': <lazyT 'Atenci\xc3\xb3n Sostenida'>, '3': <lazyT 'Atenci\xc3\xb3n Selectiva'>, '4': <lazyT 'Atenci\xc3\xb3n Alternada'>, '5': <lazyT 'Atenci\xc3\xb3n Dividida'>}"
p314
sS'BUTTON'
p315
S"<class 'gluon.html.BUTTON'>"
p316
sS'H1'
p317
S"<class 'gluon.html.H1'>"
p318
sS'IS_DATE'
p319
S"<class 'gluon.validators.IS_DATE'>"
p320
sS'IS_EMAIL'
p321
S"<class 'gluon.validators.IS_EMAIL'>"
p322
sS'IS_NOT_EMPTY'
p323
S"<class 'gluon.validators.IS_NOT_EMPTY'>"
p324
sS'IS_FLOAT_IN_RANGE'
p325
S"<class 'gluon.validators.IS_FLOAT_IN_RANGE'>"
p326
sS'TBODY'
p327
S"<class 'gluon.html.TBODY'>"
p328
sS'CAT'
p329
S"<class 'gluon.html.CAT'>"
p330
sS'Field'
p331
S"<class 'pydal.objects.Field'>"
p332
sS'IS_LIST_OF_EMAILS'
p333
S"<class 'gluon.validators.IS_LIST_OF_EMAILS'>"
p334
sS'DIV'
p335
S"<class 'gluon.html.DIV'>"
p336
sS'LEGEND'
p337
S"<class 'gluon.html.LEGEND'>"
p338
sS'COLGROUP'
p339
S"<class 'gluon.html.COLGROUP'>"
p340
sS'DAL'
p341
S"<class 'pydal.base.DAL'>"
p342
sS'ASSIGNJS'
p343
S'<function ASSIGNJS>'
p344
sS'TR'
p345
S"<class 'gluon.html.TR'>"
p346
sS'LI'
p347
S"<class 'gluon.html.LI'>"
p348
sS'TH'
p349
S"<class 'gluon.html.TH'>"
p350
sS'TD'
p351
S"<class 'gluon.html.TD'>"
p352
sS'PluginManager'
p353
S"<class 'gluon.tools.PluginManager'>"
p354
sS'IS_URL'
p355
S"<class 'gluon.validators.IS_URL'>"
p356
sS'A'
S"<class 'gluon.html.A'>"
p357
sS'HEAD'
p358
S"<class 'gluon.html.HEAD'>"
p359
sS'IS_DATETIME_IN_RANGE'
p360
S"<class 'gluon.validators.IS_DATETIME_IN_RANGE'>"
p361
sS'FORM'
p362
S"<class 'gluon.html.FORM'>"
p363
sS'I'
S"<class 'gluon.html.I'>"
p364
sS'IS_NOT_IN_DB'
p365
S"<class 'gluon.validators.IS_NOT_IN_DB'>"
p366
sg110
S"<Storage {'status': 200, 'body': <cStringIO.Stri...t': None, 'files': [], '_custom_rollback': None}>"
p367
sS'THEAD'
p368
S"<class 'gluon.html.THEAD'>"
p369
sS'ANY_OF'
p370
S"<class 'gluon.validators.ANY_OF'>"
p371
sS'IS_NULL_OR'
p372
S"<class 'gluon.validators.IS_EMPTY_OR'>"
p373
sg56
S"<Storage {'_vars': <Storage {'records': [], '_si... of <Storage {...}>>, 'post_vars': <Storage {}>}>"
p374
sS'IS_EXPR'
p375
S"<class 'gluon.validators.IS_EXPR'>"
p376
sS'T'
S'<gluon.languages.translator object>'
p377
sS'preguntas'
p378
S'<Rows (2)>'
p379
sS'IS_IN_SET'
p380
S"<class 'gluon.validators.IS_IN_SET'>"
p381
sS'IS_UPLOAD_FILENAME'
p382
S"<class 'gluon.validators.IS_UPLOAD_FILENAME'>"
p383
sS'TT'
p384
S"<class 'gluon.html.TT'>"
p385
sS'IS_DECIMAL_IN_RANGE'
p386
S"<class 'gluon.validators.IS_DECIMAL_IN_RANGE'>"
p387
sssS'traceback'
p388
S'Traceback (most recent call last):\n  File "/opt/python/web2py-files/web2py/gluon/restricted.py", line 227, in restricted\n    exec ccode in environment\n  File "/opt/python/web2py-files/web2py/applications/proyect/views/especialista/get_pregunta.load", line 2, in <module>\n    <div class="col-md-12">\nKeyError: 27432087091748039009850110663L\n'
p389
s.