(dp1
S'output'
p2
S"<type 'exceptions.NameError'> global name 'reposnse' is not defined"
p3
sS'layer'
p4
S'/opt/python/web2py-files/web2py/applications/atencion/controllers/admin.py'
p5
sS'code'
p6
S'# -*- coding: utf-8 -*-\n# this file is released under public domain and you can use without limitations\n\n@auth.requires_membership("admin")\ndef users():\n    selectable = lambda ids: db(db.auth_user.id.belongs(ids)).delete()\n\n    fields = [db.auth_user.first_name, db.auth_user.email, db.auth_user.centro]\n\n    grid = SQLFORM.smartgrid(db.auth_user, selectable=selectable, linked_tables=[db.auth_membership], exportclasses=dict(xml=False, html=False, json=False, csv_with_hidden_cols=False, tsv_with_hidden_cols=False))\n\n    response.flash = T("Administrar usuarios")\n    reposnse.title = T("Administrar usuarios") + response.title\n\n    heading=grid.elements(\'th\')\n    if heading:\n           heading[0].append(INPUT(_type=\'checkbox\', _onclick="jQuery(\'input[type=checkbox]\').each(function(k){jQuery(this).attr(\'checked\', \'checked\');});"))\n    return dict(grid=grid)\nresponse._vars=response._caller(users)\n'
p7
sS'snapshot'
p8
(dp9
sS'traceback'
p10
S'Traceback (most recent call last):\n  File "/opt/python/web2py-files/web2py/gluon/restricted.py", line 227, in restricted\n    exec ccode in environment\n  File "/opt/python/web2py-files/web2py/applications/atencion/controllers/admin.py", line 19, in <module>\n  File "/opt/python/web2py-files/web2py/gluon/globals.py", line 417, in <lambda>\n    self._caller = lambda f: f()\n  File "/opt/python/web2py-files/web2py/gluon/tools.py", line 4241, in f\n    return action(*a, **b)\n  File "/opt/python/web2py-files/web2py/applications/atencion/controllers/admin.py", line 13, in users\n    reposnse.title = T("Administrar usuarios") + response.title\nNameError: global name \'reposnse\' is not defined\n'
p11
s.