(dp1
S'output'
p2
S"<type 'exceptions.SyntaxError'> invalid syntax (index.html, line 69)"
p3
sS'layer'
p4
S'/opt/python-server/web2py-files/web2py/applications/estor3/views/default/index.html'
p5
sS'code'
p6
S'left_sidebar_enabled,right_sidebar_enabled=False,(\'message\' in globals())\nresponse.write(\'\\n\', escape=False)\nresponse.write(\'<!DOCTYPE html>\\n<!--[if (gt IE 9)|!(IE)]><!--> <html class="no-js" lang="\', escape=False)\nresponse.write(T.accepted_language or \'en\')\nresponse.write(\'"> <!--<![endif]-->\\n  <head>\\n    <meta charset="utf-8">\\n    <!-- www.phpied.com/conditional-comments-block-downloads/ -->\\n    <!-- Always force latest IE rendering engine\\n         (even in intranet) & Chrome Frame\\n         Remove this if you use the .htaccess -->\\n    <meta http-equiv="X-UA-Compatible" content="IE=edge\', escape=False)\nresponse.write(not request.is_local and \',chrome=1\' or \'\')\nresponse.write(\'">\\n    <!--  Mobile Viewport Fix\\n          j.mp/mobileviewport & davidbcalhoun.com/2010/viewport-metatag\\n          device-width: Occupy full width of the screen in its current orientation\\n          initial-scale = 1.0 retains dimensions instead of zooming out if page height > device height\\n          user-scalable = yes allows the user to zoom in -->\\n    <meta name="viewport" content="width=device-width, initial-scale=1.0">\\n    <title>\', escape=False)\nresponse.write(response.title or request.application)\nresponse.write(\'</title>\\n    <!-- http://dev.w3.org/html5/markup/meta.name.html -->\\n    <meta name="application-name" content="\', escape=False)\nresponse.write(request.application)\nresponse.write(\'">\\n    <!-- Speaking of Google, don\\\'t forget to set your site up:\\n         http://google.com/webmasters -->\\n    <meta name="google-site-verification" content="">\\n    <!-- include stylesheets -->\\n    <link rel="stylesheet" href="\', escape=False)\nresponse.write(URL(\'static\',\'css/bootstrap.min.css\'))\nresponse.write(\'"/>\\n    <link rel="stylesheet" href="\', escape=False)\nresponse.write(URL(\'static\',\'css/web2py-bootstrap3.css\'))\nresponse.write(\'"/>\\n    <link rel="stylesheet" href="\', escape=False)\nresponse.write(URL(\'static\',\'css/bootstrap-material-design.css\'))\nresponse.write(\'">\\n    <link rel="stylesheet" href="\', escape=False)\nresponse.write(URL(\'static\',\'css/ripples.min.css\'))\nresponse.write(\'">\\n\\n    <!-- Material Design fonts -->\\n    <link href="https://fonts.googleapis.com/icon?family=Material+Icons" rel="stylesheet">\\n\\n    <link rel="shortcut icon" href="\', escape=False)\nresponse.write(URL(\'static\',\'images/favicon.ico\'))\nresponse.write(\'" type="image/x-icon">\\n    <link rel="apple-touch-icon" href="\', escape=False)\nresponse.write(URL(\'static\',\'images/favicon.png\'))\nresponse.write(\'">\\n    <!-- All JavaScript at the bottom, except for Modernizr which enables\\n         HTML5 elements & feature detects -->\\n    <script src="\', escape=False)\nresponse.write(URL(\'static\',\'js/modernizr-2.8.3.min.js\'))\nresponse.write(\'"></script>\\n\\n    <!--[if lt IE 9]>\\n        <script src="\', escape=False)\nresponse.write(URL(\'static\',\'js/respond-1.4.2.min.js\'))\nresponse.write(\'"></script>\\n        <![endif]-->\\n    <!-- Favicons -->\\n    \', escape=False)\nresponse.write(\'<script type="text/javascript"><!--\\n    // These variables are used by the web2py_ajax_init function in web2py_ajax.js (which is loaded below).\\n    var w2p_ajax_confirm_message = "\', escape=False)\nresponse.write(T(\'Are you sure you want to delete this object?\'))\nresponse.write(\'";\\n    var w2p_ajax_disable_with_message = "\', escape=False)\nresponse.write(T(\'Working...\'))\nresponse.write(\'";\\n    var w2p_ajax_date_format = "\', escape=False)\nresponse.write(T(\'%Y-%m-%d\'))\nresponse.write(\'";\\n    var w2p_ajax_datetime_format = "\', escape=False)\nresponse.write(T(\'%Y-%m-%d %H:%M:%S\'))\nresponse.write(\'";\\n    var ajax_error_500 = \\\'\', escape=False)\nresponse.write(T.M(\'An error occured, please [[reload %s]] the page\') % URL(args=request.args, vars=request.get_vars))\nresponse.write("\'\\n    //--></script>\\n", escape=False)\nresponse.files.insert(0,URL(\'static\',\'js/jquery.js\'))\nresponse.files.insert(1,URL(\'static\',\'css/calendar.css\'))\nresponse.files.insert(2,URL(\'static\',\'js/calendar.js\'))\nresponse.files.insert(3,URL(\'static\',\'js/web2py.js\'))\nresponse.include_meta()\nresponse.include_files()\nresponse.write(\'\\n\', escape=False)\nresponse.write(\' <!-- this includes jquery.js, calendar.js/.css and web2py.js -->\\n    \', escape=False)\nresponse.write(\'\\n    \', escape=False)\n# using sidebars need to know what sidebar you want to use\nmc0 = \'col-md-12\'\nmc1 = \'col-md-9\'\nmc2 = \'col-md-6\'\nleft_sidebar_enabled = globals().get(\'left_sidebar_enabled\', False)\nright_sidebar_enabled = globals().get(\'right_sidebar_enabled\', False)\nmiddle_column = {0: mc0, 1: mc1, 2: mc2}[\n(left_sidebar_enabled and 1 or 0)+(right_sidebar_enabled and 1 or 0)]\nresponse.write(\'\\n  </head>\\n  <body>\\n    <!--[if lt IE 8]><p class="browserupgrade">You are using an <strong>outdated</strong> browser. Please <a href="http://browsehappy.com/">upgrade your browser</a> to improve your experience.</p><![endif]-->\\n    <div class="w2p_flash alert alert-dismissible">\', escape=False)\nresponse.write(response.flash or \'\')\nresponse.write(\'</div>\\n    <!-- Navbar ======================================= -->\\n    <nav class="navbar navbar-default navbar-fixed-top" role="navigation">\\n      <div class="container-fluid">\\n        <div class="navbar-header">\\n          <button type="button" class="navbar-toggle" data-toggle="collapse" data-target=".navbar-collapse">\\n            <span class="sr-only">Toggle navigation</span>\\n            <span class="icon-bar"></span>\\n            <span class="icon-bar"></span>\\n            <span class="icon-bar"></span>\\n          </button>\\n          \', escape=False)\nresponse.write(response.logo or \'\')\nresponse.write(\'\\n        </div>\\n\\n        <div class="collapse navbar-collapse navbar-ex1-collapse">\\n          <ul class="nav navbar-nav navbar-right">\\n            \', escape=False)\nresponse.write(\'auth\' in globals() and auth.navbar(\'Welcome\',mode=\'dropdown\') or \'\')\nresponse.write(\'\\n          </ul>\\n          \', escape=False)\nif response.menu:\n    response.write(\'\\n          \', escape=False)\n    response.write(MENU(response.menu, _class=\'nav navbar-nav\',li_class=\'dropdown\',ul_class=\'dropdown-menu\'))\n    response.write(\'\\n          \', escape=False)\n    pass\nresponse.write(\'\\n          <form class="navbar-form navbar-right">\\n             <div class="form-group">\\n                <input type="text" name="search" class="form-control col-lg-12" placeholder="\', escape=False)\nresponse.write(T(\'What \'s found you?\'))\nresponse.write(\'">\\n                <button type="submit" class="btn btn-primary"><span class="glyphicon glyphicon-search" aria-hidden="true"></span></button>\\n             </div>\\n          </form>\\n        </div>\\n      </div>\\n    </nav>\\n    <!-- Masthead ===================================== -->\\n    \', escape=False)\nresponse.write(\'\\n    <header class="container-fluid background">\\n      <div class="jumbotron text-center">\\n        \', escape=False)\nif response.title:\n    response.write(\'\\n        <h1>\', escape=False)\n    response.write(response.title)\n    response.write(\'\\n          <small>\', escape=False)\n    response.write(response.subtitle or \'\')\n    response.write(\'</small></h1>\\n        \', escape=False)\n    pass\nresponse.write(\'\\n      </div>\\n    </header>\\n\', escape=False)\nresponse.write(\'\\n    <!-- Main ========================================= -->\\n    <!-- Begin page content -->\\n    <div class="container-fluid main-container">\\n      \', escape=False)\nif left_sidebar_enabled:\n    response.write(\'\\n        <div class="col-md-3 left-sidebar">\\n            \', escape=False)\n    response.write(\'\\n            <h3>Left Sidebar</h3>\\n            <p></p>\\n            \', escape=False)\n    response.write(\'\\n        </div>\\n      \', escape=False)\n    pass\nresponse.write(\'\\n\\n      <div class="\', escape=False)\nresponse.write(middle_column)\nresponse.write(\'">\\n        \', escape=False)\nresponse.write(\'\\n        \', escape=False)\nresponse.write(\'\\n\\n\', escape=False)\nresponse.write(\'\\n\\n\', escape=False)\nif \'message\' in globals():\n    response.write(\'\\n<h2>\', escape=False)\n    response.write(message)\n    response.write(\'</h2>\\n<p class="lead">\', escape=False)\n    response.write(T(\'How did you get here?\'))\n    response.write(\'</p>\\n<ol>\\n  <li>\', escape=False)\n    response.write(T(\'You are successfully running web2py\'))\n    response.write(\'</li>\\n  <li>\', escape=False)\n    response.write(XML(T(\'You visited the url %s\', A(request.env.path_info,_href=request.env.path_info))))\n    response.write(\'</li>\\n  <li>\', escape=False)\n    response.write(XML(T(\'Which called the function %s located in the file %s\',\n    (A(request.function+\'()\',_href=\'#\'),\n    A(\'web2py/applications/%(application)s/controllers/%(controller)s.py\' % request,\n    _href=URL(\'admin\',\'default\',\'peek\', args=(request.application,\'controllers\',request.controller+\'.py\')))))))\n    response.write(\'</li>\\n  <li>\', escape=False)\n    response.write(XML(T(\'The output of the file is a dictionary that was rendered by the view %s\',\n    A(\'web2py/applications/%(application)s/views/%(controller)s/index.html\' % request,\n    _href=URL(\'admin\',\'default\',\'peek\',args=(request.application,\'views\',request.controller,\'index.html\'))))))\n    response.write(\'</li>\\n  <li>\', escape=False)\n    response.write(T(\'You can modify this application and adapt it to your needs\'))\n    response.write(\'</li>\\n</ol>\\n\', escape=False)\nelif \'content\' in globals():\n    response.write(\'\\n\', escape=False)\n    response.write(content)\n    response.write(\'\\n\', escape=False)\nelse:\n    response.write(\'\\n\', escape=False)\n    response.write(BEAUTIFY(response._vars))\n    response.write(\'\\n\', escape=False)\n    pass\nresponse.write(\'\\n\\n\\n\\n<a href="https://github.com/FezVrasta/bootstrap-material-design"><img style="position: absolute; top: 0; right: 0; border: 0;" src="https://camo.githubusercontent.com/38ef81f8aca64bb9a64448d0d70f1308ef5341ab/68747470733a2f2f73332e616d617a6f6e6177732e636f6d2f6769746875622f726962626f6e732f666f726b6d655f72696768745f6461726b626c75655f3132313632312e706e67" alt="Fork me on GitHub" data-canonical-src="https://s3.amazonaws.com/github/ribbons/forkme_right_darkblue_121621.png"></a>\\n\\n<div class="container">\\n\\n  <div class="page-header" id="banner">\\n    <div class="row">\\n      <div class="col-sm-6">\\n        <h1>Material Design</h1>\\n\\n        <p class="lead">Based on Google Material design</p>\\n      </div>\\n      <div class="col-sm-6">\\n        <div class="well infobox">\\n          <p><em>Material Design for Bootstrap</em> is a theme for Bootstrap 3 which lets you use the new\\n            <a href="http://www.google.com/design/spec/material-design/">Google Material Design</a> in your favorite front-end framework.\\n          </p>\\n\\n          <p>If you like this project you can support me by donating something on Gittip, starring this repository, or\\n            <a href="https://github.com/FezVrasta/bootstrap-material-design/issues">reporting bugs and ideas</a>.</p>\\n\\n          <p>Read more about <em>Material Design for Bootstrap</em>\\n            <a href="https://github.com/FezVrasta/bootstrap-material-design">at the Github page</a>.</p>\\n\\n          <a href="https://github.com/FezVrasta/bootstrap-material-design/archive/master.zip" class="btn btn-sup btn-material-pink btn-raised">\\n            <i class="material-icons">file_download</i>\\n            <span>DOWNLOAD</span>\\n          </a>\\n          <a href="https://www.gittip.com/FezVrasta/" class="btn btn-sup btn-material-brown">\\n            <i class="material-icons">favorite_border</i>\\n            <span>GITTIP</span>\\n          </a>\\n          <a href="https://github.com/FezVrasta/bootstrap-material-design/issues" class="btn btn-sup btn-material-deeppurple">\\n            <i class="material-icons">info_outline</i>\\n            <span>ISSUES</span>\\n          </a>\\n        </div>\\n      </div>\\n    </div>\\n  </div>\\n\\n  <!-- Navbar\\n================================================== -->\\n  <div class="bs-docs-section clearfix">\\n    <div class="row">\\n      <div class="col-md-12">\\n        <div class="page-header">\\n          <h1 id="navbar">Navbar</h1>\\n        </div>\\n\\n        <div class="bs-component">\\n          <div class="navbar navbar-default">\\n            <div class="container-fluid">\\n              <div class="navbar-header">\\n                <button type="button" class="navbar-toggle" data-toggle="collapse" data-target=".navbar-responsive-collapse">\\n                  <span class="icon-bar"></span>\\n                  <span class="icon-bar"></span>\\n                  <span class="icon-bar"></span>\\n                </button>\\n                <a class="navbar-brand" href="javascript:void(0)">Brand</a>\\n              </div>\\n              <div class="navbar-collapse collapse navbar-responsive-collapse">\\n                <ul class="nav navbar-nav">\\n                  <li class="active"><a href="javascript:void(0)">Active</a></li>\\n                  <li><a href="javascript:void(0)">Link</a></li>\\n                  <li class="dropdown">\\n                    <a href="bootstrap-elements.html" data-target="#" class="dropdown-toggle" data-toggle="dropdown">Dropdown\\n                      <b class="caret"></b></a>\\n                    <ul class="dropdown-menu">\\n                      <li><a href="javascript:void(0)">Action</a></li>\\n                      <li><a href="javascript:void(0)">Another action</a></li>\\n                      <li><a href="javascript:void(0)">Something else here</a></li>\\n                      <li class="divider"></li>\\n                      <li class="dropdown-header">Dropdown header</li>\\n                      <li><a href="javascript:void(0)">Separated link</a></li>\\n                      <li><a href="javascript:void(0)">One more separated link</a></li>\\n                    </ul>\\n                  </li>\\n                </ul>\\n                <form class="navbar-form navbar-left">\\n                  <div class="form-group">\\n                    <input type="text" class="form-control col-md-8" placeholder="Search">\\n                  </div>\\n                </form>\\n                <ul class="nav navbar-nav navbar-right">\\n                  <li><a href="javascript:void(0)">Link</a></li>\\n                  <li class="dropdown">\\n                    <a href="bootstrap-elements.html" data-target="#" class="dropdown-toggle" data-toggle="dropdown">Dropdown\\n                      <b class="caret"></b></a>\\n                    <ul class="dropdown-menu">\\n                      <li><a href="javascript:void(0)">Action</a></li>\\n                      <li><a href="javascript:void(0)">Another action</a></li>\\n                      <li><a href="javascript:void(0)">Something else here</a></li>\\n                      <li class="divider"></li>\\n                      <li><a href="javascript:void(0)">Separated link</a></li>\\n                    </ul>\\n                  </li>\\n                </ul>\\n              </div>\\n            </div>\\n          </div>\\n        </div>\\n\\n        <div class="bs-component">\\n          <div class="navbar navbar-warning">\\n            <div class="container-fluid">\\n              <div class="navbar-header">\\n                <button type="button" class="navbar-toggle" data-toggle="collapse" data-target=".navbar-warning-collapse">\\n                  <span class="icon-bar"></span>\\n                  <span class="icon-bar"></span>\\n                  <span class="icon-bar"></span>\\n                </button>\\n                <a class="navbar-brand" href="javascript:void(0)">Brand</a>\\n              </div>\\n              <div class="navbar-collapse collapse navbar-warning-collapse">\\n                <ul class="nav navbar-nav">\\n                  <li class="active"><a href="javascript:void(0)">Active</a></li>\\n                  <li><a href="javascript:void(0)">Link</a></li>\\n                  <li class="dropdown">\\n                    <a href="bootstrap-elements.html" data-target="#" class="dropdown-toggle" data-toggle="dropdown">Dropdown\\n                      <b class="caret"></b></a>\\n                    <ul class="dropdown-menu">\\n                      <li><a href="javascript:void(0)">Action</a></li>\\n                      <li><a href="javascript:void(0)">Another action</a></li>\\n                      <li><a href="javascript:void(0)">Something else here</a></li>\\n                      <li class="divider"></li>\\n                      <li class="dropdown-header">Dropdown header</li>\\n                      <li><a href="javascript:void(0)">Separated link</a></li>\\n                      <li><a href="javascript:void(0)">One more separated link</a></li>\\n                    </ul>\\n                  </li>\\n                </ul>\\n                <form class="navbar-form navbar-left">\\n                  <div class="form-group">\\n                    <input type="text" class="form-control col-md-8" placeholder="Search">\\n                  </div>\\n                </form>\\n                <ul class="nav navbar-nav navbar-right">\\n                  <li><a href="javascript:void(0)">Link</a></li>\\n                  <li class="dropdown">\\n                    <a href="bootstrap-elements.html" data-target="#" class="dropdown-toggle" data-toggle="dropdown">Dropdown\\n                      <b class="caret"></b></a>\\n                    <ul class="dropdown-menu">\\n                      <li><a href="javascript:void(0)">Action</a></li>\\n                      <li><a href="javascript:void(0)">Another action</a></li>\\n                      <li><a href="javascript:void(0)">Something else here</a></li>\\n                      <li class="divider"></li>\\n                      <li><a href="javascript:void(0)">Separated link</a></li>\\n                    </ul>\\n                  </li>\\n                </ul>\\n              </div>\\n            </div>\\n          </div>\\n        </div><!-- /example -->\\n\\n        <div class="bs-component">\\n          <div class="navbar navbar-inverse">\\n            <div class="container-fluid">\\n              <div class="navbar-header">\\n                <button type="button" class="navbar-toggle" data-toggle="collapse" data-target=".navbar-inverse-collapse">\\n                  <span class="icon-bar"></span>\\n                  <span class="icon-bar"></span>\\n                  <span class="icon-bar"></span>\\n                </button>\\n                <a class="navbar-brand" href="javascript:void(0)">Brand</a>\\n              </div>\\n              <div class="navbar-collapse collapse navbar-inverse-collapse">\\n                <ul class="nav navbar-nav">\\n                  <li class="active"><a href="javascript:void(0)">Active</a></li>\\n                  <li><a href="javascript:void(0)">Link</a></li>\\n                  <li class="dropdown">\\n                    <a href="bootstrap-elements.html" data-target="#" class="dropdown-toggle" data-toggle="dropdown">Dropdown\\n                      <b class="caret"></b></a>\\n                    <ul class="dropdown-menu">\\n                      <li><a href="javascript:void(0)">Action</a></li>\\n                      <li><a href="javascript:void(0)">Another action</a></li>\\n                      <li><a href="javascript:void(0)">Something else here</a></li>\\n                      <li class="divider"></li>\\n                      <li class="dropdown-header">Dropdown header</li>\\n                      <li><a href="javascript:void(0)">Separated link</a></li>\\n                      <li><a href="javascript:void(0)">One more separated link</a></li>\\n                    </ul>\\n                  </li>\\n                </ul>\\n                <form class="navbar-form navbar-left">\\n                  <div class="form-group">\\n                    <input type="text" class="form-control col-md-8" placeholder="Search">\\n                  </div>\\n                </form>\\n                <ul class="nav navbar-nav navbar-right">\\n                  <li><a href="javascript:void(0)">Link</a></li>\\n                  <li class="dropdown">\\n                    <a href="bootstrap-elements.html" data-target="#" class="dropdown-toggle" data-toggle="dropdown">Dropdown\\n                      <b class="caret"></b></a>\\n                    <ul class="dropdown-menu">\\n                      <li><a href="javascript:void(0)">Action</a></li>\\n                      <li><a href="javascript:void(0)">Another action</a></li>\\n                      <li><a href="javascript:void(0)">Something else here</a></li>\\n                      <li class="divider"></li>\\n                      <li><a href="javascript:void(0)">Separated link</a></li>\\n                    </ul>\\n                  </li>\\n                </ul>\\n              </div>\\n            </div>\\n          </div>\\n        </div><!-- /example -->\\n\\n      </div>\\n    </div>\\n  </div>\\n\\n\\n  <!-- Buttons\\n================================================== -->\\n  <div class="bs-docs-section">\\n    <div class="page-header">\\n      <div class="row">\\n        <div class="col-md-12">\\n          <h1 id="buttons">Buttons</h1>\\n        </div>\\n      </div>\\n    </div>\\n\\n    <div class="row">\\n      <div class="col-md-6">\\n\\n        <h3>Flat buttons <small>default - no class needed</small></h3>\\n        <p class="bs-component">\\n          <a href="javascript:void(0)" class="btn"><code>btn</code> only</a>\\n          <a href="javascript:void(0)" class="btn active"><code>.active</code></a>\\n          <a href="javascript:void(0)" class="btn btn-default">Default</a>\\n          <a href="javascript:void(0)" class="btn btn-primary">Primary</a>\\n          <a href="javascript:void(0)" class="btn btn-success">Success</a>\\n          <a href="javascript:void(0)" class="btn btn-info">Info</a>\\n          <a href="javascript:void(0)" class="btn btn-warning">Warning</a>\\n          <a href="javascript:void(0)" class="btn btn-danger">Danger</a>\\n          <a href="javascript:void(0)" class="btn btn-link">Link</a>\\n        </p>\\n\\n\\n        <h3>Raised buttons <small><code>.btn-raised</code></small></h3>\\n        <p class="bs-component">\\n          <a href="javascript:void(0)" class="btn btn-raised active"><code>.active</code></a>\\n          <a href="javascript:void(0)" class="btn btn-raised btn-default">Default</a>\\n          <a href="javascript:void(0)" class="btn btn-raised btn-primary">Primary</a>\\n          <a href="javascript:void(0)" class="btn btn-raised btn-success">Success</a>\\n          <a href="javascript:void(0)" class="btn btn-raised btn-info">Info</a>\\n          <a href="javascript:void(0)" class="btn btn-raised btn-warning">Warning</a>\\n          <a href="javascript:void(0)" class="btn btn-raised btn-danger">Danger</a>\\n          <a href="javascript:void(0)" class="btn btn-raised btn-link">Link</a>\\n        </p>\\n\\n\\n        <h3>Disabled buttons</h3>\\n\\n        <fieldset disabled>\\n\\n          <h3><small>flat - default - no class needed</small></h3>\\n          <p class="bs-component">\\n            <a href="javascript:void(0)" class="btn"><code>btn</code> only</a>\\n            <a href="javascript:void(0)" class="btn btn-default">Default</a>\\n            <a href="javascript:void(0)" class="btn btn-primary">Primary</a>\\n            <a href="javascript:void(0)" class="btn btn-success">Success</a>\\n            <a href="javascript:void(0)" class="btn btn-info">Info</a>\\n            <a href="javascript:void(0)" class="btn btn-warning">Warning</a>\\n            <a href="javascript:void(0)" class="btn btn-danger">Danger</a>\\n            <a href="javascript:void(0)" class="btn btn-link">Link</a>\\n          </p>\\n\\n\\n          <h3><small><code>.btn-raised</code></small></h3>\\n          <p class="bs-component">\\n            <a href="javascript:void(0)" class="btn btn-raised btn-default">Default</a>\\n            <a href="javascript:void(0)" class="btn btn-raised btn-primary">Primary</a>\\n            <a href="javascript:void(0)" class="btn btn-raised btn-success">Success</a>\\n            <a href="javascript:void(0)" class="btn btn-raised btn-info">Info</a>\\n            <a href="javascript:void(0)" class="btn btn-raised btn-warning">Warning</a>\\n            <a href="javascript:void(0)" class="btn btn-raised btn-danger">Danger</a>\\n            <a href="javascript:void(0)" class="btn btn-raised btn-link">Link</a>\\n          </p>\\n        </fieldset>\\n\\n        <h3>Button sizes</h3>\\n\\n        <p class="bs-component">\\n          <a href="javascript:void(0)" class="btn btn-raised btn-lg">Large button</a>\\n          <a href="javascript:void(0)" class="btn btn-raised">Default button</a>\\n          <a href="javascript:void(0)" class="btn btn-raised btn-sm">Small button</a>\\n          <a href="javascript:void(0)" class="btn btn-raised btn-xs">xs button</a>\\n        </p>\\n\\n        <h3>Floating action buttons <small>a.k.a fab</small></h3>\\n        <p class="bs-component">\\n          <a href="javascript:void(0)" class="btn btn-default btn-fab"><i class="material-icons">grade</i></a>\\n          <a href="javascript:void(0)" class="btn btn-primary btn-fab"><i class="material-icons">grade</i></a>\\n          <a href="javascript:void(0)" class="btn btn-success btn-fab"><i class="material-icons">grade</i></a>\\n          <a href="javascript:void(0)" class="btn btn-info btn-fab"><i class="material-icons">grade</i></a>\\n          <a href="javascript:void(0)" class="btn btn-warning btn-fab"><i class="material-icons">grade</i></a>\\n          <a href="javascript:void(0)" class="btn btn-danger btn-fab"><i class="material-icons">grade</i></a>\\n        </p>\\n        <h4><small><code>.btn-group-sm .btn-fab</code> or <code>.btn-fab-mini</code></small></h4>\\n        <p class="bs-component btn-group-sm">\\n          <a href="javascript:void(0)" class="btn btn-default btn-fab"><i class="material-icons">grade</i></a>\\n          <a href="javascript:void(0)" class="btn btn-primary btn-fab"><i class="material-icons">grade</i></a>\\n          <a href="javascript:void(0)" class="btn btn-success btn-fab"><i class="material-icons">grade</i></a>\\n          <a href="javascript:void(0)" class="btn btn-info btn-fab"><i class="material-icons">grade</i></a>\\n          <a href="javascript:void(0)" class="btn btn-warning btn-fab"><i class="material-icons">grade</i></a>\\n          <a href="javascript:void(0)" class="btn btn-danger btn-fab"><i class="material-icons">grade</i></a>\\n        </p>\\n\\n      </div>\\n      <div class="col-md-6">\\n        <h2>Group variations with <small><code>.btn-raised</code></small></h2>\\n\\n        <h3>Button groups</h3>\\n        <div style="margin-bottom: 15px;">\\n          <div class="btn-toolbar bs-component" style="margin: 0;">\\n\\n            <div class="btn-group">\\n              <a href="javascript:void(0)" class="btn">btn only</a>\\n              <a href="bootstrap-elements.html" data-target="#" class="btn dropdown-toggle" data-toggle="dropdown"><span class="caret"></span></a>\\n              <ul class="dropdown-menu">\\n                <li><a href="javascript:void(0)">Action</a></li>\\n                <li><a href="javascript:void(0)">Another action</a></li>\\n                <li><a href="javascript:void(0)">Something else here</a></li>\\n                <li class="divider"></li>\\n                <li><a href="javascript:void(0)">Separated link</a></li>\\n              </ul>\\n            </div>\\n\\n\\n\\n            <div class="btn-group">\\n              <a href="javascript:void(0)" class="btn btn-default btn-raised">Default raised</a>\\n              <a href="bootstrap-elements.html" data-target="#" class="btn btn-default btn-raised dropdown-toggle" data-toggle="dropdown"><span class="caret"></span></a>\\n              <ul class="dropdown-menu">\\n                <li><a href="javascript:void(0)">Action</a></li>\\n                <li><a href="javascript:void(0)">Another action</a></li>\\n                <li><a href="javascript:void(0)">Something else here</a></li>\\n                <li class="divider"></li>\\n                <li><a href="javascript:void(0)">Separated link</a></li>\\n              </ul>\\n            </div>\\n\\n            <div class="btn-group">\\n              <a href="javascript:void(0)" class="btn btn-primary btn-raised">Primary raised</a>\\n              <a href="bootstrap-elements.html" data-target="#" class="btn btn-primary btn-raised dropdown-toggle" data-toggle="dropdown"><span class="caret"></span></a>\\n              <ul class="dropdown-menu">\\n                <li><a href="javascript:void(0)">Action</a></li>\\n                <li><a href="javascript:void(0)">Another action</a></li>\\n                <li><a href="javascript:void(0)">Something else here</a></li>\\n                <li class="divider"></li>\\n                <li><a href="javascript:void(0)">Separated link</a></li>\\n              </ul>\\n            </div>\\n\\n            <div class="btn-group">\\n              <a href="javascript:void(0)" class="btn btn-success">Success</a>\\n              <a href="bootstrap-elements.html" data-target="#" class="btn btn-success dropdown-toggle" data-toggle="dropdown"><span class="caret"></span></a>\\n              <ul class="dropdown-menu">\\n                <li><a href="javascript:void(0)">Action</a></li>\\n                <li><a href="javascript:void(0)">Another action</a></li>\\n                <li><a href="javascript:void(0)">Something else here</a></li>\\n                <li class="divider"></li>\\n                <li><a href="javascript:void(0)">Separated link</a></li>\\n              </ul>\\n            </div>\\n\\n            <div class="btn-group">\\n              <a href="javascript:void(0)" class="btn btn-info">Info</a>\\n              <a href="bootstrap-elements.html" data-target="#" class="btn btn-info dropdown-toggle" data-toggle="dropdown"><span class="caret"></span></a>\\n              <ul class="dropdown-menu">\\n                <li><a href="javascript:void(0)">Action</a></li>\\n                <li><a href="javascript:void(0)">Another action</a></li>\\n                <li><a href="javascript:void(0)">Something else here</a></li>\\n                <li class="divider"></li>\\n                <li><a href="javascript:void(0)">Separated link</a></li>\\n              </ul>\\n            </div>\\n\\n            <div class="btn-group">\\n              <a href="javascript:void(0)" class="btn btn-warning">Warning</a>\\n              <a href="bootstrap-elements.html" data-target="#" class="btn btn-warning dropdown-toggle" data-toggle="dropdown"><span class="caret"></span></a>\\n              <ul class="dropdown-menu">\\n                <li><a href="javascript:void(0)">Action</a></li>\\n                <li><a href="javascript:void(0)">Another action</a></li>\\n                <li><a href="javascript:void(0)">Something else here</a></li>\\n                <li class="divider"></li>\\n                <li><a href="javascript:void(0)">Separated link</a></li>\\n              </ul>\\n            </div>\\n\\n            <div class="btn-group">\\n              <a href="javascript:void(0)" class="btn btn-danger">Danger</a>\\n              <a href="bootstrap-elements.html" data-target="#" class="btn btn-danger dropdown-toggle" data-toggle="dropdown"><span class="caret"></span></a>\\n              <ul class="dropdown-menu">\\n                <li><a href="javascript:void(0)">Action</a></li>\\n                <li><a href="javascript:void(0)">Another action</a></li>\\n                <li><a href="javascript:void(0)">Something else here</a></li>\\n                <li class="divider"></li>\\n                <li><a href="javascript:void(0)">Separated link</a></li>\\n              </ul>\\n            </div>\\n          </div>\\n        </div>\\n\\n\\n\\n        <h3><small><code>btn-lg.btn-block.btn-raised</code></small></h3>\\n        <div class="bs-component">\\n          <a href="javascript:void(0)" class="btn btn-default btn-lg btn-block btn-raised">Block level button</a>\\n          <fieldset disabled>\\n            <a href="javascript:void(0)" class="btn btn-default btn-lg btn-block btn-raised">Block level button disabled</a>\\n          </fieldset>\\n        </div>\\n\\n\\n        <div class="bs-component" style="margin-bottom: 15px;">\\n          <h3><small><code>btn-group.btn-group-justified.btn-group-raised</code></small></h3>\\n          <div class="btn-group btn-group-justified btn-group-raised">\\n            <a href="javascript:void(0)" class="btn ">Left</a>\\n            <a href="javascript:void(0)" class="btn ">Middle</a>\\n            <a href="javascript:void(0)" class="btn ">Right</a>\\n          </div>\\n\\n          <h3><small>disabled <code>btn-group.btn-group-justified.btn-group-raised</code></small></h3>\\n          <fieldset disabled>\\n            <div class="btn-group btn-group-justified btn-group-raised">\\n              <a href="javascript:void(0)" class="btn ">Left</a>\\n              <a href="javascript:void(0)" class="btn ">Middle</a>\\n              <a href="javascript:void(0)" class="btn ">Right</a>\\n            </div>\\n          </fieldset>\\n        </div>\\n\\n        <div class="bs-component" style="margin-bottom: 15px;">\\n          <h3><small><code>btn-toolbar</code></small></h3>\\n          <div class="btn-toolbar">\\n            <div class="btn-group">\\n              <a href="javascript:void(0)" class="btn">1</a>\\n              <a href="javascript:void(0)" class="btn">2</a>\\n              <a href="javascript:void(0)" class="btn">3</a>\\n              <a href="javascript:void(0)" class="btn">4</a>\\n            </div>\\n\\n            <div class="btn-group">\\n              <a href="javascript:void(0)" class="btn btn-raised">5</a>\\n              <a href="javascript:void(0)" class="btn btn-raised">6</a>\\n              <a href="javascript:void(0)" class="btn btn-raised">7</a>\\n            </div>\\n\\n            <div class="btn-group">\\n              <a href="javascript:void(0)" class="btn btn-raised">8</a>\\n\\n              <div class="btn-group">\\n                <a href="bootstrap-elements.html" data-target="#" class="btn btn-raised dropdown-toggle" data-toggle="dropdown">\\n                  Dropdown\\n                  <span class="caret"></span>\\n                </a>\\n                <ul class="dropdown-menu">\\n                  <li><a href="javascript:void(0)">Dropdown link</a></li>\\n                  <li><a href="javascript:void(0)">Dropdown link</a></li>\\n                  <li><a href="javascript:void(0)">Dropdown link</a></li>\\n                </ul>\\n              </div>\\n            </div>\\n          </div>\\n        </div>\\n\\n        <div class="bs-component">\\n          <h3><small><code>.btn-group-vertical</code></small></h3>\\n          <div class="btn-group-vertical">\\n            <a href="javascript:void(0)" class="btn btn-raised">Button</a>\\n            <a href="javascript:void(0)" class="btn btn-raised">Button</a>\\n            <a href="javascript:void(0)" class="btn btn-raised">Button</a>\\n            <a href="javascript:void(0)" class="btn btn-raised">Button</a>\\n          </div>\\n        </div>\\n\\n\\n      </div>\\n    </div>\\n  </div>\\n\\n  <!-- Typography\\n================================================== -->\\n  <div class="bs-docs-section">\\n    <div class="row">\\n      <div class="col-md-12">\\n        <div class="page-header">\\n          <h1 id="type">Typography</h1>\\n        </div>\\n      </div>\\n    </div>\\n\\n    <!-- Headings -->\\n\\n    <div class="row">\\n      <div class="col-md-4">\\n        <div class="bs-component">\\n          <h1>Heading 1</h1>\\n\\n          <h2>Heading 2</h2>\\n\\n          <h3>Heading 3</h3>\\n          <h4>Heading 4</h4>\\n          <h5>Heading 5</h5>\\n          <h6>Heading 6</h6>\\n\\n          <p class="lead">Vivamus sagittis lacus vel augue laoreet rutrum faucibus dolor auctor.</p>\\n        </div>\\n      </div>\\n      <div class="col-md-4">\\n        <div class="bs-component">\\n          <h2>Example body text</h2>\\n\\n          <p>Nullam quis risus eget\\n            <a href="javascript:void(0)">urna mollis ornare</a> vel eu leo. Cum sociis natoque penatibus et magnis dis parturient montes, nascetur ridiculus mus. Nullam id dolor id nibh ultricies vehicula.\\n          </p>\\n\\n          <p>\\n            <small>This line of text is meant to be treated as fine print.</small>\\n          </p>\\n          <p>The following snippet of text is <strong>rendered as bold text</strong>.</p>\\n\\n          <p>The following snippet of text is <em>rendered as italicized text</em>.</p>\\n\\n          <p>An abbreviation of the word attribute is <abbr title="attribute">attr</abbr>.</p>\\n        </div>\\n\\n      </div>\\n      <div class="col-md-4">\\n        <div class="bs-component">\\n          <h2>Emphasis classes</h2>\\n\\n          <p class="text-muted">Fusce dapibus, tellus ac cursus commodo, tortor mauris nibh.</p>\\n\\n          <p class="text-primary">Nullam id dolor id nibh ultricies vehicula ut id elit.</p>\\n\\n          <p class="text-warning">Etiam porta sem malesuada magna mollis euismod.</p>\\n\\n          <p class="text-danger">Donec ullamcorper nulla non metus auctor fringilla.</p>\\n\\n          <p class="text-success">Duis mollis, est non commodo luctus, nisi erat porttitor ligula.</p>\\n\\n          <p class="text-info">Maecenas sed diam eget risus varius blandit sit amet non magna.</p>\\n        </div>\\n\\n      </div>\\n    </div>\\n\\n    <!-- Blockquotes -->\\n\\n    <div class="row">\\n      <div class="col-md-12">\\n        <h2 id="type-blockquotes">Blockquotes</h2>\\n      </div>\\n    </div>\\n    <div class="row">\\n      <div class="col-md-6">\\n        <div class="bs-component">\\n          <blockquote>\\n            <p>Lorem ipsum dolor sit amet, consectetur adipiscing elit. Integer posuere erat a ante.</p>\\n            <small>Someone famous in <cite title="Source Title">Source Title</cite></small>\\n          </blockquote>\\n        </div>\\n      </div>\\n      <div class="col-md-6">\\n        <div class="bs-component">\\n          <blockquote class="pull-right">\\n            <p>Lorem ipsum dolor sit amet, consectetur adipiscing elit. Integer posuere erat a ante.</p>\\n            <small>Someone famous in <cite title="Source Title">Source Title</cite></small>\\n          </blockquote>\\n        </div>\\n      </div>\\n    </div>\\n  </div>\\n\\n  <!-- Icons\\n================================================== -->\\n  <div class="bs-docs-section">\\n\\n    <div class="row">\\n      <div class="col-md-12">\\n        <div class="page-header">\\n          <h1 id="icon">Icons</h1>\\n\\n          <p>Bootstrap Material Design supports the full range of original Material Design icons!<br>\\n            <a href="https://www.google.com/design/icons/">See the full set of material design icons at the material icons library.</a>\\n          </p>\\n          <p>\\n            It\\xe2\\x80\\x99s easy to incorporate icons into your web page. Here\\xe2\\x80\\x99s a small example:\\n            <br>\\n            <code>&lt;i class="material-icons"&gt;face&lt;/i&gt;</code>\\n            <i class="material-icons">face</i>\\n          </p>\\n          <p>Please be sure that the fonts are properly setup, see <a href="https://github.com/FezVrasta/bootstrap-material-design#getting-started">Getting Started</a>.</p>\\n        </div>\\n      </div>\\n    </div>\\n  </div>\\n\\n\\n  <!-- Tables\\n================================================== -->\\n  <div class="bs-docs-section">\\n\\n    <div class="row">\\n      <div class="col-md-12">\\n        <div class="page-header">\\n          <h1 id="tables">Tables</h1>\\n        </div>\\n\\n        <div class="bs-component">\\n          <table class="table table-striped table-hover ">\\n            <thead>\\n            <tr>\\n              <th>#</th>\\n              <th>Column heading</th>\\n              <th>Column heading</th>\\n              <th>Column heading</th>\\n            </tr>\\n            </thead>\\n            <tbody>\\n            <tr>\\n              <td>1</td>\\n              <td>Column content</td>\\n              <td>Column content</td>\\n              <td>Column content</td>\\n            </tr>\\n            <tr>\\n              <td>2</td>\\n              <td>Column content</td>\\n              <td>Column content</td>\\n              <td>Column content</td>\\n            </tr>\\n            <tr class="info">\\n              <td>3</td>\\n              <td>Column content</td>\\n              <td>Column content</td>\\n              <td>Column content</td>\\n            </tr>\\n            <tr class="success">\\n              <td>4</td>\\n              <td>Column content</td>\\n              <td>Column content</td>\\n              <td>Column content</td>\\n            </tr>\\n            <tr class="danger">\\n              <td>5</td>\\n              <td>Column content</td>\\n              <td>Column content</td>\\n              <td>Column content</td>\\n            </tr>\\n            <tr class="warning">\\n              <td>6</td>\\n              <td>Column content</td>\\n              <td>Column content</td>\\n              <td>Column content</td>\\n            </tr>\\n            <tr class="active">\\n              <td>7</td>\\n              <td>Column content</td>\\n              <td>Column content</td>\\n              <td>Column content</td>\\n            </tr>\\n            </tbody>\\n          </table>\\n        </div><!-- /example -->\\n      </div>\\n    </div>\\n  </div>\\n\\n  <!-- Forms\\n================================================== -->\\n  <div class="bs-docs-section">\\n    <div class="row">\\n      <div class="col-md-12">\\n        <div class="page-header">\\n          <h1 id="forms">Forms</h1>\\n        </div>\\n      </div>\\n    </div>\\n\\n    <div class="row">\\n      <div class="col-md-6">\\n        <div class="well bs-component">\\n          <form class="form-horizontal">\\n            <fieldset>\\n              <legend>Legend</legend>\\n              <div class="form-group">\\n                <label for="inputEmail" class="col-md-2 control-label">Email</label>\\n\\n                <div class="col-md-10">\\n                  <input type="email" class="form-control" id="inputEmail" placeholder="Email">\\n                </div>\\n              </div>\\n              <div class="form-group">\\n                <label for="inputPassword" class="col-md-2 control-label">Password</label>\\n\\n                <div class="col-md-10">\\n                  <input type="password" class="form-control" id="inputPassword" placeholder="Password">\\n\\n                  <!--\\n                  <div class="checkbox">\\n                    <label>\\n                      <input type="checkbox"> Checkbox\\n                    </label>\\n                    <label>\\n                      <input type="checkbox" disabled> Disabled Checkbox\\n                    </label>\\n                  </div>\\n                  <br>\\n\\n                  <div class="togglebutton">\\n                    <label>\\n                      <input type="checkbox" checked> Toggle button\\n                    </label>\\n                  </div>\\n                  -->\\n                </div>\\n              </div>\\n              <div class="form-group" style="margin-top: 0;"> <!-- inline style is just to demo custom css to put checkbox below input above -->\\n                <div class="col-md-offset-2 col-md-10">\\n                  <div class="checkbox">\\n                    <label>\\n                      <input type="checkbox"> Checkbox\\n                    </label>\\n                    <label>\\n                      <input type="checkbox" disabled> Disabled Checkbox\\n                    </label>\\n                  </div>\\n                </div>\\n              </div>\\n              <div class="form-group">\\n                <div class="col-md-offset-2 col-md-10">\\n                  <div class="togglebutton">\\n                    <label>\\n                      <input type="checkbox" checked> Toggle button\\n                    </label>\\n                  </div>\\n                </div>\\n              </div>\\n              <div class="form-group">\\n                <label for="inputFile" class="col-md-2 control-label">File</label>\\n\\n                <div class="col-md-10">\\n                  <input type="text" readonly class="form-control" placeholder="Browse...">\\n                  <input type="file" id="inputFile" multiple>\\n                </div>\\n              </div>\\n              <div class="form-group">\\n                <label for="textArea" class="col-md-2 control-label">Textarea</label>\\n\\n                <div class="col-md-10">\\n                  <textarea class="form-control" rows="3" id="textArea"></textarea>\\n                  <span class="help-block">A longer block of help text that breaks onto a new line and may extend beyond one line.</span>\\n                </div>\\n              </div>\\n              <div class="form-group">\\n                <label class="col-md-2 control-label">Radios</label>\\n\\n                <div class="col-md-10">\\n                  <div class="radio radio-primary">\\n                    <label>\\n                      <input type="radio" name="optionsRadios" id="optionsRadios1" value="option1" checked="">\\n                      Option one is this\\n                    </label>\\n                  </div>\\n                  <div class="radio radio-primary">\\n                    <label>\\n                      <input type="radio" name="optionsRadios" id="optionsRadios2" value="option2">\\n                      Option two can be something else\\n                    </label>\\n                  </div>\\n                </div>\\n              </div>\\n              <div class="form-group">\\n                <label for="select111" class="col-md-2 control-label">Select</label>\\n\\n                <div class="col-md-10">\\n                  <select id="select111" class="form-control">\\n                    <option>1</option>\\n                    <option>2</option>\\n                    <option>3</option>\\n                    <option>4</option>\\n                    <option>5</option>\\n                  </select>\\n                </div>\\n              </div>\\n              <div class="form-group">\\n                <label for="select222" class="col-md-2 control-label">Select Multiple</label>\\n\\n                <div class="col-md-10">\\n                  <select id="select222" multiple="" class="form-control">\\n                    <option>1</option>\\n                    <option>2</option>\\n                    <option>3</option>\\n                    <option>4</option>\\n                    <option>5</option>\\n                  </select>\\n                </div>\\n              </div>\\n              <div class="form-group">\\n                <div class="col-md-10 col-md-offset-2">\\n                  <button type="button" class="btn btn-default">Cancel</button>\\n                  <button type="submit" class="btn btn-primary">Submit</button>\\n                </div>\\n              </div>\\n            </fieldset>\\n          </form>\\n        </div>\\n      </div>\\n      <div class="col-md-4 col-md-offset-1">\\n\\n        <form class="bs-component">\\n          <div class="form-group label-floating">\\n            <label class="control-label" for="focusedInput1">Write something to make the label float</label>\\n            <input class="form-control" id="focusedInput1" type="text">\\n          </div>\\n\\n          <div class="form-group label-floating">\\n            <label class="control-label" for="focusedInput2">Focus to show the help-block</label>\\n            <input class="form-control" id="focusedInput2" type="text">\\n            <p class="help-block">You should really write something here</p>\\n          </div>\\n\\n          <div class="form-group">\\n            <label class="control-label" for="disabledInput">Disabled input</label>\\n            <input class="form-control" id="disabledInput" type="text" placeholder="Disabled input here..." disabled="">\\n          </div>\\n\\n          <div class="form-group has-warning">\\n            <label class="control-label" for="inputWarning">Input warning</label>\\n            <input type="text" class="form-control" id="inputWarning">\\n          </div>\\n\\n          <div class="form-group has-error">\\n            <label class="control-label" for="inputError">Input error</label>\\n            <input type="text" class="form-control" id="inputError">\\n          </div>\\n\\n          <div class="form-group has-success">\\n            <label class="control-label" for="inputSuccess">Input success</label>\\n            <input type="text" class="form-control" id="inputSuccess">\\n          </div>\\n\\n          <div class="form-group">\\n            <label class="control-label" for="inputLarge">Large input</label>\\n            <input class="form-control input-lg" type="text" id="inputLarge">\\n          </div>\\n\\n          <div class="form-group">\\n            <label class="control-label" for="inputDefault">Default input</label>\\n            <input type="text" class="form-control" id="inputDefault">\\n          </div>\\n\\n          <div class="form-group">\\n            <label class="control-label" for="inputSmall">Small input</label>\\n            <input class="form-control input-sm" type="text" id="inputSmall">\\n          </div>\\n\\n          <div class="form-group">\\n            <label class="control-label" for="addon1">Default label w/input addons</label>\\n            <div class="input-group">\\n              <span class="input-group-addon">$</span>\\n              <input type="text" id="addon1" class="form-control">\\n              <span class="input-group-btn">\\n                  <button class="btn btn-primary" type="button">Button</button>\\n              </span>\\n            </div>\\n          </div>\\n\\n          <div class="form-group label-floating">\\n            <div class="input-group">\\n              <span class="input-group-addon">$</span>\\n              <label class="control-label" for="addon3a">Floating label w/2 addons</label>\\n              <input type="text" id="addon3a" class="form-control">\\n              <p class="help-block">The label is inside the <code>input-group</code> so that it is positioned properly as a placeholder.</p>\\n              <span class="input-group-btn">\\n                <button type="button" class="btn btn-fab btn-fab-mini">\\n                  <i class="material-icons">send</i>\\n                </button>\\n              </span>\\n            </div>\\n          </div>\\n\\n          <div class="form-group label-floating">\\n\\n            <label class="control-label" for="addon2">Floating label w/right addon</label>\\n            <div class="input-group">\\n              <input type="text" id="addon2" class="form-control">\\n              <span class="input-group-btn">\\n                <button type="button" class="btn btn-fab btn-fab-mini">\\n                  <i class="material-icons">functions</i>\\n                </button>\\n              </span>\\n            </div>\\n          </div>\\n\\n          <div class="form-group">\\n            <input type="file" id="inputFile4" multiple>\\n            <div class="input-group">\\n              <input type="text" readonly class="form-control" placeholder="Placeholder w/file chooser...">\\n                <span class="input-group-btn input-group-sm">\\n                  <button type="button" class="btn btn-fab btn-fab-mini">\\n                    <i class="material-icons">attach_file</i>\\n                  </button>\\n                </span>\\n            </div>\\n          </div>\\n\\n\\n        </form>\\n\\n      </div>\\n    </div>\\n  </div>\\n\\n  <!-- Navs\\n================================================== -->\\n  <div class="bs-docs-section">\\n\\n    <div class="row">\\n      <div class="col-md-12">\\n        <div class="page-header">\\n          <h1 id="nav">Navs</h1>\\n        </div>\\n      </div>\\n    </div>\\n\\n    <div class="row">\\n      <div class="col-md-4">\\n        <h2 id="nav-tabs">Tabs</h2>\\n\\n        <div class="bs-component">\\n          <ul class="nav nav-tabs" style="margin-bottom: 15px;">\\n            <li class="active"><a href="#home" data-toggle="tab">Home</a></li>\\n            <li><a href="#profile" data-toggle="tab">Profile</a></li>\\n            <li class="disabled"><a>Disabled</a></li>\\n            <li class="dropdown">\\n              <a class="dropdown-toggle" data-toggle="dropdown" href="bootstrap-elements.html" data-target="#">\\n                Dropdown <span class="caret"></span>\\n              </a>\\n              <ul class="dropdown-menu">\\n                <li><a href="#dropdown1" data-toggle="tab">Action</a></li>\\n                <li class="divider"></li>\\n                <li><a href="#dropdown2" data-toggle="tab">Another action</a></li>\\n              </ul>\\n            </li>\\n          </ul>\\n          <div id="myTabContent" class="tab-content">\\n            <div class="tab-pane fade active in" id="home">\\n              <p>Raw denim you probably haven\\\'t heard of them jean shorts Austin. Nesciunt tofu stumptown aliqua, retro synth master cleanse. Mustache cliche tempor, williamsburg carles vegan helvetica. Reprehenderit butcher retro keffiyeh dreamcatcher synth. Cosby sweater eu banh mi, qui irure terry richardson ex squid. Aliquip placeat salvia cillum iphone. Seitan aliquip quis cardigan american apparel, butcher voluptate nisi qui.</p>\\n            </div>\\n            <div class="tab-pane fade" id="profile">\\n              <p>Food truck fixie locavore, accusamus mcsweeney\\\'s marfa nulla single-origin coffee squid. Exercitation +1 labore velit, blog sartorial PBR leggings next level wes anderson artisan four loko farm-to-table craft beer twee. Qui photo booth letterpress, commodo enim craft beer mlkshk aliquip jean shorts ullamco ad vinyl cillum PBR. Homo nostrud organic, assumenda labore aesthetic magna delectus mollit.</p>\\n            </div>\\n            <div class="tab-pane fade" id="dropdown1">\\n              <p>Etsy mixtape wayfarers, ethical wes anderson tofu before they sold out mcsweeney\\\'s organic lomo retro fanny pack lo-fi farm-to-table readymade. Messenger bag gentrify pitchfork tattooed craft beer, iphone skateboard locavore carles etsy salvia banksy hoodie helvetica. DIY synth PBR banksy irony. Leggings gentrify squid 8-bit cred pitchfork.</p>\\n            </div>\\n            <div class="tab-pane fade" id="dropdown2">\\n              <p>Trust fund seitan letterpress, keytar raw denim keffiyeh etsy art party before they sold out master cleanse gluten-free squid scenester freegan cosby sweater. Fanny pack portland seitan DIY, art party locavore wolf cliche high life echo park Austin. Cred vinyl keffiyeh DIY salvia PBR, banh mi before they sold out farm-to-table VHS viral locavore cosby sweater.</p>\\n            </div>\\n          </div>\\n        </div>\\n      </div>\\n      <div class="col-md-4">\\n        <h2 id="nav-pills">Pills</h2>\\n\\n        <div class="bs-component">\\n          <ul class="nav nav-pills">\\n            <li class="active"><a href="javascript:void(0)">Home</a></li>\\n            <li><a href="javascript:void(0)">Profile</a></li>\\n            <li class="disabled"><a href="javascript:void(0)">Disabled</a></li>\\n            <li class="dropdown">\\n              <a class="dropdown-toggle" data-toggle="dropdown" href="bootstrap-elements.html" data-target="#">\\n                Dropdown <span class="caret"></span>\\n              </a>\\n              <ul class="dropdown-menu">\\n                <li><a href="javascript:void(0)">Action</a></li>\\n                <li><a href="javascript:void(0)">Another action</a></li>\\n                <li><a href="javascript:void(0)">Something else here</a></li>\\n                <li class="divider"></li>\\n                <li><a href="javascript:void(0)">Separated link</a></li>\\n              </ul>\\n            </li>\\n          </ul>\\n        </div>\\n        <br>\\n\\n        <div class="bs-component">\\n          <ul class="nav nav-pills nav-stacked" style="max-width: 300px;">\\n            <li class="active"><a href="javascript:void(0)">Home</a></li>\\n            <li><a href="javascript:void(0)">Profile</a></li>\\n            <li class="disabled"><a href="javascript:void(0)">Disabled</a></li>\\n            <li class="dropdown">\\n              <a class="dropdown-toggle" data-toggle="dropdown" href="bootstrap-elements.html" data-target="#">\\n                Dropdown <span class="caret"></span>\\n              </a>\\n              <ul class="dropdown-menu">\\n                <li><a href="javascript:void(0)">Action</a></li>\\n                <li><a href="javascript:void(0)">Another action</a></li>\\n                <li><a href="javascript:void(0)">Something else here</a></li>\\n                <li class="divider"></li>\\n                <li><a href="javascript:void(0)">Separated link</a></li>\\n              </ul>\\n            </li>\\n          </ul>\\n        </div>\\n      </div>\\n      <div class="col-md-4">\\n        <h2 id="nav-breadcrumbs">Breadcrumbs</h2>\\n\\n        <div class="bs-component">\\n          <ul class="breadcrumb">\\n            <li class="active">Home</li>\\n          </ul>\\n\\n          <ul class="breadcrumb">\\n            <li><a href="javascript:void(0)">Home</a></li>\\n            <li class="active">Library</li>\\n          </ul>\\n\\n          <ul class="breadcrumb" style="margin-bottom: 5px;">\\n            <li><a href="javascript:void(0)">Home</a></li>\\n            <li><a href="javascript:void(0)">Library</a></li>\\n            <li class="active">Data</li>\\n          </ul>\\n        </div>\\n\\n      </div>\\n    </div>\\n\\n\\n    <div class="row">\\n      <div class="col-md-4">\\n        <h2 id="pagination">Pagination</h2>\\n\\n        <div class="bs-component">\\n          <ul class="pagination">\\n            <li class="disabled"><a href="javascript:void(0)">&laquo;</a></li>\\n            <li class="active"><a href="javascript:void(0)">1</a></li>\\n            <li><a href="javascript:void(0)">2</a></li>\\n            <li><a href="javascript:void(0)">3</a></li>\\n            <li><a href="javascript:void(0)">4</a></li>\\n            <li><a href="javascript:void(0)">5</a></li>\\n            <li><a href="javascript:void(0)">&raquo;</a></li>\\n          </ul>\\n\\n          <ul class="pagination pagination-lg">\\n            <li class="disabled"><a href="javascript:void(0)">&laquo;</a></li>\\n            <li class="active"><a href="javascript:void(0)">1</a></li>\\n            <li><a href="javascript:void(0)">2</a></li>\\n            <li><a href="javascript:void(0)">3</a></li>\\n            <li><a href="javascript:void(0)">&raquo;</a></li>\\n          </ul>\\n\\n          <ul class="pagination pagination-sm">\\n            <li class="disabled"><a href="javascript:void(0)">&laquo;</a></li>\\n            <li class="active"><a href="javascript:void(0)">1</a></li>\\n            <li><a href="javascript:void(0)">2</a></li>\\n            <li><a href="javascript:void(0)">3</a></li>\\n            <li><a href="javascript:void(0)">4</a></li>\\n            <li><a href="javascript:void(0)">5</a></li>\\n            <li><a href="javascript:void(0)">&raquo;</a></li>\\n          </ul>\\n        </div>\\n      </div>\\n      <div class="col-md-4">\\n        <h2 id="pager">Pager</h2>\\n\\n        <div class="bs-component">\\n          <ul class="pager">\\n            <li><a class="withripple" href="javascript:void(0)">Previous</a></li>\\n            <li><a class="withripple" href="javascript:void(0)">Next</a></li>\\n          </ul>\\n\\n          <ul class="pager">\\n            <li class="previous disabled"><a href="javascript:void(0)">&larr; Older</a></li>\\n            <li class="next"><a class="withripple" href="javascript:void(0)">Newer &rarr;</a></li>\\n          </ul>\\n        </div>\\n      </div>\\n      <div class="col-md-4">\\n\\n      </div>\\n    </div>\\n  </div>\\n\\n  <!-- Indicators\\n================================================== -->\\n  <div class="bs-docs-section">\\n\\n    <div class="row">\\n      <div class="col-md-12">\\n        <div class="page-header">\\n          <h1 id="indicators">Indicators</h1>\\n        </div>\\n      </div>\\n    </div>\\n\\n    <div class="row">\\n      <div class="col-md-12">\\n        <h2>Alerts</h2>\\n\\n        <div class="bs-component">\\n          <div class="alert alert-dismissible alert-warning">\\n            <button type="button" class="close" data-dismiss="alert">&times;</button>\\n            <h4>Warning!</h4>\\n\\n            <p>Best check yo self, you\\\'re not looking too good. Nulla vitae elit libero, a pharetra augue. Praesent commodo cursus magna,\\n              <a href="javascript:void(0)" class="alert-link">vel scelerisque nisl consectetur et</a>.</p>\\n          </div>\\n        </div>\\n      </div>\\n    </div>\\n    <div class="row">\\n      <div class="col-md-4">\\n        <div class="bs-component">\\n          <div class="alert alert-dismissible alert-danger">\\n            <button type="button" class="close" data-dismiss="alert">&times;</button>\\n            <strong>Oh snap!</strong>\\n            <a href="javascript:void(0)" class="alert-link">Change a few things up</a> and try submitting again.\\n          </div>\\n        </div>\\n      </div>\\n      <div class="col-md-4">\\n        <div class="bs-component">\\n          <div class="alert alert-dismissible alert-success">\\n            <button type="button" class="close" data-dismiss="alert">&times;</button>\\n            <strong>Well done!</strong> You successfully read\\n            <a href="javascript:void(0)" class="alert-link">this important alert message</a>.\\n          </div>\\n        </div>\\n      </div>\\n      <div class="col-md-4">\\n        <div class="bs-component">\\n          <div class="alert alert-dismissible alert-info">\\n            <button type="button" class="close" data-dismiss="alert">&times;</button>\\n            <strong>Heads up!</strong> This\\n            <a href="javascript:void(0)" class="alert-link">alert needs your attention</a>, but it\\\'s not super important.\\n          </div>\\n        </div>\\n      </div>\\n    </div>\\n    <div class="row">\\n      <div class="col-md-4">\\n        <h2>Labels</h2>\\n\\n        <div class="bs-component" style="margin-bottom: 40px;">\\n          <span class="label label-default">Default</span>\\n          <span class="label label-primary">Primary</span>\\n          <span class="label label-success">Success</span>\\n          <span class="label label-warning">Warning</span>\\n          <span class="label label-danger">Danger</span>\\n          <span class="label label-info">Info</span>\\n        </div>\\n      </div>\\n      <div class="col-md-4">\\n        <h2>Badges</h2>\\n\\n        <div class="bs-component">\\n          <ul class="nav nav-pills">\\n            <li class="active"><a href="javascript:void(0)">Home <span class="badge">42</span></a></li>\\n            <li><a href="javascript:void(0)">Profile <span class="badge"></span></a></li>\\n            <li><a href="javascript:void(0)">Messages <span class="badge">3</span></a></li>\\n          </ul>\\n        </div>\\n      </div>\\n    </div>\\n  </div>\\n\\n  <!-- Progress bars\\n================================================== -->\\n  <div class="bs-docs-section">\\n\\n    <div class="row">\\n      <div class="col-md-12">\\n        <div class="page-header">\\n          <h1 id="progress">Progress bars</h1>\\n        </div>\\n\\n        <h3 id="progress-basic">Basic</h3>\\n\\n        <div class="bs-component">\\n          <div class="progress">\\n            <div class="progress-bar" style="width: 60%;"></div>\\n          </div>\\n        </div>\\n\\n        <h3 id="progress-alternatives">Contextual alternatives</h3>\\n\\n        <div class="bs-component">\\n          <div class="progress">\\n            <div class="progress-bar progress-bar-info" style="width: 20%"></div>\\n          </div>\\n\\n          <div class="progress">\\n            <div class="progress-bar progress-bar-success" style="width: 40%"></div>\\n          </div>\\n\\n          <div class="progress">\\n            <div class="progress-bar progress-bar-warning" style="width: 60%"></div>\\n          </div>\\n\\n          <div class="progress">\\n            <div class="progress-bar progress-bar-danger" style="width: 80%"></div>\\n          </div>\\n        </div>\\n\\n        <h3 id="progress-striped">Striped</h3>\\n\\n        <div class="bs-component">\\n          <div class="progress progress-striped">\\n            <div class="progress-bar progress-bar-info" style="width: 20%"></div>\\n          </div>\\n\\n          <div class="progress progress-striped">\\n            <div class="progress-bar progress-bar-success" style="width: 40%"></div>\\n          </div>\\n\\n          <div class="progress progress-striped">\\n            <div class="progress-bar progress-bar-warning" style="width: 60%"></div>\\n          </div>\\n\\n          <div class="progress progress-striped">\\n            <div class="progress-bar progress-bar-danger" style="width: 80%"></div>\\n          </div>\\n        </div>\\n\\n        <h3 id="progress-animated">Animated</h3>\\n\\n        <div class="bs-component">\\n          <div class="progress progress-striped active">\\n            <div class="progress-bar" style="width: 45%"></div>\\n          </div>\\n        </div>\\n\\n        <h3 id="progress-stacked">Stacked</h3>\\n\\n        <div class="bs-component">\\n          <div class="progress">\\n            <div class="progress-bar progress-bar-success" style="width: 35%"></div>\\n            <div class="progress-bar progress-bar-warning" style="width: 20%"></div>\\n            <div class="progress-bar progress-bar-danger" style="width: 10%"></div>\\n          </div>\\n        </div>\\n      </div>\\n    </div>\\n  </div>\\n\\n  <!-- Sliders (noUiSlider)\\n================================================== -->\\n\\n  <div class="bs-docs-section">\\n    <div class="row">\\n      <div class="col-md-12">\\n        <div class="page-header">\\n          <h1 id="slider">Sliders <span style="font-size: 50%">(with noUiSlider)</span></h1>\\n        </div>\\n        <div class="bs-component">\\n          <div class="row">\\n            <div class="col-sm-6">\\n              <div class="slider shor"></div>\\n              <div class="slider shor slider-success"></div>\\n              <div class="slider shor slider-material-pink"></div>\\n            </div>\\n            <div class="col-sm-6" style="height: 150px">\\n              <div class="slider svert"></div>\\n              <div class="slider svert slider-success"></div>\\n              <div class="slider svert slider-material-pink"></div>\\n            </div>\\n          </div>\\n        </div>\\n        <p>Read more about <a href="http://refreshless.com/nouislider/">noUiSlider here</a>.</p>\\n      </div>\\n    </div>\\n  </div>\\n\\n  <!-- Containers\\n================================================== -->\\n  <div class="bs-docs-section">\\n\\n    <div class="row">\\n      <div class="col-md-12">\\n        <div class="page-header">\\n          <h1 id="container">Containers</h1>\\n        </div>\\n        <div class="bs-component">\\n          <div class="jumbotron">\\n            <h1>Jumbotron</h1>\\n\\n            <p>This is a simple hero unit, a simple jumbotron-style component for calling extra attention to featured content or information.</p>\\n\\n            <p><a class="btn btn-primary btn-lg">Learn more</a></p>\\n          </div>\\n        </div>\\n      </div>\\n    </div>\\n\\n\\n    <div class="row">\\n      <div class="col-md-12">\\n        <h2>List groups</h2>\\n      </div>\\n    </div>\\n    <div class="row">\\n      <div class="col-md-4">\\n        <div class="bs-component">\\n          <div class="list-group">\\n            <div class="list-group-item">\\n              <div class="row-action-primary">\\n                <i class="material-icons">folder</i>\\n              </div>\\n              <div class="row-content">\\n                <div class="least-content">15m</div>\\n                <h4 class="list-group-item-heading">Tile with a label</h4>\\n\\n                <p class="list-group-item-text">Donec id elit non mi porta gravida at eget metus.</p>\\n              </div>\\n            </div>\\n            <div class="list-group-separator"></div>\\n            <div class="list-group-item">\\n              <div class="row-action-primary">\\n                <i class="material-icons">folder</i>\\n              </div>\\n              <div class="row-content">\\n                <div class="least-content">10m</div>\\n                <h4 class="list-group-item-heading">Tile with a label</h4>\\n\\n                <p class="list-group-item-text">Maecenas sed diam eget risus varius blandit.</p>\\n              </div>\\n            </div>\\n            <div class="list-group-separator"></div>\\n            <div class="list-group-item">\\n              <div class="row-action-primary">\\n                <i class="material-icons">folder</i>\\n              </div>\\n              <div class="row-content">\\n                <div class="action-secondary"><i class="material-icons">info</i></div>\\n                <h4 class="list-group-item-heading">Tile with an icon</h4>\\n\\n                <p class="list-group-item-text">Donec id elit non mi porta gravida at eget metus.</p>\\n              </div>\\n            </div>\\n            <div class="list-group-separator"></div>\\n          </div>\\n        </div>\\n      </div>\\n      <div class="col-md-4">\\n        <div class="bs-component">\\n          <div class="list-group list-group-no-icon">\\n            <div class="list-group-item">\\n              <div class="row-content">\\n                <div class="action-secondary"><i class="material-icons">info</i></div>\\n                <h4 class="list-group-item-heading">Tile with an icon</h4>\\n\\n                <p class="list-group-item-text">And <b>without avatar</b> on left.</p>\\n              </div>\\n            </div>\\n            <div class="list-group-separator"></div>\\n            <div class="list-group-item">\\n              <div class="row-content">\\n                <div class="action-secondary"><i class="material-icons">info</i></div>\\n                <h4 class="list-group-item-heading">Tile with an icon</h4>\\n\\n                <p class="list-group-item-text">And <b>without avatar</b> on left.</p>\\n              </div>\\n            </div>\\n            <div class="list-group-separator"></div>\\n            <div class="list-group-item">\\n              <div class="row-content">\\n                <div class="action-secondary"><i class="material-icons">info</i></div>\\n                <h4 class="list-group-item-heading">Tile with an icon</h4>\\n\\n                <p class="list-group-item-text">And <b>without avatar</b> on left.</p>\\n              </div>\\n            </div>\\n            <div class="list-group-separator"></div>\\n          </div>\\n        </div>\\n      </div>\\n      <div class="col-md-4">\\n        <div class="bs-component">\\n          <div class="list-group">\\n            <div class="list-group-item">\\n              <div class="row-picture">\\n                <img class="circle" src="http://lorempixel.com/56/56/people/1" alt="icon">\\n              </div>\\n              <div class="row-content">\\n                <h4 class="list-group-item-heading">Tile with avatar</h4>\\n\\n                <p class="list-group-item-text">Donec id elit non mi porta gravida at eget metus</p>\\n              </div>\\n            </div>\\n            <div class="list-group-separator"></div>\\n            <div class="list-group-item">\\n              <div class="row-picture">\\n                <img class="circle" src="http://lorempixel.com/56/56/people/6" alt="icon">\\n              </div>\\n              <div class="row-content">\\n                <h4 class="list-group-item-heading">Tile with another avatar</h4>\\n\\n                <p class="list-group-item-text">Maecenas sed diam eget risus varius blandit.</p>\\n              </div>\\n            </div>\\n            <div class="list-group-separator"></div>\\n            <div class="list-group-item">\\n              <div class="row-action-primary checkbox">\\n                <label><input type="checkbox"></label>\\n              </div>\\n              <div class="row-content">\\n                <h4 class="list-group-item-heading">Tile with a checkbox in it</h4>\\n\\n                <p class="list-group-item-text">Donec id elit non mi risus varius blandit.</p>\\n              </div>\\n            </div>\\n            <div class="list-group-separator"></div>\\n          </div>\\n        </div>\\n      </div>\\n    </div>\\n\\n\\n    <div class="row">\\n      <div class="col-md-12">\\n        <h2>Panels</h2>\\n      </div>\\n    </div>\\n    <div class="row">\\n      <div class="col-md-4">\\n        <div class="bs-component">\\n          <div class="panel panel-default">\\n            <div class="panel-body">\\n              Basic panel\\n            </div>\\n          </div>\\n\\n          <div class="panel panel-default">\\n            <div class="panel-heading">Panel heading</div>\\n            <div class="panel-body">\\n              Panel content\\n            </div>\\n          </div>\\n\\n          <div class="panel panel-default">\\n            <div class="panel-body">\\n              Panel content\\n            </div>\\n            <div class="panel-footer">Panel footer</div>\\n          </div>\\n        </div>\\n      </div>\\n      <div class="col-md-4">\\n        <div class="bs-component">\\n          <div class="panel panel-primary">\\n            <div class="panel-heading">\\n              <h3 class="panel-title">Panel primary</h3>\\n            </div>\\n            <div class="panel-body">\\n              Panel content\\n            </div>\\n          </div>\\n\\n          <div class="panel panel-success">\\n            <div class="panel-heading">\\n              <h3 class="panel-title">Panel success</h3>\\n            </div>\\n            <div class="panel-body">\\n              Panel content\\n            </div>\\n          </div>\\n\\n          <div class="panel panel-warning">\\n            <div class="panel-heading">\\n              <h3 class="panel-title">Panel warning</h3>\\n            </div>\\n            <div class="panel-body">\\n              Panel content\\n            </div>\\n          </div>\\n        </div>\\n      </div>\\n      <div class="col-md-4">\\n        <div class="bs-component">\\n          <div class="panel panel-danger">\\n            <div class="panel-heading">\\n              <h3 class="panel-title">Panel danger</h3>\\n            </div>\\n            <div class="panel-body">\\n              Panel content\\n            </div>\\n          </div>\\n\\n          <div class="panel panel-info">\\n            <div class="panel-heading">\\n              <h3 class="panel-title">Panel info</h3>\\n            </div>\\n            <div class="panel-body">\\n              Panel content\\n            </div>\\n          </div>\\n        </div>\\n      </div>\\n    </div>\\n\\n    <div class="row">\\n      <div class="col-md-12">\\n        <h2>Wells</h2>\\n      </div>\\n    </div>\\n    <div class="row">\\n      <div class="col-md-4">\\n        <div class="bs-component">\\n          <div class="well">\\n            Look, I\\\'m in a well!\\n          </div>\\n        </div>\\n      </div>\\n      <div class="col-md-4">\\n        <div class="bs-component">\\n          <div class="well well-sm">\\n            Look, I\\\'m in a small well!\\n          </div>\\n        </div>\\n      </div>\\n      <div class="col-md-4">\\n        <div class="bs-component">\\n          <div class="well well-lg">\\n            Look, I\\\'m in a large well!\\n          </div>\\n        </div>\\n      </div>\\n    </div>\\n  </div>\\n\\n  <!-- Dialogs\\n================================================== -->\\n  <div class="bs-docs-section">\\n\\n    <div class="row">\\n      <div class="col-md-12">\\n        <div class="page-header">\\n          <h1 id="dialogs">Dialogs</h1>\\n        </div>\\n      </div>\\n    </div>\\n    <div class="row">\\n      <div class="col-md-6">\\n        <h2>Modals</h2>\\n\\n        <div class="bs-component">\\n          <div class="modal">\\n            <div class="modal-dialog">\\n              <div class="modal-content">\\n                <div class="modal-header">\\n                  <button type="button" class="close" data-dismiss="modal" aria-hidden="true">\\xc3\\x97</button>\\n                  <h4 class="modal-title">Modal title</h4>\\n                </div>\\n                <div class="modal-body">\\n                  <p>One fine body\\xe2\\x80\\xa6</p>\\n                </div>\\n                <div class="modal-footer">\\n                  <button type="button" class="btn btn-default" data-dismiss="modal">Close</button>\\n                  <button type="button" class="btn btn-primary">Save changes</button>\\n                </div>\\n              </div>\\n            </div>\\n          </div>\\n        </div>\\n      </div>\\n      <div class="col-md-6">\\n        <h2>Popovers</h2>\\n\\n        <div class="bs-component">\\n          <button type="button" class="btn btn-default" data-container="body" data-toggle="popover" data-placement="left" data-content="Vivamus sagittis lacus vel augue laoreet rutrum faucibus.">Left</button>\\n\\n          <button type="button" class="btn btn-default" data-container="body" data-toggle="popover" data-placement="top" data-content="Vivamus sagittis lacus vel augue laoreet rutrum faucibus.">Top</button>\\n\\n          <button type="button" class="btn btn-default" data-container="body" data-toggle="popover" data-placement="bottom" data-content="Vivamus\\n                                                                                                                                                            sagittis lacus vel augue laoreet rutrum faucibus.">Bottom\\n          </button>\\n\\n          <button type="button" class="btn btn-default" data-container="body" data-toggle="popover" data-placement="right" data-content="Vivamus sagittis lacus vel augue laoreet rutrum faucibus.">Right</button>\\n        </div>\\n        <h2>Tooltips</h2>\\n\\n        <div class="bs-component">\\n          <button type="button" class="btn btn-default" data-toggle="tooltip" data-placement="left" title="" data-original-title="Tooltip on left">Left</button>\\n\\n          <button type="button" class="btn btn-default" data-toggle="tooltip" data-placement="top" title="" data-original-title="Tooltip on top">Top</button>\\n\\n          <button type="button" class="btn btn-default" data-toggle="tooltip" data-placement="bottom" title="" data-original-title="Tooltip on bottom">Bottom</button>\\n\\n          <button type="button" class="btn btn-default" data-toggle="tooltip" data-placement="right" title="" data-original-title="Tooltip on right">Right</button>\\n        </div>\\n      </div>\\n    </div>\\n    <div class="row">\\n      <div class="col-md-6">\\n        <h2>Snackbars and toasts <span style="font-size: 50%">(with SnackbarJS)</span></h2>\\n\\n        <p>SnackbarJS is the ad-hoc developed plugin to create snackbars and toasts, read more about it on the\\n          <a href="http://fezvrasta.github.io/snackbarjs/">official page</a> of the project.</p>\\n\\n        <div class="bs-component">\\n          <button type="button" class="btn btn-default" data-content="This is a snackbar! Lorem lipsum dolor sit amet..." data-toggle="snackbar" data-timeout="0">Show snackbar</button>\\n\\n          <button type="button" class="btn btn-default" data-style="toast" data-content="This is a toast! Lorem lipsum dolor sit amet..." data-toggle="snackbar" data-timeout="0">Show toast</button>\\n        </div>\\n      </div>\\n    </div>\\n  </div>\\n\\n  <div id="source-modal" class="modal fade" tabindex="-1">\\n    <div class="modal-dialog modal-lg">\\n      <div class="modal-content">\\n        <div class="modal-header">\\n          <button type="button" class="close" data-dismiss="modal" aria-hidden="true">&times;</button>\\n          <h4 class="modal-title">Source Code</h4>\\n        </div>\\n        <div class="modal-body">\\n          <pre></pre>\\n        </div>\\n      </div>\\n    </div>\\n  </div>\\n</div>\\n<br>\\n\\n\', escape=False)\nresponse.write(\'\\n\', escape=False)\nresponse.write(\'\\n        \', escape=False)\nresponse.write(\'\\n      </div>\\n\\n      \', escape=False)\nif right_sidebar_enabled:\n    response.write(\'\\n        <div class="col-md-3">\\n            \', escape=False)\n    response.write(\'\\n<div class="panel panel-info">\\n  <div class="panel-heading"><h3 class="panel-title"><a class="btn-block"\\n      href="\', escape=False)\n    response.write(URL(\'admin\',\'default\',\'index\'))\n    response.write(\'">\\n      <i class="glyphicon glyphicon-cog"></i>\\n      \', escape=False)\n    response.write(T("admin"))\n    response.write(\'\\n    </a></h3></div>\\n  <div class="panel-body">\\n    \', escape=False)\n    response.write(T("Don\'t know what to do?"))\n    response.write(\'\\n  </div>\\n  <ul class="list-group">\\n    <li class="list-group-item">\', escape=False)\n    response.write(A(T("Online examples"), _href=URL(\'examples\',\'default\',\'index\')))\n    response.write(\'</li>\\n    <li class="list-group-item"><a href="http://web2py.com">web2py.com</a></li>\\n    <li class="list-group-item"><a href="http://web2py.com/book">\', escape=False)\n    response.write(T(\'Documentation\'))\n    response.write(\'</a></li>\\n  </ul>\\n</div>\\n\', escape=False)\n    response.write(\'\\n        </div>\\n      \', escape=False)\n    pass\nresponse.write(\'\\n\\n    </div>\\n\\n    \', escape=False)\nresponse.write(\' <!-- this is default footer -->\\n    <footer class="footer">\\n      <div class="container-fluid">\\n        <div class="copyright pull-left">\', escape=False)\nresponse.write(T(\'Copyright\'))\nresponse.write(\' &#169; \', escape=False)\nresponse.write(request.now.year)\nresponse.write(\'</div>\\n          <div id="poweredBy" class="pull-right">\\n            \', escape=False)\nresponse.write(T(\'Powered by\'))\nresponse.write(\'\\n            <a href="http://www.web2py.com/">web2py</a>\\n          </div>\\n      </div>\\n    </footer>\\n    \', escape=False)\nresponse.write(\'\\n    <!-- The javascript =============================== -->\\n    <script src="\', escape=False)\nresponse.write(URL(\'static\',\'js/bootstrap.min.js\'))\nresponse.write(\'"></script>\\n    <script src="\', escape=False)\nresponse.write(URL(\'static\',\'js/web2py-bootstrap3.js\'))\nresponse.write(\'"></script>\\n    <script src="\', escape=False)\nresponse.write(URL(\'static\',\'js/ripples.min.js\'))\nresponse.write(\'"></script>\\n    <script src="\', escape=False)\nresponse.write(URL(\'static\',\'js/material.min.js\'))\nresponse.write(\'"></script>\\n    \', escape=False)\nresponse.write(\'\\n    \', escape=False)\nif response.google_analytics_id:\n    response.write(\'\\n    <!-- Analytics ==================================== -->\\n    <script src="\', escape=False)\n    response.write(URL(\'static\',\'js/analytics.min.js\'))\n    response.write(\'"></script>\\n    <script type="text/javascript">\\n      analytics.initialize({\\n      \\\'Google Analytics\\\':{trackingId:\\\'\', escape=False)\n    response.write(response.google_analytics_id)\n    response.write("\'}\\n      });\\n    </script>\\n    ", escape=False)\n    pass\nresponse.write(\'\\n    <!-- Share ============================y============ -->\\n    <script src="\', escape=False)\nresponse.write(URL(\'static\',\'js/share.js\',vars=dict(static=URL(\'static\',\'images\'))))\nresponse.write(\'"></script>\\n  </body>\\n</html>\\n\', escape=False)'
p7
sS'snapshot'
p8
(dp9
S'exception'
p10
(dp11
S'__getslice__'
p12
S"<method-wrapper '__getslice__' of exceptions.SyntaxError object>"
p13
sS'text'
p14
S'"response.write(T(\'What \'s found you?\'))\\n"'
p15
sS'__str__'
p16
S"<method-wrapper '__str__' of exceptions.SyntaxError object>"
p17
sS'__reduce__'
p18
S'<built-in method __reduce__ of exceptions.SyntaxError object>'
p19
sS'__dict__'
p20
S'{}'
p21
sS'__sizeof__'
p22
S'<built-in method __sizeof__ of exceptions.SyntaxError object>'
p23
sS'__init__'
p24
S"<method-wrapper '__init__' of exceptions.SyntaxError object>"
p25
sS'__setattr__'
p26
S"<method-wrapper '__setattr__' of exceptions.SyntaxError object>"
p27
sS'__reduce_ex__'
p28
S'<built-in method __reduce_ex__ of exceptions.SyntaxError object>'
p29
sS'__new__'
p30
S'<built-in method __new__ of type object>'
p31
sS'__format__'
p32
S'<built-in method __format__ of exceptions.SyntaxError object>'
p33
sS'__class__'
p34
S"<type 'exceptions.SyntaxError'>"
p35
sS'filename'
p36
S"'/opt/python-server/web2py-files/web2py/applications/estor3/views/default/index.html'"
p37
sS'lineno'
p38
S'69'
p39
sS'msg'
p40
S"'invalid syntax'"
p41
sS'__doc__'
p42
S"'Invalid syntax.'"
p43
sS'__getitem__'
p44
S"<method-wrapper '__getitem__' of exceptions.SyntaxError object>"
p45
sS'__setstate__'
p46
S'<built-in method __setstate__ of exceptions.SyntaxError object>'
p47
sS'__getattribute__'
p48
S"<method-wrapper '__getattribute__' of exceptions.SyntaxError object>"
p49
sS'print_file_and_line'
p50
S'None'
p51
sS'args'
p52
S'(\'invalid syntax\', (\'/opt/python-server/web2py-files/web2py/applications/estor3/views/default/index.html\', 69, 25, "response.write(T(\'What \'s found you?\'))\\n"))'
p53
sS'__subclasshook__'
p54
S'<built-in method __subclasshook__ of type object>'
p55
sS'offset'
p56
S'25'
p57
sS'__unicode__'
p58
S'<built-in method __unicode__ of exceptions.SyntaxError object>'
p59
sS'__delattr__'
p60
S"<method-wrapper '__delattr__' of exceptions.SyntaxError object>"
p61
sS'__repr__'
p62
S"<method-wrapper '__repr__' of exceptions.SyntaxError object>"
p63
sS'__hash__'
p64
S"<method-wrapper '__hash__' of exceptions.SyntaxError object>"
p65
ssS'evalue'
p66
S'invalid syntax (index.html, line 69)'
p67
sS'request'
p68
cgluon.html
XML_unpickle
p69
(S'sXo\x00\x00<div><table><tr><td style="font-weight:bold;vertical-align:top;">ajax</td><td style="vertical-align:top;">:</td><td><div>False</div></td></tr><tr><td style="font-weight:bold;vertical-align:top;">application</td><td style="vertical-align:top;">:</td><td><div>estor3</div></td></tr><tr><td style="font-weight:bold;vertical-align:top;">args</td><td style="vertical-align:top;">:</td><td><div><table></table></div></td></tr><tr><td style="font-weight:bold;vertical-align:top;">cid</td><td style="vertical-align:top;">:</td><td><div>None</div></td></tr><tr><td style="font-weight:bold;vertical-align:top;">client</td><td style="vertical-align:top;">:</td><td><div>127.0.0.1</div></td></tr><tr><td style="font-weight:bold;vertical-align:top;">controller</td><td style="vertical-align:top;">:</td><td><div>default</div></td></tr><tr><td style="font-weight:bold;vertical-align:top;">cookies</td><td style="vertical-align:top;">:</td><td><div><table><tr><td style="font-weight:bold;vertical-align:top;">session_id_admin</td><td style="vertical-align:top;">:</td><td><div>127.0.0.1-1853bbc6-d202-4d28-ac3d-4fb360ed9c8c<table><tr><td style="font-weight:bold;vertical-align:top;">comment</td><td style="vertical-align:top;">:</td><td><div></div></td></tr><tr><td style="font-weight:bold;vertical-align:top;">domain</td><td style="vertical-align:top;">:</td><td><div></div></td></tr><tr><td style="font-weight:bold;vertical-align:top;">expires</td><td style="vertical-align:top;">:</td><td><div></div></td></tr><tr><td style="font-weight:bold;vertical-align:top;">httponly</td><td style="vertical-align:top;">:</td><td><div></div></td></tr><tr><td style="font-weight:bold;vertical-align:top;">max-age</td><td style="vertical-align:top;">:</td><td><div></div></td></tr><tr><td style="font-weight:bold;vertical-align:top;">path</td><td style="vertical-align:top;">:</td><td><div></div></td></tr><tr><td style="font-weight:bold;vertical-align:top;">secure</td><td style="vertical-align:top;">:</td><td><div></div></td></tr><tr><td style="font-weight:bold;vertical-align:top;">version</td><td style="vertical-align:top;">:</td><td><div></div></td></tr></table></div></td></tr><tr><td style="font-weight:bold;vertical-align:top;">session_id_e_store</td><td style="vertical-align:top;">:</td><td><div>127.0.0.1-c10a41df-6b45-4111-9ee3-dd10a7f712f7<table><tr><td style="font-weight:bold;vertical-align:top;">comment</td><td style="vertical-align:top;">:</td><td><div></div></td></tr><tr><td style="font-weight:bold;vertical-align:top;">domain</td><td style="vertical-align:top;">:</td><td><div></div></td></tr><tr><td style="font-weight:bold;vertical-align:top;">expires</td><td style="vertical-align:top;">:</td><td><div></div></td></tr><tr><td style="font-weight:bold;vertical-align:top;">httponly</td><td style="vertical-align:top;">:</td><td><div></div></td></tr><tr><td style="font-weight:bold;vertical-align:top;">max-age</td><td style="vertical-align:top;">:</td><td><div></div></td></tr><tr><td style="font-weight:bold;vertical-align:top;">path</td><td style="vertical-align:top;">:</td><td><div></div></td></tr><tr><td style="font-weight:bold;vertical-align:top;">secure</td><td style="vertical-align:top;">:</td><td><div></div></td></tr><tr><td style="font-weight:bold;vertical-align:top;">version</td><td style="vertical-align:top;">:</td><td><div></div></td></tr></table></div></td></tr><tr><td style="font-weight:bold;vertical-align:top;">session_id_estor3</td><td style="vertical-align:top;">:</td><td><div>127.0.0.1-eba10b27-576b-41a7-884b-b9533c9d5447<table><tr><td style="font-weight:bold;vertical-align:top;">comment</td><td style="vertical-align:top;">:</td><td><div></div></td></tr><tr><td style="font-weight:bold;vertical-align:top;">domain</td><td style="vertical-align:top;">:</td><td><div></div></td></tr><tr><td style="font-weight:bold;vertical-align:top;">expires</td><td style="vertical-align:top;">:</td><td><div></div></td></tr><tr><td style="font-weight:bold;vertical-align:top;">httponly</td><td style="vertical-align:top;">:</td><td><div></div></td></tr><tr><td style="font-weight:bold;vertical-align:top;">max-age</td><td style="vertical-align:top;">:</td><td><div></div></td></tr><tr><td style="font-weight:bold;vertical-align:top;">path</td><td style="vertical-align:top;">:</td><td><div></div></td></tr><tr><td style="font-weight:bold;vertical-align:top;">secure</td><td style="vertical-align:top;">:</td><td><div></div></td></tr><tr><td style="font-weight:bold;vertical-align:top;">version</td><td style="vertical-align:top;">:</td><td><div></div></td></tr></table></div></td></tr><tr><td style="font-weight:bold;vertical-align:top;">session_id_estore</td><td style="vertical-align:top;">:</td><td><div>127.0.0.1-db467590-d520-45d7-a432-fe8f15a57d1c<table><tr><td style="font-weight:bold;vertical-align:top;">comment</td><td style="vertical-align:top;">:</td><td><div></div></td></tr><tr><td style="font-weight:bold;vertical-align:top;">domain</td><td style="vertical-align:top;">:</td><td><div></div></td></tr><tr><td style="font-weight:bold;vertical-align:top;">expires</td><td style="vertical-align:top;">:</td><td><div></div></td></tr><tr><td style="font-weight:bold;vertical-align:top;">httponly</td><td style="vertical-align:top;">:</td><td><div></div></td></tr><tr><td style="font-weight:bold;vertical-align:top;">max-age</td><td style="vertical-align:top;">:</td><td><div></div></td></tr><tr><td style="font-weight:bold;vertical-align:top;">path</td><td style="vertical-align:top;">:</td><td><div></div></td></tr><tr><td style="font-weight:bold;vertical-align:top;">secure</td><td style="vertical-align:top;">:</td><td><div></div></td></tr><tr><td style="font-weight:bold;vertical-align:top;">version</td><td style="vertical-align:top;">:</td><td><div></div></td></tr></table></div></td></tr><tr><td style="font-weight:bold;vertical-align:top;">session_id_storefront</td><td style="vertical-align:top;">:</td><td><div>127.0.0.1-4953e1ef-4c59-40d9-a513-19df9c49569d<table><tr><td style="font-weight:bold;vertical-align:top;">comment</td><td style="vertical-align:top;">:</td><td><div></div></td></tr><tr><td style="font-weight:bold;vertical-align:top;">domain</td><td style="vertical-align:top;">:</td><td><div></div></td></tr><tr><td style="font-weight:bold;vertical-align:top;">expires</td><td style="vertical-align:top;">:</td><td><div></div></td></tr><tr><td style="font-weight:bold;vertical-align:top;">httponly</td><td style="vertical-align:top;">:</td><td><div></div></td></tr><tr><td style="font-weight:bold;vertical-align:top;">max-age</td><td style="vertical-align:top;">:</td><td><div></div></td></tr><tr><td style="font-weight:bold;vertical-align:top;">path</td><td style="vertical-align:top;">:</td><td><div></div></td></tr><tr><td style="font-weight:bold;vertical-align:top;">secure</td><td style="vertical-align:top;">:</td><td><div></div></td></tr><tr><td style="font-weight:bold;vertical-align:top;">version</td><td style="vertical-align:top;">:</td><td><div></div></td></tr></table></div></td></tr><tr><td style="font-weight:bold;vertical-align:top;">session_id_welcome</td><td style="vertical-align:top;">:</td><td><div>127.0.0.1-3115bb8c-d102-40b4-9e2c-34b44f8d4b15<table><tr><td style="font-weight:bold;vertical-align:top;">comment</td><td style="vertical-align:top;">:</td><td><div></div></td></tr><tr><td style="font-weight:bold;vertical-align:top;">domain</td><td style="vertical-align:top;">:</td><td><div></div></td></tr><tr><td style="font-weight:bold;vertical-align:top;">expires</td><td style="vertical-align:top;">:</td><td><div></div></td></tr><tr><td style="font-weight:bold;vertical-align:top;">httponly</td><td style="vertical-align:top;">:</td><td><div></div></td></tr><tr><td style="font-weight:bold;vertical-align:top;">max-age</td><td style="vertical-align:top;">:</td><td><div></div></td></tr><tr><td style="font-weight:bold;vertical-align:top;">path</td><td style="vertical-align:top;">:</td><td><div></div></td></tr><tr><td style="font-weight:bold;vertical-align:top;">secure</td><td style="vertical-align:top;">:</td><td><div></div></td></tr><tr><td style="font-weight:bold;vertical-align:top;">version</td><td style="vertical-align:top;">:</td><td><div></div></td></tr></table></div></td></tr></table></div></td></tr><tr><td style="font-weight:bold;vertical-align:top;">env</td><td style="vertical-align:top;">:</td><td><div><table><tr><td style="font-weight:bold;vertical-align:top;">HTTP_ACCEPT</td><td style="vertical-align:top;">:</td><td><div>text/html,application/xhtml+xml,application/xml;q=0.9,image/webp,*/*;q=0.8</div></td></tr><tr><td style="font-weight:bold;vertical-align:top;">HTTP_ACCEPT_ENCODING</td><td style="vertical-align:top;">:</td><td><div>gzip, deflate, sdch</div></td></tr><tr><td style="font-weight:bold;vertical-align:top;">HTTP_ACCEPT_LANGUAGE</td><td style="vertical-align:top;">:</td><td><div>es-ES,es;q=0.8</div></td></tr><tr><td style="font-weight:bold;vertical-align:top;">HTTP_CACHE_CONTROL</td><td style="vertical-align:top;">:</td><td><div>max-age=0</div></td></tr><tr><td style="font-weight:bold;vertical-align:top;">HTTP_CONNECTION</td><td style="vertical-align:top;">:</td><td><div>keep-alive</div></td></tr><tr><td style="font-weight:bold;vertical-align:top;">HTTP_COOKIE</td><td style="vertical-align:top;">:</td><td><div>session_id_e_store=127.0.0.1-c10a41df-6b45-4111-9ee3-dd10a7f712f7; session_id_welcome=127.0.0.1-3115bb8c-d102-40b4-9e2c-34b44f8d4b15; session_id_estore=127.0.0.1-db467590-d520-45d7-a432-fe8f15a57d1c; session_id_estor3=127.0.0.1-eba10b27-576b-41a7-884b-b9533c9d5447; session_id_storefront=127.0.0.1-4953e1ef-4c59-40d9-a513-19df9c49569d; session_id_admin=127.0.0.1-1853bbc6-d202-4d28-ac3d-4fb360ed9c8c</div></td></tr><tr><td style="font-weight:bold;vertical-align:top;">HTTP_HOST</td><td style="vertical-align:top;">:</td><td><div>127.0.0.1:8000</div></td></tr><tr><td style="font-weight:bold;vertical-align:top;">HTTP_REFERER</td><td style="vertical-align:top;">:</td><td><div>http://127.0.0.1:8000/estor3/default/index?</div></td></tr><tr><td style="font-weight:bold;vertical-align:top;">HTTP_UPGRADE_INSECURE_REQUESTS</td><td style="vertical-align:top;">:</td><td><div>1</div></td></tr><tr><td style="font-weight:bold;vertical-align:top;">HTTP_USER_AGENT</td><td style="vertical-align:top;">:</td><td><div>Mozilla/5.0 (X11; Linux x86_64) AppleWebKit/537.36 (KHTML, like Gecko) Ubuntu Chromium/51.0.2704.79 Chrome/51.0.2704.79 Safari/537.36</div></td></tr><tr><td style="font-weight:bold;vertical-align:top;">PATH_INFO</td><td style="vertical-align:top;">:</td><td><div>/estor3/default/index</div></td></tr><tr><td style="font-weight:bold;vertical-align:top;">QUERY_STRING</td><td style="vertical-align:top;">:</td><td><div></div></td></tr><tr><td style="font-weight:bold;vertical-align:top;">REMOTE_ADDR</td><td style="vertical-align:top;">:</td><td><div>127.0.0.1</div></td></tr><tr><td style="font-weight:bold;vertical-align:top;">REMOTE_PORT</td><td style="vertical-align:top;">:</td><td><div>38398</div></td></tr><tr><td style="font-weight:bold;vertical-align:top;">REQUEST_METHOD</td><td style="vertical-align:top;">:</td><td><div>GET</div></td></tr><tr><td style="font-weight:bold;vertical-align:top;">SCRIPT_NAME</td><td style="vertical-align:top;">:</td><td><div></div></td></tr><tr><td style="font-weight:bold;vertical-align:top;">SERVER_NAME</td><td style="vertical-align:top;">:</td><td><div>yasmany-TP500LAB</div></td></tr><tr><td style="font-weight:bold;vertical-align:top;">SERVER_PORT</td><td style="vertical-align:top;">:</td><td><div>8000</div></td></tr><tr><td style="font-weight:bold;vertical-align:top;">SERVER_PROTOCOL</td><td style="vertical-align:top;">:</td><td><div>HTTP/1.1</div></td></tr><tr><td style="font-weight:bold;vertical-align:top;">SERVER_SOFTWARE</td><td style="vertical-align:top;">:</td><td><div>Rocket 1.2.6</div></td></tr><tr><td style="font-weight:bold;vertical-align:top;">app_folders</td><td style="vertical-align:top;">:</td><td><div>set([&#x27;/opt/python-server/web2py-files/web2py/applications/store_book/&#x27;, &#x27;/opt/python-server/web2py-files/web2py/applications/admin/&#x27;, &#x27;/opt/python-server/web2py-files/web2py/applications/welcome/&#x27;, &#x27;/opt/python-server/web2py-files/web2py/applications/estor3/&#x27;, &#x27;/opt/python-server/web2py-files/web2py/applications/estore/&#x27;, &#x27;/opt/python-server/web2py-files/web2py/applications/storefront/&#x27;])</div></td></tr><tr><td style="font-weight:bold;vertical-align:top;">applications_parent</td><td style="vertical-align:top;">:</td><td><div>/opt/python-server/web2py-files/web2py</div></td></tr><tr><td style="font-weight:bold;vertical-align:top;">cmd_args</td><td style="vertical-align:top;">:</td><td><div><table></table></div></td></tr><tr><td style="font-weight:bold;vertical-align:top;">cmd_options</td><td style="vertical-align:top;">:</td><td><div>&lt;Values at 0x7f43e4eb1b00: {&#x27;verbose&#x27;: False, &#x27;ip&#x27;: &#x27;127.0.0.1&#x27;, &#x27;debuglevel&#x27;: 30, &#x27;with_scheduler&#x27;: False, &#x27;shutdown_timeout&#x27;: 5, &#x27;taskbar&#x27;: False, &#x27;with_coverage&#x27;: False, &#x27;pid_filename&#x27;: &#x27;httpserver.pid&#x27;, &#x27;maxthreads&#x27;: None, &#x27;softcron&#x27;: False, &#x27;server_name&#x27;: &#x27;yasmany-TP500LAB&#x27;, &#x27;bpython&#x27;: False, &#x27;nogui&#x27;: False, &#x27;port&#x27;: 8000, &#x27;print_errors&#x27;: False, &#x27;extcron&#x27;: False, &#x27;runcron&#x27;: False, &#x27;run_system_tests&#x27;: False, &#x27;test&#x27;: None, &#x27;folder&#x27;: &#x27;/opt/python-server/web2py-files/web2py&#x27;, &#x27;config&#x27;: &#x27;&#x27;, &#x27;minthreads&#x27;: None, &#x27;shell&#x27;: None, &#x27;run&#x27;: &#x27;&#x27;, &#x27;log_filename&#x27;: &#x27;httpserver.log&#x27;, &#x27;profiler_dir&#x27;: None, &#x27;args&#x27;: [&#x27;&#x27;], &#x27;socket_timeout&#x27;: 5, &#x27;ssl_ca_certificate&#x27;: None, &#x27;scheduler&#x27;: None, &#x27;interfaces&#x27;: None, &#x27;ssl_private_key&#x27;: &#x27;&#x27;, &#x27;gae&#x27;: None, &#x27;password&#x27;: &#x27;******&#x27;, &#x27;request_queue_size&#x27;: 5, &#x27;ssl_certificate&#x27;: &#x27;&#x27;, &#x27;cronjob&#x27;: False, &#x27;numthreads&#x27;: None, &#x27;quiet&#x27;: False, &#x27;import_models&#x27;: False, &#x27;timeout&#x27;: 10, &#x27;plain&#x27;: False, &#x27;nobanner&#x27;: False}&gt;</div></td></tr><tr><td style="font-weight:bold;vertical-align:top;">db_sessions</td><td style="vertical-align:top;">:</td><td><div>set([&#x27;store_book&#x27;])</div></td></tr><tr><td style="font-weight:bold;vertical-align:top;">debugging</td><td style="vertical-align:top;">:</td><td><div>True</div></td></tr><tr><td style="font-weight:bold;vertical-align:top;">gluon_parent</td><td style="vertical-align:top;">:</td><td><div>/opt/python-server/web2py-files/web2py</div></td></tr><tr><td style="font-weight:bold;vertical-align:top;">http_accept</td><td style="vertical-align:top;">:</td><td><div>text/html,application/xhtml+xml,application/xml;q=0.9,image/webp,*/*;q=0.8</div></td></tr><tr><td style="font-weight:bold;vertical-align:top;">http_accept_encoding</td><td style="vertical-align:top;">:</td><td><div>gzip, deflate, sdch</div></td></tr><tr><td style="font-weight:bold;vertical-align:top;">http_accept_language</td><td style="vertical-align:top;">:</td><td><div>es-ES,es;q=0.8</div></td></tr><tr><td style="font-weight:bold;vertical-align:top;">http_cache_control</td><td style="vertical-align:top;">:</td><td><div>max-age=0</div></td></tr><tr><td style="font-weight:bold;vertical-align:top;">http_connection</td><td style="vertical-align:top;">:</td><td><div>keep-alive</div></td></tr><tr><td style="font-weight:bold;vertical-align:top;">http_cookie</td><td style="vertical-align:top;">:</td><td><div>session_id_e_store=127.0.0.1-c10a41df-6b45-4111-9ee3-dd10a7f712f7; session_id_welcome=127.0.0.1-3115bb8c-d102-40b4-9e2c-34b44f8d4b15; session_id_estore=127.0.0.1-db467590-d520-45d7-a432-fe8f15a57d1c; session_id_estor3=127.0.0.1-eba10b27-576b-41a7-884b-b9533c9d5447; session_id_storefront=127.0.0.1-4953e1ef-4c59-40d9-a513-19df9c49569d; session_id_admin=127.0.0.1-1853bbc6-d202-4d28-ac3d-4fb360ed9c8c</div></td></tr><tr><td style="font-weight:bold;vertical-align:top;">http_host</td><td style="vertical-align:top;">:</td><td><div>127.0.0.1:8000</div></td></tr><tr><td style="font-weight:bold;vertical-align:top;">http_referer</td><td style="vertical-align:top;">:</td><td><div>http://127.0.0.1:8000/estor3/default/index?</div></td></tr><tr><td style="font-weight:bold;vertical-align:top;">http_upgrade_insecure_requests</td><td style="vertical-align:top;">:</td><td><div>1</div></td></tr><tr><td style="font-weight:bold;vertical-align:top;">http_user_agent</td><td style="vertical-align:top;">:</td><td><div>Mozilla/5.0 (X11; Linux x86_64) AppleWebKit/537.36 (KHTML, like Gecko) Ubuntu Chromium/51.0.2704.79 Chrome/51.0.2704.79 Safari/537.36</div></td></tr><tr><td style="font-weight:bold;vertical-align:top;">is_jython</td><td style="vertical-align:top;">:</td><td><div>False</div></td></tr><tr><td style="font-weight:bold;vertical-align:top;">is_pypy</td><td style="vertical-align:top;">:</td><td><div>False</div></td></tr><tr><td style="font-weight:bold;vertical-align:top;">is_source</td><td style="vertical-align:top;">:</td><td><div>True</div></td></tr><tr><td style="font-weight:bold;vertical-align:top;">local_hosts</td><td style="vertical-align:top;">:</td><td><div><table><tr><td><div>127.0.1.1</div></td></tr><tr><td><div>::1</div></td></tr><tr><td><div>yasmany-TP500LAB</div></td></tr><tr><td><div>::ffff:127.0.0.1</div></td></tr><tr><td><div>127.0.0.1</div></td></tr></table></div></td></tr><tr><td style="font-weight:bold;vertical-align:top;">path_info</td><td style="vertical-align:top;">:</td><td><div>/estor3/default/index</div></td></tr><tr><td style="font-weight:bold;vertical-align:top;">query_string</td><td style="vertical-align:top;">:</td><td><div></div></td></tr><tr><td style="font-weight:bold;vertical-align:top;">remote_addr</td><td style="vertical-align:top;">:</td><td><div>127.0.0.1</div></td></tr><tr><td style="font-weight:bold;vertical-align:top;">remote_port</td><td style="vertical-align:top;">:</td><td><div>38398</div></td></tr><tr><td style="font-weight:bold;vertical-align:top;">request_method</td><td style="vertical-align:top;">:</td><td><div>GET</div></td></tr><tr><td style="font-weight:bold;vertical-align:top;">request_uri</td><td style="vertical-align:top;">:</td><td><div>/estor3/default/index</div></td></tr><tr><td style="font-weight:bold;vertical-align:top;">script_name</td><td style="vertical-align:top;">:</td><td><div></div></td></tr><tr><td style="font-weight:bold;vertical-align:top;">server_name</td><td style="vertical-align:top;">:</td><td><div>yasmany-TP500LAB</div></td></tr><tr><td style="font-weight:bold;vertical-align:top;">server_port</td><td style="vertical-align:top;">:</td><td><div>8000</div></td></tr><tr><td style="font-weight:bold;vertical-align:top;">server_protocol</td><td style="vertical-align:top;">:</td><td><div>HTTP/1.1</div></td></tr><tr><td style="font-weight:bold;vertical-align:top;">server_software</td><td style="vertical-align:top;">:</td><td><div>Rocket 1.2.6</div></td></tr><tr><td style="font-weight:bold;vertical-align:top;">web2py_path</td><td style="vertical-align:top;">:</td><td><div>/opt/python-server/web2py-files/web2py</div></td></tr><tr><td style="font-weight:bold;vertical-align:top;">web2py_version</td><td style="vertical-align:top;">:</td><td><div>2.14.6-stable+timestamp.2016.05.10.00.21.47</div></td></tr><tr><td style="font-weight:bold;vertical-align:top;">wsgi.errors</td><td style="vertical-align:top;">:</td><td><div>&lt;open file &#x27;&lt;stderr&gt;&#x27;, mode &#x27;w&#x27; at 0x7f43ec07c1e0&gt;</div></td></tr><tr><td style="font-weight:bold;vertical-align:top;">wsgi.file_wrapper</td><td style="vertical-align:top;">:</td><td><div>&lt;class wsgiref.util.FileWrapper at 0x7f43e4f45ef0&gt;</div></td></tr><tr><td style="font-weight:bold;vertical-align:top;">wsgi.input</td><td style="vertical-align:top;">:</td><td><div>&lt;socket._fileobject object at 0x7f43c845f150&gt;</div></td></tr><tr><td style="font-weight:bold;vertical-align:top;">wsgi.multiprocess</td><td style="vertical-align:top;">:</td><td><div>False</div></td></tr><tr><td style="font-weight:bold;vertical-align:top;">wsgi.multithread</td><td style="vertical-align:top;">:</td><td><div>True</div></td></tr><tr><td style="font-weight:bold;vertical-align:top;">wsgi.run_once</td><td style="vertical-align:top;">:</td><td><div>False</div></td></tr><tr><td style="font-weight:bold;vertical-align:top;">wsgi.url_scheme</td><td style="vertical-align:top;">:</td><td><div>http</div></td></tr><tr><td style="font-weight:bold;vertical-align:top;">wsgi.version</td><td style="vertical-align:top;">:</td><td><div><table><tr><td><div>1</div></td></tr><tr><td><div>0</div></td></tr></table></div></td></tr><tr><td style="font-weight:bold;vertical-align:top;">wsgi_errors</td><td style="vertical-align:top;">:</td><td><div>&lt;open file &#x27;&lt;stderr&gt;&#x27;, mode &#x27;w&#x27; at 0x7f43ec07c1e0&gt;</div></td></tr><tr><td style="font-weight:bold;vertical-align:top;">wsgi_file_wrapper</td><td style="vertical-align:top;">:</td><td><div>&lt;class wsgiref.util.FileWrapper at 0x7f43e4f45ef0&gt;</div></td></tr><tr><td style="font-weight:bold;vertical-align:top;">wsgi_input</td><td style="vertical-align:top;">:</td><td><div>&lt;socket._fileobject object at 0x7f43c845f150&gt;</div></td></tr><tr><td style="font-weight:bold;vertical-align:top;">wsgi_multiprocess</td><td style="vertical-align:top;">:</td><td><div>False</div></td></tr><tr><td style="font-weight:bold;vertical-align:top;">wsgi_multithread</td><td style="vertical-align:top;">:</td><td><div>True</div></td></tr><tr><td style="font-weight:bold;vertical-align:top;">wsgi_run_once</td><td style="vertical-align:top;">:</td><td><div>False</div></td></tr><tr><td style="font-weight:bold;vertical-align:top;">wsgi_url_scheme</td><td style="vertical-align:top;">:</td><td><div>http</div></td></tr><tr><td style="font-weight:bold;vertical-align:top;">wsgi_version</td><td style="vertical-align:top;">:</td><td><div><table><tr><td><div>1</div></td></tr><tr><td><div>0</div></td></tr></table></div></td></tr></table></div></td></tr><tr><td style="font-weight:bold;vertical-align:top;">extension</td><td style="vertical-align:top;">:</td><td><div>html</div></td></tr><tr><td style="font-weight:bold;vertical-align:top;">folder</td><td style="vertical-align:top;">:</td><td><div>/opt/python-server/web2py-files/web2py/applications/estor3/</div></td></tr><tr><td style="font-weight:bold;vertical-align:top;">function</td><td style="vertical-align:top;">:</td><td><div>index</div></td></tr><tr><td style="font-weight:bold;vertical-align:top;">global_settings</td><td style="vertical-align:top;">:</td><td><div><table><tr><td style="font-weight:bold;vertical-align:top;">app_folders</td><td style="vertical-align:top;">:</td><td><div>set([&#x27;/opt/python-server/web2py-files/web2py/applications/store_book/&#x27;, &#x27;/opt/python-server/web2py-files/web2py/applications/admin/&#x27;, &#x27;/opt/python-server/web2py-files/web2py/applications/welcome/&#x27;, &#x27;/opt/python-server/web2py-files/web2py/applications/estor3/&#x27;, &#x27;/opt/python-server/web2py-files/web2py/applications/estore/&#x27;, &#x27;/opt/python-server/web2py-files/web2py/applications/storefront/&#x27;])</div></td></tr><tr><td style="font-weight:bold;vertical-align:top;">applications_parent</td><td style="vertical-align:top;">:</td><td><div>/opt/python-server/web2py-files/web2py</div></td></tr><tr><td style="font-weight:bold;vertical-align:top;">cmd_args</td><td style="vertical-align:top;">:</td><td><div><table></table></div></td></tr><tr><td style="font-weight:bold;vertical-align:top;">cmd_options</td><td style="vertical-align:top;">:</td><td><div>&lt;Values at 0x7f43e4eb1b00: {&#x27;verbose&#x27;: False, &#x27;ip&#x27;: &#x27;127.0.0.1&#x27;, &#x27;debuglevel&#x27;: 30, &#x27;with_scheduler&#x27;: False, &#x27;shutdown_timeout&#x27;: 5, &#x27;taskbar&#x27;: False, &#x27;with_coverage&#x27;: False, &#x27;pid_filename&#x27;: &#x27;httpserver.pid&#x27;, &#x27;maxthreads&#x27;: None, &#x27;softcron&#x27;: False, &#x27;server_name&#x27;: &#x27;yasmany-TP500LAB&#x27;, &#x27;bpython&#x27;: False, &#x27;nogui&#x27;: False, &#x27;port&#x27;: 8000, &#x27;print_errors&#x27;: False, &#x27;extcron&#x27;: False, &#x27;runcron&#x27;: False, &#x27;run_system_tests&#x27;: False, &#x27;test&#x27;: None, &#x27;folder&#x27;: &#x27;/opt/python-server/web2py-files/web2py&#x27;, &#x27;config&#x27;: &#x27;&#x27;, &#x27;minthreads&#x27;: None, &#x27;shell&#x27;: None, &#x27;run&#x27;: &#x27;&#x27;, &#x27;log_filename&#x27;: &#x27;httpserver.log&#x27;, &#x27;profiler_dir&#x27;: None, &#x27;args&#x27;: [&#x27;&#x27;], &#x27;socket_timeout&#x27;: 5, &#x27;ssl_ca_certificate&#x27;: None, &#x27;scheduler&#x27;: None, &#x27;interfaces&#x27;: None, &#x27;ssl_private_key&#x27;: &#x27;&#x27;, &#x27;gae&#x27;: None, &#x27;password&#x27;: &#x27;******&#x27;, &#x27;request_queue_size&#x27;: 5, &#x27;ssl_certificate&#x27;: &#x27;&#x27;, &#x27;cronjob&#x27;: False, &#x27;numthreads&#x27;: None, &#x27;quiet&#x27;: False, &#x27;import_models&#x27;: False, &#x27;timeout&#x27;: 10, &#x27;plain&#x27;: False, &#x27;nobanner&#x27;: False}&gt;</div></td></tr><tr><td style="font-weight:bold;vertical-align:top;">db_sessions</td><td style="vertical-align:top;">:</td><td><div>set([&#x27;store_book&#x27;])</div></td></tr><tr><td style="font-weight:bold;vertical-align:top;">debugging</td><td style="vertical-align:top;">:</td><td><div>True</div></td></tr><tr><td style="font-weight:bold;vertical-align:top;">gluon_parent</td><td style="vertical-align:top;">:</td><td><div>/opt/python-server/web2py-files/web2py</div></td></tr><tr><td style="font-weight:bold;vertical-align:top;">is_jython</td><td style="vertical-align:top;">:</td><td><div>False</div></td></tr><tr><td style="font-weight:bold;vertical-align:top;">is_pypy</td><td style="vertical-align:top;">:</td><td><div>False</div></td></tr><tr><td style="font-weight:bold;vertical-align:top;">is_source</td><td style="vertical-align:top;">:</td><td><div>True</div></td></tr><tr><td style="font-weight:bold;vertical-align:top;">local_hosts</td><td style="vertical-align:top;">:</td><td><div><table><tr><td><div>127.0.1.1</div></td></tr><tr><td><div>::1</div></td></tr><tr><td><div>yasmany-TP500LAB</div></td></tr><tr><td><div>::ffff:127.0.0.1</div></td></tr><tr><td><div>127.0.0.1</div></td></tr></table></div></td></tr><tr><td style="font-weight:bold;vertical-align:top;">web2py_version</td><td style="vertical-align:top;">:</td><td><div>2.14.6-stable+timestamp.2016.05.10.00.21.47</div></td></tr></table></div></td></tr><tr><td style="font-weight:bold;vertical-align:top;">is_https</td><td style="vertical-align:top;">:</td><td><div>False</div></td></tr><tr><td style="font-weight:bold;vertical-align:top;">is_local</td><td style="vertical-align:top;">:</td><td><div>True</div></td></tr><tr><td style="font-weight:bold;vertical-align:top;">is_restful</td><td style="vertical-align:top;">:</td><td><div>False</div></td></tr><tr><td style="font-weight:bold;vertical-align:top;">is_scheduler</td><td style="vertical-align:top;">:</td><td><div>False</div></td></tr><tr><td style="font-weight:bold;vertical-align:top;">is_shell</td><td style="vertical-align:top;">:</td><td><div>False</div></td></tr><tr><td style="font-weight:bold;vertical-align:top;">now</td><td style="vertical-align:top;">:</td><td><div>datetime.datetime(2016, 9, 17, 10, 9, 41, 436034)</div></td></tr><tr><td style="font-weight:bold;vertical-align:top;">raw_args</td><td style="vertical-align:top;">:</td><td><div></div></td></tr><tr><td style="font-weight:bold;vertical-align:top;">raw_extension</td><td style="vertical-align:top;">:</td><td><div>None</div></td></tr><tr><td style="font-weight:bold;vertical-align:top;">url</td><td style="vertical-align:top;">:</td><td><div>/estor3/default/index</div></td></tr><tr><td style="font-weight:bold;vertical-align:top;">utcnow</td><td style="vertical-align:top;">:</td><td><div>datetime.datetime(2016, 9, 17, 14, 9, 41, 436061)</div></td></tr><tr><td style="font-weight:bold;vertical-align:top;">wsgi</td><td style="vertical-align:top;">:</td><td><div>&lt;gluon.main.LazyWSGI object at 0x7f43a7224b90&gt;</div></td></tr></table></div>'
tRp70
sS'frames'
p71
(lp72
(dp73
S'file'
p74
S'/opt/python-server/web2py-files/web2py/gluon/restricted.py'
p75
sS'dump'
p76
(dp77
S'code'
p78
S'\'left_sidebar_enabled,right_sidebar_enabled=False..."></script>\\\\n  </body>\\\\n</html>\\\\n\\\', escape=False)\''
p79
sS'layer'
p80
S"'/opt/python-server/web2py-files/web2py/applications/estor3/views/default/index.html'"
p81
sS'global compile2'
p82
S'<function compile2>'
p83
sS'ccode'
p84
S'undefined'
p85
ssS'lnum'
p86
I226
sS'lines'
p87
(dp88
I224
S'            ccode = code'
p89
sI225
S'        else:'
p90
sI226
S'            ccode = compile2(code, layer)'
p91
sI227
S'        exec ccode in environment'
p92
sI228
S'    except HTTP:'
p93
sI229
S'        raise'
p94
sI230
S'    except RestrictedError:'
p95
sI221
S"    environment['__name__'] = '__restricted__'"
p96
sI222
S'    try:'
p97
sI223
S'        if isinstance(code, types.CodeType):'
p98
ssS'call'
p99
S'(code=\'left_sidebar_enabled,right_sidebar_enabled=False..."></script>\\\\n  </body>\\\\n</html>\\\\n\\\', escape=False)\', environment={\'A\': <class \'gluon.html.A\'>, \'ANY_OF\': <class \'gluon.validators.ANY_OF\'>, \'ASSIGNJS\': <function ASSIGNJS>, \'AppConfig\': <function AppConfig>, \'Auth\': <class \'gluon.tools.Auth\'>, \'B\': <class \'gluon.html.B\'>, \'BEAUTIFY\': <class \'gluon.html.BEAUTIFY\'>, \'BODY\': <class \'gluon.html.BODY\'>, \'BR\': <class \'gluon.html.BR\'>, \'BUTTON\': <class \'gluon.html.BUTTON\'>, ...}, layer=\'/opt/python-server/web2py-files/web2py/applications/estor3/views/default/index.html\')'
p100
sS'func'
p101
S'restricted'
p102
sa(dp103
g74
S'/opt/python-server/web2py-files/web2py/gluon/restricted.py'
p104
sg76
(dp105
S'builtincompile'
p106
S'<built-in function compile>'
p107
sS'code'
p108
S'\'left_sidebar_enabled,right_sidebar_enabled=False..."></script>\\\\n  </body>\\\\n</html>\\\\n\\\', escape=False)\''
p109
sS'code.rstrip'
p110
S'<built-in method rstrip of str object>'
p111
sS').replace'
p112
g85
sS'layer'
p113
S"'/opt/python-server/web2py-files/web2py/applications/estor3/views/default/index.html'"
p114
ssg86
I209
sg87
(dp115
I204
S'def compile2(code, layer):'
p116
sI205
S'    """'
p117
sI206
S"    The ``+'\\\\n'`` is necessary else compile fails when code ends in a comment."
p118
sI207
S'    """'
p119
sI208
S''
sI209
S"    return compile(code.rstrip().replace('\\r\\n', '\\n') + '\\n', layer, 'exec')"
p120
sI210
S''
sI211
S''
sI212
S"def restricted(code, environment=None, layer='Unknown'):"
p121
sI213
S'    """'
p122
ssg99
S'(code=\'left_sidebar_enabled,right_sidebar_enabled=False..."></script>\\\\n  </body>\\\\n</html>\\\\n\\\', escape=False)\', layer=\'/opt/python-server/web2py-files/web2py/applications/estor3/views/default/index.html\')'
p123
sg101
S'compile2'
p124
sasS'pyver'
p125
S'Python 2.7.12: /usr/bin/python2 (prefix: /usr)'
p126
sS'session'
p127
g69
(S's\x9c\x00\x00\x00<div><table><tr><td style="font-weight:bold;vertical-align:top;">flash</td><td style="vertical-align:top;">:</td><td><div>None</div></td></tr></table></div>'
tRp128
sS'etype'
p129
S"<type 'exceptions.SyntaxError'>"
p130
sS'date'
p131
S'Sat Sep 17 10:09:41 2016'
p132
sS'response'
p133
g69
(S'sx \x00\x00<div><table><tr><td style="font-weight:bold;vertical-align:top;">body</td><td style="vertical-align:top;">:</td><td><div>&lt;cStringIO.StringO object at 0x7f43a7482bc8&gt;</div></td></tr><tr><td style="font-weight:bold;vertical-align:top;">cookies</td><td style="vertical-align:top;">:</td><td><div><table><tr><td style="font-weight:bold;vertical-align:top;">session_id_estor3</td><td style="vertical-align:top;">:</td><td><div>127.0.0.1-eba10b27-576b-41a7-884b-b9533c9d5447<table><tr><td style="font-weight:bold;vertical-align:top;">comment</td><td style="vertical-align:top;">:</td><td><div></div></td></tr><tr><td style="font-weight:bold;vertical-align:top;">domain</td><td style="vertical-align:top;">:</td><td><div></div></td></tr><tr><td style="font-weight:bold;vertical-align:top;">expires</td><td style="vertical-align:top;">:</td><td><div></div></td></tr><tr><td style="font-weight:bold;vertical-align:top;">httponly</td><td style="vertical-align:top;">:</td><td><div></div></td></tr><tr><td style="font-weight:bold;vertical-align:top;">max-age</td><td style="vertical-align:top;">:</td><td><div></div></td></tr><tr><td style="font-weight:bold;vertical-align:top;">path</td><td style="vertical-align:top;">:</td><td><div>/</div></td></tr><tr><td style="font-weight:bold;vertical-align:top;">secure</td><td style="vertical-align:top;">:</td><td><div></div></td></tr><tr><td style="font-weight:bold;vertical-align:top;">version</td><td style="vertical-align:top;">:</td><td><div></div></td></tr></table></div></td></tr></table></div></td></tr><tr><td style="font-weight:bold;vertical-align:top;">delimiters</td><td style="vertical-align:top;">:</td><td><div><table><tr><td><div>{{</div></td></tr><tr><td><div>}}</div></td></tr></table></div></td></tr><tr><td style="font-weight:bold;vertical-align:top;">files</td><td style="vertical-align:top;">:</td><td><div><table></table></div></td></tr><tr><td style="font-weight:bold;vertical-align:top;">flash</td><td style="vertical-align:top;">:</td><td><div>Hola Mundo</div></td></tr><tr><td style="font-weight:bold;vertical-align:top;">form_label_separator</td><td style="vertical-align:top;">:</td><td><div></div></td></tr><tr><td style="font-weight:bold;vertical-align:top;">formstyle</td><td style="vertical-align:top;">:</td><td><div>bootstrap3_inline</div></td></tr><tr><td style="font-weight:bold;vertical-align:top;">generic_patterns</td><td style="vertical-align:top;">:</td><td><div><table><tr><td><div>*</div></td></tr></table></div></td></tr><tr><td style="font-weight:bold;vertical-align:top;">google_analytics_id</td><td style="vertical-align:top;">:</td><td><div>None</div></td></tr><tr><td style="font-weight:bold;vertical-align:top;">headers</td><td style="vertical-align:top;">:</td><td><div><table><tr><td style="font-weight:bold;vertical-align:top;">X-Powered-By</td><td style="vertical-align:top;">:</td><td><div>web2py</div></td></tr></table></div></td></tr><tr><td style="font-weight:bold;vertical-align:top;">logo</td><td style="vertical-align:top;">:</td><td><div><a class="navbar-brand" href="http://www.web2py.com/" id="web2py-logo">Brand&trade;&nbsp;</a></div></td></tr><tr><td style="font-weight:bold;vertical-align:top;">menu</td><td style="vertical-align:top;">:</td><td><div><table><tr><td><div><table><tr><td><div>Inicio</div></td></tr><tr><td><div>False</div></td></tr><tr><td><div>/estor3/default/index</div></td></tr><tr><td><div><table></table></div></td></tr></table></div></td></tr><tr><td><div><table><tr><td><div>Comunidad</div></td></tr><tr><td><div>False</div></td></tr><tr><td><div>None</div></td></tr><tr><td><div><table><tr><td><div><table><tr><td><div>Grupos</div></td></tr><tr><td><div>False</div></td></tr><tr><td><div>http://www.web2py.com/examples/default/usergroups</div></td></tr></table></div></td></tr><tr><td><div><table><tr><td><div>Twitter</div></td></tr><tr><td><div>False</div></td></tr><tr><td><div>http://twitter.com/web2py</div></td></tr></table></div></td></tr><tr><td><div><table><tr><td><div>Chat en vivo</div></td></tr><tr><td><div>False</div></td></tr><tr><td><div>http://webchat.freenode.net/?channels=web2py</div></td></tr></table></div></td></tr></table></div></td></tr></table></div></td></tr></table></div></td></tr><tr><td style="font-weight:bold;vertical-align:top;">meta</td><td style="vertical-align:top;">:</td><td><div><table><tr><td style="font-weight:bold;vertical-align:top;">author</td><td style="vertical-align:top;">:</td><td><div>Your Name &lt;you@example.com&gt;</div></td></tr><tr><td style="font-weight:bold;vertical-align:top;">description</td><td style="vertical-align:top;">:</td><td><div>a cool new app</div></td></tr><tr><td style="font-weight:bold;vertical-align:top;">generator</td><td style="vertical-align:top;">:</td><td><div>Web2py Web Framework</div></td></tr><tr><td style="font-weight:bold;vertical-align:top;">keywords</td><td style="vertical-align:top;">:</td><td><div><table><tr><td><div>web2py</div></td></tr><tr><td><div>python</div></td></tr><tr><td><div>framework</div></td></tr></table></div></td></tr></table></div></td></tr><tr><td style="font-weight:bold;vertical-align:top;">models_to_run</td><td style="vertical-align:top;">:</td><td><div><table><tr><td><div>^\\w+\\.py$</div></td></tr><tr><td><div>^default/\\w+\\.py$</div></td></tr><tr><td><div>^default/index/\\w+\\.py$</div></td></tr></table></div></td></tr><tr><td style="font-weight:bold;vertical-align:top;">postprocessing</td><td style="vertical-align:top;">:</td><td><div><table></table></div></td></tr><tr><td style="font-weight:bold;vertical-align:top;">session_client</td><td style="vertical-align:top;">:</td><td><div>127.0.0.1</div></td></tr><tr><td style="font-weight:bold;vertical-align:top;">session_cookie_compression_level</td><td style="vertical-align:top;">:</td><td><div>None</div></td></tr><tr><td style="font-weight:bold;vertical-align:top;">session_cookie_expires</td><td style="vertical-align:top;">:</td><td><div>None</div></td></tr><tr><td style="font-weight:bold;vertical-align:top;">session_data_name</td><td style="vertical-align:top;">:</td><td><div>session_data_estor3</div></td></tr><tr><td style="font-weight:bold;vertical-align:top;">session_file</td><td style="vertical-align:top;">:</td><td><div>&lt;open file &#x27;/opt/python-server/web2py-files/web2py/applications/estor3/sessions/048/1c1/127.0.0.1-eba10b27-576b-41a7-884b-b9533c9d5447&#x27;, mode &#x27;rb+&#x27; at 0x7f43c85af6f0&gt;</div></td></tr><tr><td style="font-weight:bold;vertical-align:top;">session_filename</td><td style="vertical-align:top;">:</td><td><div>/opt/python-server/web2py-files/web2py/applications/estor3/sessions/127.0.0.1-eba10b27-576b-41a7-884b-b9533c9d5447</div></td></tr><tr><td style="font-weight:bold;vertical-align:top;">session_hash</td><td style="vertical-align:top;">:</td><td><div>bd5b71b12c5011f46c5830ce262d92c5</div></td></tr><tr><td style="font-weight:bold;vertical-align:top;">session_id</td><td style="vertical-align:top;">:</td><td><div>127.0.0.1-eba10b27-576b-41a7-884b-b9533c9d5447</div></td></tr><tr><td style="font-weight:bold;vertical-align:top;">session_id_name</td><td style="vertical-align:top;">:</td><td><div>session_id_estor3</div></td></tr><tr><td style="font-weight:bold;vertical-align:top;">session_locked</td><td style="vertical-align:top;">:</td><td><div>True</div></td></tr><tr><td style="font-weight:bold;vertical-align:top;">session_masterapp</td><td style="vertical-align:top;">:</td><td><div>estor3</div></td></tr><tr><td style="font-weight:bold;vertical-align:top;">session_new</td><td style="vertical-align:top;">:</td><td><div>False</div></td></tr><tr><td style="font-weight:bold;vertical-align:top;">session_storage_type</td><td style="vertical-align:top;">:</td><td><div>file</div></td></tr><tr><td style="font-weight:bold;vertical-align:top;">status</td><td style="vertical-align:top;">:</td><td><div>200</div></td></tr><tr><td style="font-weight:bold;vertical-align:top;">subtitle</td><td style="vertical-align:top;">:</td><td><div></div></td></tr><tr><td style="font-weight:bold;vertical-align:top;">title</td><td style="vertical-align:top;">:</td><td><div>Estor3</div></td></tr><tr><td style="font-weight:bold;vertical-align:top;">view</td><td style="vertical-align:top;">:</td><td><div>default/index.html</div></td></tr></table></div>'
tRp134
sS'locals'
p135
(dp136
g4
S"'/opt/python-server/web2py-files/web2py/applications/estor3/views/default/index.html'"
p137
sg6
S'\'left_sidebar_enabled,right_sidebar_enabled=False..."></script>\\\\n  </body>\\\\n</html>\\\\n\\\', escape=False)\''
p138
sssS'traceback'
p139
S'Traceback (most recent call last):\n  File "/opt/python-server/web2py-files/web2py/gluon/restricted.py", line 226, in restricted\n    ccode = compile2(code, layer)\n  File "/opt/python-server/web2py-files/web2py/gluon/restricted.py", line 209, in compile2\n    return compile(code.rstrip().replace(\'\\r\\n\', \'\\n\') + \'\\n\', layer, \'exec\')\n  File "/opt/python-server/web2py-files/web2py/applications/estor3/views/default/index.html", line 69\n    response.write(T(\'What \'s found you?\'))\n                            ^\nSyntaxError: invalid syntax\n'
p140
s.