(dp1
S'output'
p2
S"<type 'exceptions.NameError'> name 'left_sidebar_enabled' is not defined"
p3
sS'layer'
p4
S'/opt/python/web2py-files/web2py/applications/proyect/views/default/user.html'
p5
sS'code'
p6
S'response.write(\'<!DOCTYPE html>\\n<!--[if (gt IE 9)|!(IE)]><!--> <html class="no-js" lang="\', escape=False)\nresponse.write(T.accepted_language or \'en\')\nresponse.write(\'"> <!--<![endif]-->\\n  <head>\\n    <meta charset="utf-8">\\n    <!-- www.phpied.com/conditional-comments-block-downloads/ -->\\n    <!-- Always force latest IE rendering engine\\n         (even in intranet) & Chrome Frame\\n         Remove this if you use the .htaccess -->\\n    <meta http-equiv="X-UA-Compatible" content="IE=edge\', escape=False)\nresponse.write(not request.is_local and \',chrome=1\' or \'\')\nresponse.write(\'">\\n    <!--  Mobile Viewport Fix\\n          j.mp/mobileviewport & davidbcalhoun.com/2010/viewport-metatag\\n          device-width: Occupy full width of the screen in its current orientation\\n          initial-scale = 1.0 retains dimensions instead of zooming out if page height > device height\\n          user-scalable = yes allows the user to zoom in -->\\n    <meta name="viewport" content="width=device-width, initial-scale=1.0">\\n    <title>\', escape=False)\nresponse.write(response.title or request.application)\nresponse.write(\'</title>\\n    <!-- http://dev.w3.org/html5/markup/meta.name.html -->\\n    <meta name="application-name" content="\', escape=False)\nresponse.write(request.application)\nresponse.write(\'">\\n    <!-- Speaking of Google, don\\\'t forget to set your site up:\\n         http://google.com/webmasters -->\\n    <meta name="google-site-verification" content="">\\n    <!-- include stylesheets -->\\n    \\n    <link rel="stylesheet" href="\', escape=False)\nresponse.write(URL(\'static\',\'css/bootstrap.min.css\'))\nresponse.write(\'"/>\\n    <link rel="stylesheet" href="\', escape=False)\nresponse.write(URL(\'static\',\'css/web2py-bootstrap3.css\'))\nresponse.write(\'"/>\\n    <link rel="stylesheet" href="\', escape=False)\nresponse.write(URL(\'static\',\'css/mdb.min.css\'))\nresponse.write(\'">\\n    <link rel="stylesheet" href="\', escape=False)\nresponse.write(URL(\'static\',\'css/style.css\'))\nresponse.write(\'">\\n\\n    <link rel="shortcut icon" href="\', escape=False)\nresponse.write(URL(\'static\',\'img/favicon.ico\'))\nresponse.write(\'" type="image/x-icon">\\n    <link rel="apple-touch-icon" href="\', escape=False)\nresponse.write(URL(\'static\',\'img/favicon.png\'))\nresponse.write(\'">\\n    <!-- All JavaScript at the bottom, except for Modernizr which enables\\n         HTML5 elements & feature detects -->\\n    <script src="\', escape=False)\nresponse.write(URL(\'static\',\'js/modernizr-2.8.3.min.js\'))\nresponse.write(\'"></script>\\n\\n    <!--[if lt IE 9]>\\n        <script src="\', escape=False)\nresponse.write(URL(\'static\',\'js/respond-1.4.2.min.js\'))\nresponse.write(\'"></script>\\n        <![endif]-->\\n    <!-- Favicons -->\\n    \', escape=False)\nresponse.write(\'<script type="text/javascript"><!--\\n    // These variables are used by the web2py_ajax_init function in web2py_ajax.js (which is loaded below).\\n    var w2p_ajax_confirm_message = "\', escape=False)\nresponse.write(T(\'Are you sure you want to delete this object?\'))\nresponse.write(\'";\\n    var w2p_ajax_disable_with_message = "\', escape=False)\nresponse.write(T(\'Working...\'))\nresponse.write(\'";\\n    var w2p_ajax_date_format = "\', escape=False)\nresponse.write(T(\'%Y-%m-%d\'))\nresponse.write(\'";\\n    var w2p_ajax_datetime_format = "\', escape=False)\nresponse.write(T(\'%Y-%m-%d %H:%M:%S\'))\nresponse.write(\'";\\n    var ajax_error_500 = \\\'\', escape=False)\nresponse.write(T.M(\'An error occured, please [[reload %s]] the page\') % URL(args=request.args, vars=request.get_vars))\nresponse.write("\'\\n    //--></script>\\n", escape=False)\nresponse.files.insert(0,URL(\'static\',\'js/jquery-3.1.1.min.js\'))\nresponse.files.insert(1,URL(\'static\',\'css/calendar.css\'))\nresponse.files.insert(2,URL(\'static\',\'js/calendar.js\'))\nresponse.files.insert(3,URL(\'static\',\'js/web2py.js\'))\nresponse.include_meta()\nresponse.include_files()\nresponse.write(\'\\n\', escape=False)\nresponse.write(\' <!-- this includes jquery.js, calendar.js/.css and web2py.js -->\\n    \', escape=False)\nresponse.write(\'\\n\\n  </head>\\n  <body style="padding-top: 0px;">\\n    <!--[if lt IE 8]><p class="browserupgrade">You are using an <strong>outdated</strong> browser. Please <a href="http://browsehappy.com/">upgrade your browser</a> to improve your experience.</p><![endif]-->\\n    \\n      <!--Navbar-->\\n    <nav class="navbar navbar-dark navbar-fixed-top scrolling-navbar">\\n\\n        <!-- Collapse button-->\\n        <button class="navbar-toggler hidden-sm-up" type="button" data-toggle="collapse" data-target="#collapseEx">\\n            <span class="sr-only">Toggle navigation</span>\\n            <span class="icon-bar"></span>\\n            <span class="icon-bar"></span>\\n            <span class="icon-bar"></span>\\n        </button>\\n\\n        <div class="container">\\n\\n            <!--Collapse content-->\\n            <div class="collapse navbar-toggleable-xs" id="collapseEx">\\n                <!--Navbar Brand-->\\n                <ul class="nav navbar-nav navbar-right">\\n                    \', escape=False)\nresponse.write(\'auth\' in globals() and auth.navbar(\'Welcome\',mode=\'dropdown\') or \'\')\nresponse.write(\'\\n                  </ul>\\n                  <div  id="navbar-atention" style="margin-left: 30px; padding-left: 5px;">\\n                      \', escape=False)\nif response.menu:\n    response.write(\'\\n                      \', escape=False)\n    response.write(MENU(response.menu, _class=\'nav navbar-nav\',li_class=\'dropdown\',ul_class=\'dropdown-menu\'))\n    response.write(\'\\n                      \', escape=False)\n    pass\nresponse.write(\'\\n                  </div>\\n            </div>\\n            <!--/.Collapse content-->\\n\\n        </div>\\n\\n    </nav>\\n    <!--/.Navbar-->\\n\\n    <!--Mask-->\\n    <div class="view hm-black-strong">\\n        <div class="full-bg-img flex-center">\\n\\n            <ul>\\n                <li>\\n                    <h1 class="h1-responsive wow fadeInDown" data-wow-delay="0.2s">Material Design for Bootstrap 4</h1></li>\\n                <li>\\n                    <p class="wow fadeInDown">The most powerful and free UI KIT for Bootstrap</p>\\n                </li>\\n                <li>\\n                    <a target="_blank" href="http://mdbootstrap.com/getting-started/" class="btn btn-primary btn-lg wow fadeInLeft" data-wow-delay="0.2s">Sign up!</a>\\n                    <a target="_blank" href="http://mdbootstrap.com/material-design-for-bootstrap/" class="btn btn-default btn-lg wow fadeInRight" data-wow-delay="0.2s">Learn more</a>\\n                </li>\\n            </ul>\\n        </div>\\n    </div>\\n    <!--/.Mask-->\\n\\n    <!-- Main container-->\\n    <div class="container">\\n        \', escape=False)\nif left_sidebar_enabled:\n    response.write(\'\\n            <div class="col-md-3 left-sidebar">\\n                \', escape=False)\n    response.write(\'\\n                <h3>Left Sidebar</h3>\\n                <p></p>\\n                \', escape=False)\n    response.write(\'\\n            </div>\\n          \', escape=False)\n    pass\nresponse.write(\'\\n          \\n          <div class="\', escape=False)\nresponse.write(middle_column)\nresponse.write(\'">\\n            \', escape=False)\nresponse.write(\'\\n            \', escape=False)\nresponse.write(\'\\n\', escape=False)\nresponse.write(\'\\n\\n    \', escape=False)\nif request.args(0)==\'login\' and not session.auth_2_factor_user:\n    if not \'register\' in auth.settings.actions_disabled:\n        form.add_button(T(\'Register\'),URL(args=\'register\', vars={\'_next\': request.vars._next} if request.vars._next else None),_class=\'btn\')\n        pass\n    if not \'request_reset_password\' in auth.settings.actions_disabled:\n        form.add_button(T(\'Lost Password\'),URL(args=\'request_reset_password\'),_class=\'btn\')\n        pass\n    pass\nresponse.write(form)\nresponse.write(\'\\n\\n\', escape=False)\nresponse.write(\'\\n\\n\\n\', escape=False)\nresponse.write(\'\\n\', escape=False)\nresponse.write(\'\\n            \', escape=False)\nresponse.write(\'\\n          </div>\\n\\n          \', escape=False)\nif right_sidebar_enabled:\n    response.write(\'\\n            <div class="col-md-3">\\n                \', escape=False)\n    response.write(\'\\n                <h3>Right Sidebar</h3>\\n                <p></p>\\n                \', escape=False)\n    response.write(\'\\n            </div>\\n          \', escape=False)\n    pass\nresponse.write(\'\\n\\n        <div class="divider-new">\\n            <h2 class="h2-responsive wow bounceIn">About us</h2>\\n        </div>\\n\\n        <!--Section: About-->\\n        <section id="about" class="text-xs-center wow bounceIn" data-wow-delay="0.2s">\\n\\n            <p>Lorem ipsum dolor sit amet, consectetur adipisicing elit. Velit explicabo assumenda eligendi ex exercitationem harum deleniti quaerat beatae ducimus dolor voluptates magnam, reiciendis pariatur culpa tempore quibusdam quidem, saepe eius.</p>\\n            <p>Lorem ipsum dolor sit amet, consectetur adipisicing elit. Velit explicabo assumenda eligendi ex exercitationem harum deleniti quaerat beatae ducimus dolor voluptates magnam, reiciendis pariatur culpa tempore quibusdam quidem, saepe eius.</p>\\n\\n        </section>\\n        <!--Section: About-->\\n\\n        <div class="divider-new">\\n            <h2 class="h2-responsive wow fadeInDown">Best features</h2>\\n        </div>\\n\\n        <!--Section: Best features-->\\n        <section id="best-features">\\n\\n            <div class="row">\\n\\n                <!--First columnn-->\\n                <div class="col-md-3">\\n                    <!--Card-->\\n                    <div class="card wow fadeInUp">\\n\\n                        <!--Card image-->\\n                        <div class="view overlay hm-white-slight">\\n                            <img src="http://mdbootstrap.com/images/regular/city/img%20(2).jpg" class="img-fluid" alt="">\\n                            <a>\\n                                <div class="mask"></div>\\n                            </a>\\n                        </div>\\n                        <!--/.Card image-->\\n\\n                        <!--Card content-->\\n                        <div class="card-block text-xs-center">\\n                            <!--Title-->\\n                            <h4 class="card-title">Card title</h4>\\n                            <hr>\\n                            <!--Text-->\\n                            <p class="card-text">Lorem ipsum dolor sit amet, consectetur adipisicing elit. Provident fuga animi architecto dolores dicta cum quo velit.</p>\\n                        </div>\\n                        <!--/.Card content-->\\n\\n                    </div>\\n                    <!--/.Card-->\\n                </div>\\n                <!--First columnn-->\\n\\n                <!--Second columnn-->\\n                <div class="col-md-3">\\n                    <!--Card-->\\n                    <div class="card wow fadeInUp" data-wow-delay="0.2s">\\n\\n                        <!--Card image-->\\n                        <div class="view overlay hm-white-slight">\\n                            <img src="http://mdbootstrap.com/images/regular/city/img%20(3).jpg" class="img-fluid" alt="">\\n                            <a>\\n                                <div class="mask"></div>\\n                            </a>\\n                        </div>\\n                        <!--/.Card image-->\\n\\n                        <!--Card content-->\\n                        <div class="card-block text-xs-center">\\n                            <!--Title-->\\n                            <h4 class="card-title">Card title</h4>\\n                            <hr>\\n                            <!--Text-->\\n                            <p class="card-text">Lorem ipsum dolor sit amet, consectetur adipisicing elit. Provident fuga animi architecto dolores dicta cum quo velit.</p>\\n                        </div>\\n                        <!--/.Card content-->\\n\\n                    </div>\\n                    <!--/.Card-->\\n                </div>\\n                <!--Second columnn-->\\n\\n                <!--Third columnn-->\\n                <div class="col-md-3">\\n                    <!--Card-->\\n                    <div class="card wow fadeInUp" data-wow-delay="0.4s">\\n\\n                        <!--Card image-->\\n                        <div class="view overlay hm-white-slight">\\n                            <img src="http://mdbootstrap.com/images/regular/city/img%20(4).jpg" class="img-fluid" alt="">\\n                            <a>\\n                                <div class="mask"></div>\\n                            </a>\\n                        </div>\\n                        <!--/.Card image-->\\n\\n                        <!--Card content-->\\n                        <div class="card-block text-xs-center">\\n                            <!--Title-->\\n                            <h4 class="card-title">Card title</h4>\\n                            <hr>\\n                            <!--Text-->\\n                            <p class="card-text">Lorem ipsum dolor sit amet, consectetur adipisicing elit. Provident fuga animi architecto dolores dicta cum quo velit.</p>\\n                        </div>\\n                        <!--/.Card content-->\\n\\n                    </div>\\n                    <!--/.Card-->\\n                </div>\\n                <!--Third columnn-->\\n\\n                <!--Fourth columnn-->\\n                <div class="col-md-3">\\n                    <!--Card-->\\n                    <div class="card wow fadeInUp" data-wow-delay="0.6s">\\n\\n                        <!--Card image-->\\n                        <div class="view overlay hm-white-slight">\\n                            <img src="http://mdbootstrap.com/images/regular/city/img%20(8).jpg" class="img-fluid" alt="">\\n                            <a>\\n                                <div class="mask"></div>\\n                            </a>\\n                        </div>\\n                        <!--/.Card image-->\\n\\n                        <!--Card content-->\\n                        <div class="card-block text-xs-center">\\n                            <!--Title-->\\n                            <h4 class="card-title">Card title</h4>\\n                            <hr>\\n                            <!--Text-->\\n                            <p class="card-text">Lorem ipsum dolor sit amet, consectetur adipisicing elit. Provident fuga animi architecto dolores dicta cum quo velit.</p>\\n                        </div>\\n                        <!--/.Card content-->\\n\\n                    </div>\\n                    <!--/.Card-->\\n                </div>\\n                <!--Fourth columnn-->\\n            </div>\\n\\n        </section>\\n        <!--/Section: Best features-->\\n\\n        <div class="divider-new">\\n            <h2 class="h2-responsive wow fadeInUp">Contact us</h2>\\n        </div>\\n\\n        <!--Section: Contact-->\\n        <section id="contact">\\n            <div class="row">\\n                <!--First column-->\\n                <div class="col-md-8">\\n                    <div id="map-container" class="z-depth-1 wow fadeInUp" style="height: 300px"></div>\\n                </div>\\n                <!--/First column-->\\n\\n                <!--Second column-->\\n                <div class="col-md-4">\\n                    <ul class="text-xs-center">\\n                        <li class="wow fadeInUp" data-wow-delay="0.2s"><i class="fa fa-map-marker"></i>\\n                            <p>New York, NY 10012, USA</p>\\n                        </li>\\n\\n                        <li class="wow fadeInUp" data-wow-delay="0.3s"><i class="fa fa-phone"></i>\\n                            <p>+ 01 234 567 89</p>\\n                        </li>\\n\\n                        <li class="wow fadeInUp" data-wow-delay="0.4s"><i class="fa fa-envelope"></i>\\n                            <p>contact@mdbootstrap.com</p>\\n                        </li>\\n                    </ul>\\n                </div>\\n                <!--/Second column-->\\n            </div>\\n        </section>\\n        <!--Section: Contact-->\\n\\n    </div>\\n    <!--/ Main container-->\\n\\n\\n\\n    <!--Footer-->\\n\\n    <footer class="page-footer center-on-small-only mdb-color darken-4">\\n\\n        <!--Footer Links-->\\n        <div class="container-fluid">\\n            <div class="row">\\n\\n                <!--First column-->\\n                <div class="col-md-3 offset-md-1">\\n                    <h5 class="title">Sistema M\\xc3\\xb3vil para la Evaluaci\\xc3\\xb3n de la Atenci\\xc3\\xb3n</h3>\\n            \', escape=False)\nresponse.write(T(\'Copyright\'))\nresponse.write(\' &#169; \', escape=False)\nresponse.write(request.now.year)\nresponse.write(\'</h5>\\n                    <p>Material Design (codenamed Quantum Paper) is a design language developed by Google. </p>\\n\\n                    <p>Material Design for Bootstrap (MDB) is a powerful Material Design UI KIT for most popular HTML, CSS, and JS framework - Bootstrap.</p>\\n                </div>\\n                <!--/.First column-->\\n\\n                <hr class="hidden-md-up">\\n\\n                <!--Second column-->\\n                <div class="col-md-2 offset-md-1">\\n                    <h5 class="title">First column</h5>\\n                    <ul>\\n                        <li><a href="#!">Link 1</a></li>\\n                        <li><a href="#!">Link 2</a></li>\\n                        <li><a href="#!">Link 3</a></li>\\n                        <li><a href="#!">Link 4</a></li>\\n                    </ul>\\n                </div>\\n                <!--/.Second column-->\\n\\n                <hr class="hidden-md-up">\\n\\n                <!--Third column-->\\n                <div class="col-md-2">\\n                    <h5 class="title">Second column</h5>\\n                    <ul>\\n                        <li><a href="#!">Link 1</a></li>\\n                        <li><a href="#!">Link 2</a></li>\\n                        <li><a href="#!">Link 3</a></li>\\n                        <li><a href="#!">Link 4</a></li>\\n                    </ul>\\n                </div>\\n                <!--/.Third column-->\\n\\n                <hr class="hidden-md-up">\\n\\n                <!--Fourth column-->\\n                <div class="col-md-2">\\n                    <h5 class="title">Third column</h5>\\n                    <ul>\\n                        <li><a href="#!">Link 1</a></li>\\n                        <li><a href="#!">Link 2</a></li>\\n                        <li><a href="#!">Link 3</a></li>\\n                        <li><a href="#!">Link 4</a></li>\\n                    </ul>\\n                </div>\\n                <!--/.Fourth column-->\\n\\n            </div>\\n        </div>\\n        <!--/.Footer Links-->\\n\\n        <hr>\\n\\n        <!--Call to action-->\\n        <div class="call-to-action">\\n            <h4>Material Design for Bootstrap</h4>\\n            <ul>\\n                <li>\\n                    <h5>Get our UI KIT for free</h5></li>\\n                <li><a target="_blank" href="http://mdbootstrap.com/getting-started/" class="btn btn-danger">Sign up!</a></li>\\n                <li><a target="_blank" href="http://mdbootstrap.com/material-design-for-bootstrap/" class="btn btn-default">Learn more</a></li>\\n            </ul>\\n        </div>\\n        <!--/.Call to action-->\\n\\n        <!--Copyright-->\\n        <div class="footer-copyright">\\n            <div class="container-fluid">\\n                \\xc2\\xa9 2015 Copyright: <a href="http://www.MDBootstrap.com"> MDBootstrap.com </a>\\n\\n            </div>\\n        </div>\\n        <!--/.Copyright-->\\n\\n    </footer>\\n    <!--/.Footer-->\\n\\n--/.Mask-->\\n\\n    <!-- The javascript =============================== -->\\n    <script src="\', escape=False)\nresponse.write(URL(\'static\',\'js/bootstrap.min.js\'))\nresponse.write(\'"></script>\\n    <script src="\', escape=False)\nresponse.write(URL(\'static\',\'js/web2py-bootstrap3.js\'))\nresponse.write(\'"></script>\\n    <script src="\', escape=False)\nresponse.write(URL(\'static\',\'js/mdb.min.js\'))\nresponse.write(\'"></script>\\n    <script src="\', escape=False)\nresponse.write(URL(\'static\',\'js/highcharts.js\'))\nresponse.write(\'"></script>\\n    \', escape=False)\nresponse.write(\'\\n<script>\\n    jQuery("#web2py_user_form input:visible:enabled:first").focus();\\n\', escape=False)\nif request.args(0)==\'register\':\n    response.write("\\n    web2py_validate_entropy(jQuery(\'#auth_user_password\'),100);\\n", escape=False)\nelif request.args(0)==\'change_password\':\n    response.write("\\n    web2py_validate_entropy(jQuery(\'#no_table_new_password\'),100);\\n", escape=False)\n    pass\nresponse.write(\'\\n</script>\\n\', escape=False)\nresponse.write(\'\\n    <!-- Animations init-->\\n    <script>\\n        new WOW().init();\\n    </script>\\n\\n  </body>\\n</html>\\n\', escape=False)'
p7
sS'snapshot'
p8
(dp9
sS'traceback'
p10
S'Traceback (most recent call last):\n  File "/opt/python/web2py-files/web2py/gluon/restricted.py", line 227, in restricted\n    exec ccode in environment\n  File "/opt/python/web2py-files/web2py/applications/proyect/views/default/user.html", line 54, in <module>\nNameError: name \'left_sidebar_enabled\' is not defined\n'
p11
s.