(dp1
S'output'
p2
S"<type 'exceptions.AttributeError'> 'Table' object has no attribute 'createdBy'"
p3
sS'layer'
p4
S'/opt/python/web2py-files/web2py/applications/proyect/controllers/estudiante.py'
p5
sS'code'
p6
S'# -*- coding: utf-8 -*-\n# this file is released under public domain and you can use without limitations\ndef visor_preguntas():\n    \'\'\'\n    Implementaci\xc3\xb3n de un visor de preguntas de un diagn\xc3\xb3stico dado\n    \'\'\'\n    if request.cid:\n\n        return dict()\n    else:\n        raise HTTP(403)\n\n@auth.requires_membership("Estudiante")\ndef cuestionario_diagnostico():\n    response.flash = T("Cuestionario de diagn\xc3\xb3stico")\n    response.title = T("Cuestionario de diagn\xc3\xb3stico") + response.title\n\n    diagnostico = db((db.diagnostico.activo == True) & (db.diagnostico.tipo == 0)).select().first()\n\n    preguntas = db((db.pregunta.tipo > 1) & (db.pregunta.diagnostico == diagnostico.id)).select(orderby=db.pregunta.tipo)\n\n    respuesta = db((db.respuesta.diagnostico == 0) & (db.respuesta.createdBy == auth.user.id)).select()\n    return dict(diagnostico=diagnostico, preguntas=preguntas, respuesta=respuesta)\n\ndef diag_alternada():\n\n    response.title = T("Atenci\xc3\xb3n Alternada") + response.title\n    return dict()\n\ndef diag_dividida():\n\n    response.title = T("Atenci\xc3\xb3n Dividida") + response.title\n    return dict()\n\ndef diag_enfocada():\n\n    response.title = T("Atenci\xc3\xb3n Enfocada") + response.title\n    return dict()\n\ndef diag_selectiva():\n\n    response.title = T("Atenci\xc3\xb3n Selectiva") + response.title\n    return dict()\n\ndef diag_sostenida():\n\n    response.title = T("Atenci\xc3\xb3n Sostenida") + response.title\n    return dict()\n\ndef resultado_general():\n    response.flash = T("Resultado General")\n    response.title = T("Resultado General") + response.title\n    return dict()\n\ndef resultado_alternada():\n\n    response.title = T("Atenci\xc3\xb3n Alternada") + response.title\n    return dict()\n\ndef resultado_dividida():\n\n    response.title = T("Atenci\xc3\xb3n Dividida") + response.title\n    return dict()\n\ndef resultado_enfocada():\n\n    response.title = T("Atenci\xc3\xb3n Enfocada") + response.title\n    return dict()\n\ndef resultado_selectiva():\n\n    response.title = T("Atenci\xc3\xb3n Selectiva") + response.title\n    return dict()\n\ndef resultado_sostenida():\n\n    response.title = T("Atenci\xc3\xb3n Sostenida") + response.title\n    return dict()\n\nresponse._vars=response._caller(cuestionario_diagnostico)\n'
p7
sS'snapshot'
p8
(dp9
sS'traceback'
p10
S'Traceback (most recent call last):\n  File "/opt/python/web2py-files/web2py/gluon/restricted.py", line 227, in restricted\n    exec ccode in environment\n  File "/opt/python/web2py-files/web2py/applications/proyect/controllers/estudiante.py", line 80, in <module>\n  File "/opt/python/web2py-files/web2py/gluon/globals.py", line 417, in <lambda>\n    self._caller = lambda f: f()\n  File "/opt/python/web2py-files/web2py/gluon/tools.py", line 4241, in f\n    return action(*a, **b)\n  File "/opt/python/web2py-files/web2py/applications/proyect/controllers/estudiante.py", line 22, in cuestionario_diagnostico\n    respuesta = db((db.respuesta.diagnostico == 0) & (db.respuesta.createdBy == auth.user.id)).select()\nAttributeError: \'Table\' object has no attribute \'createdBy\'\n'
p11
s.