(dp1
S'output'
p2
S"<type 'exceptions.Exception'> Validation error, field:tipo <gluon.validators.IS_NOT_IN_DB object at 0x7f5d5c936810>"
p3
sS'layer'
p4
S'/opt/python/web2py-files/web2py/applications/proyect/controllers/especialista.py'
p5
sS'code'
p6
S'# -*- coding: utf-8 -*-\n# this file is released under public domain and you can use without limitations\ndef listado_preguntas():\n    if request.cid:\n\n        preguntas = []\n\n        if request.vars.diagnostico:\n            diagnostico = db.diagnostico(request.vars.diagnostico)\n            if diagnostico:\n                preguntas = diagnostico.pregunta\n            else:\n                raise HTTP(403)\n        else:\n            raise HTTP(502)\n\n        fields = [db.pregunta.texto, db.pregunta.respuesta, db.pregunta.tipo, db.pregunta.puntos]\n\n        preguntas = db(db.pregunta.id.belongs(preguntas)).select()\n\n        response.headers[\'web2py-component-flash\']=T("Listado de preguntas")\n        return dict(preguntas=preguntas)\n    else:\n        raise HTTP(403)\n\n@auth.requires_membership("Especialista")\ndef gestionar_diagnostico():\n    \'\'\'\n    CRUD completo para gestionar diagnosticos kike tiene que ser asi\n    \'\'\'\n\n    diagnostico = None\n\n    if (("pregunta.diagnostico" in request.args) and not("pregunta" in request.args)):\n        response.title = T(\'Gestionar preguntas del diagn\xc3\xb3stico\') + response.title\n        response.flash = T(\'Gestionar preguntas del diagn\xc3\xb3stico\')\n        mensaje = T(\'Gestionar preguntas del diagn\xc3\xb3stico con identificador: \') + request.args(-1)\n        diagnostico = db.diagnostico(request.args(-1))\n        selectable = lambda ids: db(db.pregunta.id.belongs(ids)).delete()\n        orderby = [db.pregunta.tipo]\n    elif (("pregunta.diagnostico" in request.args) and ("pregunta" in request.args)):\n        response.title = T(\'Pregunta del diagn\xc3\xb3stico\') + response.title\n        response.flash = T(\'Pregunta del diagn\xc3\xb3stico\')\n        mensaje = T(\'Pregunta del diagn\xc3\xb3stico\')\n        selectable = None\n        orderby = None\n    else:\n        response.title = T(\'Gestionar Diagn\xc3\xb3sticos\') + response.title\n        response.flash = T(\'Gestionar Diagn\xc3\xb3sticos\')\n        mensaje = T(\'Gestionar Diagn\xc3\xb3sticos\')\n        selectable = lambda ids: db(db.diagnostico.id.belongs(ids)).delete()\n        orderby = [db.diagnostico.tipo|~db.diagnostico.activo]\n\n    grid = SQLFORM.smartgrid(db.diagnostico, selectable=selectable, orderby=orderby)\n\n    heading=grid.elements(\'th\')\n    if heading:\n           heading[0].append(INPUT(_type=\'checkbox\', _onclick="jQuery(\'input[type=checkbox]\').each(function(k){jQuery(this).attr(\'checked\', \'checked\');});"))\n\n    return dict(grid=grid, mensaje=mensaje, diagnostico=diagnostico)\n\n@auth.requires_membership("Especialista")\ndef nuevo_diagnostico_inicial():\n    response.flash = T("Nuevo Diagn\xc3\xb3stico Inicial")\n    response.title = T("Nuevo Diagn\xc3\xb3stico Inicial") + response.title\n\n    form = SQLFORM(db.diagnostico, fields=[\'titulo\', \'descripcion\', \'activo\'])\n\n    if form.validate():\n        diagnostico = dict(form.vars)\n        diagnostico[\'tipo\'] = 0\n        form.vars.id = db.diagnostico.insert(**diagnostico)\n\n        response.flash = T(\'Nuevo cuestionario Diagn\xc3\xb3stico Inicial insertado\')\n\n    elif form.errors:\n        response.flash = T(\'El formulario tiene errores\')\n    else:\n        response.flash = T(\'Por favor complete el formulario\')\n    return dict(form=form)\n\nresponse._vars=response._caller(gestionar_diagnostico)\n'
p7
sS'snapshot'
p8
(dp9
sS'traceback'
p10
S'Traceback (most recent call last):\n  File "/opt/python/web2py-files/web2py/gluon/restricted.py", line 227, in restricted\n    exec ccode in environment\n  File "/opt/python/web2py-files/web2py/applications/proyect/controllers/especialista.py", line 82, in <module>\n  File "/opt/python/web2py-files/web2py/gluon/globals.py", line 417, in <lambda>\n    self._caller = lambda f: f()\n  File "/opt/python/web2py-files/web2py/gluon/tools.py", line 4241, in f\n    return action(*a, **b)\n  File "/opt/python/web2py-files/web2py/applications/proyect/controllers/especialista.py", line 54, in gestionar_diagnostico\n    grid = SQLFORM.smartgrid(db.diagnostico, selectable=selectable, orderby=orderby)\n  File "/opt/python/web2py-files/web2py/gluon/sqlhtml.py", line 3102, in smartgrid\n    user_signature=user_signature, **kwargs)\n  File "/opt/python/web2py-files/web2py/gluon/sqlhtml.py", line 2308, in grid\n    onsuccess=oncreate)\n  File "/opt/python/web2py-files/web2py/gluon/html.py", line 2298, in process\n    self.validate(**kwargs)\n  File "/opt/python/web2py-files/web2py/gluon/html.py", line 2236, in validate\n    if self.accepts(**kwargs):\n  File "/opt/python/web2py-files/web2py/gluon/sqlhtml.py", line 1529, in accepts\n    **kwargs\n  File "/opt/python/web2py-files/web2py/gluon/html.py", line 2122, in accepts\n    status = self._traverse(status, hideerror)\n  File "/opt/python/web2py-files/web2py/gluon/html.py", line 889, in _traverse\n    newstatus = c._traverse(status, hideerror) and newstatus\n  File "/opt/python/web2py-files/web2py/gluon/html.py", line 889, in _traverse\n    newstatus = c._traverse(status, hideerror) and newstatus\n  File "/opt/python/web2py-files/web2py/gluon/html.py", line 889, in _traverse\n    newstatus = c._traverse(status, hideerror) and newstatus\n  File "/opt/python/web2py-files/web2py/gluon/html.py", line 889, in _traverse\n    newstatus = c._traverse(status, hideerror) and newstatus\n  File "/opt/python/web2py-files/web2py/gluon/html.py", line 896, in _traverse\n    newstatus = self._validate()\n  File "/opt/python/web2py-files/web2py/gluon/html.py", line 1867, in _validate\n    raise Exception(msg)\nException: Validation error, field:tipo <gluon.validators.IS_NOT_IN_DB object at 0x7f5d5c936810>\n'
p11
s.