(dp1
S'output'
p2
S"<class 'sqlite3.IntegrityError'> FOREIGN KEY constraint failed"
p3
sS'layer'
p4
S'/opt/python/web2py-files/web2py/applications/proyect/controllers/default.py'
p5
sS'code'
p6
S'# -*- coding: utf-8 -*-\n# this file is released under public domain and you can use without limitations\n\n# -------------------------------------------------------------------------\n# This is a sample controller\n# - index is the default action of any application\n# - user is required for authentication and authorization\n# - download is for downloading files uploaded in the db (does streaming)\n# -------------------------------------------------------------------------\n\n\n@auth.requires_login()\ndef index():\n    """\n    example action using the internationalization operator T and flash\n    rendered by views/default/index.html or views/generic.html\n\n    if you need a simple wiki simply replace the two lines below with:\n    return auth.wiki()\n    """\n    response.title = T("Home page") + response.title\n    return dict()\n\n\ndef user():\n    """\n    exposes:\n    http://..../[app]/default/user/login\n    http://..../[app]/default/user/logout\n    http://..../[app]/default/user/register\n    http://..../[app]/default/user/profile\n    http://..../[app]/default/user/retrieve_password\n    http://..../[app]/default/user/change_password\n    http://..../[app]/default/user/bulk_register\n    use @auth.requires_login()\n        @auth.requires_membership(\'group name\')\n        @auth.requires_permission(\'read\',\'table name\',record_id)\n    to decorate functions that need access control\n    also notice there is http://..../[app]/appadmin/manage/auth to allow administrator to manage users\n    """\n    response.title = T("Autenticaci\xc3\xb3n | SIMEAT")\n\n    \'\'\'form_login = FORM(INPUT(_name=\'email\', _class="form-control form-login wow fadeInLeft", _placeholder=T("Correo"), requires=IS_NOT_EMPTY()),\n                      INPUT(_name=\'password\', _class="form-control form-login wow fadeInRight", _type="password", _placeholder=T("Contrase\xc3\xb1a"),requires=IS_NOT_EMPTY()),\n                      INPUT(_type=\'submit\', _value=T("Ingresar"), _class="wow fadeInLeft"), _class="waves-light")\n\n    if form_login.accepts(request,session):\n        user = auth.login_bare(form_login.vars.email, form_login.vars.password)\n        if user:\n            redirect(request.vars._next)\n        else:\n            response.flash = T(\'Usuario o contrase\xc3\xb1a no v\xc3\xa1lidos\')\n    elif form_login.errors:\n        response.flash = T(\'El formulario tiene errores\')\n    else:\'\'\'\n\n    return dict(form=auth())\n\n\n@cache.action()\ndef download():\n    """\n    allows downloading of uploaded files\n    http://..../[app]/default/download/[filename]\n    """\n    return response.download(request, db)\n\n\ndef call():\n    """\n    exposes services. for example:\n    http://..../[app]/default/call/jsonrpc\n    decorate with @services.jsonrpc the functions to expose\n    supports xml, json, xmlrpc, jsonrpc, amfrpc, rss, csv\n    """\n    return service()\n\nresponse._vars=response._caller(user)\n'
p7
sS'snapshot'
p8
(dp9
sS'traceback'
p10
S'Traceback (most recent call last):\n  File "/opt/python/web2py-files/web2py/gluon/restricted.py", line 227, in restricted\n    exec ccode in environment\n  File "/opt/python/web2py-files/web2py/applications/proyect/controllers/default.py", line 78, in <module>\n  File "/opt/python/web2py-files/web2py/gluon/globals.py", line 417, in <lambda>\n    self._caller = lambda f: f()\n  File "/opt/python/web2py-files/web2py/applications/proyect/controllers/default.py", line 57, in user\n    return dict(form=auth())\n  File "/opt/python/web2py-files/web2py/gluon/tools.py", line 1941, in __call__\n    return getattr(self, args[0])()\n  File "/opt/python/web2py-files/web2py/gluon/tools.py", line 3235, in logout\n    self.log_event(log, self.user)\n  File "/opt/python/web2py-files/web2py/gluon/tools.py", line 2530, in log_event\n    self.table_event().insert(description=str(description % vars), origin=origin, user_id=user_id)\n  File "/opt/python/web2py-files/web2py/gluon/packages/dal/pydal/objects.py", line 726, in insert\n    ret = self._db._adapter.insert(self, self._listify(fields))\n  File "/opt/python/web2py-files/web2py/gluon/packages/dal/pydal/adapters/base.py", line 746, in insert\n    raise e\nIntegrityError: FOREIGN KEY constraint failed\n'
p11
s.